 TWSDNetPayCore

 Timestamp is 648feab8 (Mon Jun 19 13:42:16 2023)

 Preferred load address is 10000000

 Start         Length     Name                   Class
 0001:00000000 0011fa54H .text                   CODE
 0001:0011fa60 00014f13H .text$x                 CODE
 0001:00134980 0000077fH .text$yc                CODE
 0001:00135100 000008b0H .text$yd                CODE
 0002:00000000 0000064cH .idata$5                DATA
 0002:0000064c 00000004H .CRT$XCA                DATA
 0002:00000650 00000018H .CRT$XCC                DATA
 0002:00000668 00000010H .CRT$XCL                DATA
 0002:00000678 000000b8H .CRT$XCU                DATA
 0002:00000730 00000004H .CRT$XCZ                DATA
 0002:00000734 00000004H .CRT$XIA                DATA
 0002:00000738 00000014H .CRT$XIC                DATA
 0002:0000074c 00000004H .CRT$XID                DATA
 0002:00000750 00000004H .CRT$XIZ                DATA
 0002:00000754 00000004H .CRT$XPA                DATA
 0002:00000758 00000004H .CRT$XPX                DATA
 0002:0000075c 00000004H .CRT$XPXA               DATA
 0002:00000760 00000004H .CRT$XPZ                DATA
 0002:00000764 00000004H .CRT$XTA                DATA
 0002:00000768 00000004H .CRT$XTZ                DATA
 0002:00000770 0001f4a8H .rdata                  DATA
 0002:0001fc18 00000072H .rdata$debug            DATA
 0002:0001fc8c 000035d0H .rdata$r                DATA
 0002:00023260 00000c80H .rdata$sxdata           DATA
 0002:00023ee0 00000004H .rtc$IAA                DATA
 0002:00023ee4 00000004H .rtc$IZZ                DATA
 0002:00023ee8 00000004H .rtc$TAA                DATA
 0002:00023eec 00000004H .rtc$TZZ                DATA
 0002:00023ef0 00013594H .xdata$x                DATA
 0002:00037484 00000000H ATL$__a                 DATA
 0002:00037484 00000000H ATL$__z                 DATA
 0002:00037484 00000020H .didat$2                DATA
 0002:000374a4 00000020H .didat$3                DATA
 0002:000374c4 0000000cH .didat$4                DATA
 0002:000374d0 00000030H .didat$6                DATA
 0002:00037500 0000000cH .didat$7                DATA
 0002:0003750c 0000012cH .idata$2                DATA
 0002:00037638 00000014H .idata$3                DATA
 0002:0003764c 0000064cH .idata$4                DATA
 0002:00037c98 0000180aH .idata$6                DATA
 0002:000394b0 0000059bH .edata                  DATA
 0003:00000000 00003fa4H .data                   DATA
 0003:00003fa4 0000000cH .didat$5                DATA
 0003:00003fc0 00008d88H .bss                    DATA
 0004:00000000 000009d0H .rsrc$01                DATA
 0004:000009d0 00003240H .rsrc$02                DATA

  Address         Publics by Value              Rva+Base       Lib:Object

 0000:00000000       __except_list              00000000     <absolute>
 0000:00000320       ___safe_se_handler_count   00000320     <absolute>
 0000:00000000       ___ImageBase               10000000     <linker-defined>
 0001:00000000       ?aes_gen_tables@AES_ECB_ALG@@YAXXZ 10001000 f   Aes.obj
 0001:000001f0       ?aes_set_key@AES_ECB_ALG@@YAHPAUaes_context@1@PAEH@Z 100011f0 f   Aes.obj
 0001:000006e0       ?aes_encrypt@AES_ECB_ALG@@YAXPAUaes_context@1@QAE1@Z 100016e0 f   Aes.obj
 0001:00001690       ??1bad_alloc@std@@UAE@XZ   10002690 f i AesECB.obj
 0001:000016a0       ??_Gbad_alloc@std@@UAEPAXI@Z 100026a0 f i AesECB.obj
 0001:000016a0       ??_Ebad_alloc@std@@UAEPAXI@Z 100026a0 f i  CIL library: CIL module
 0001:000016d0       ??1CAesECB@@QAE@XZ         100026d0 f   AesECB.obj
 0001:000016f0       ?EncryptData@CAesECB@@QAE?BV?$CStringT@DV?$StrTraitMFC@DV?$ChTraitsCRT@D@ATL@@@@@ATL@@ABV23@@Z 100026f0 f   AesECB.obj
 0001:00001850       ?Encrypt@CAesECB@@AAE?AV?$basic_string@DU?$char_traits@D@std@@V?$allocator@D@2@@std@@V23@0@Z 10002850 f   AesECB.obj
 0001:00001b70       ?StringToHex@CAesECB@@AAEXPBDPAE@Z 10002b70 f   AesECB.obj
 0001:00001bc0       ?Bin2Hex@CAesECB@@AAE?AV?$CStringT@DV?$StrTraitMFC@DV?$ChTraitsCRT@D@ATL@@@@@ATL@@PAEK@Z 10002bc0 f   AesECB.obj
 0001:00001cd0       ?MakeUpper@?$CStringT@DV?$StrTraitMFC@DV?$ChTraitsCRT@D@ATL@@@@@ATL@@QAEAAV12@XZ 10002cd0 f i AesECB.obj
 0001:00001d30       ?FormatV@?$CStringT@DV?$StrTraitMFC@DV?$ChTraitsCRT@D@ATL@@@@@ATL@@QAEXPBDPAD@Z 10002d30 f i AesECB.obj
 0001:00001db0       ??0?$basic_string@DU?$char_traits@D@std@@V?$allocator@D@2@@std@@QAE@XZ 10002db0 f i AesECB.obj
 0001:00001dd0       ??0?$basic_string@DU?$char_traits@D@std@@V?$allocator@D@2@@std@@QAE@PBD@Z 10002dd0 f i AesECB.obj
 0001:00001e10       ??0?$basic_string@DU?$char_traits@D@std@@V?$allocator@D@2@@std@@QAE@ABV01@@Z 10002e10 f i AesECB.obj
 0001:00001e40       ??1?$basic_string@DU?$char_traits@D@std@@V?$allocator@D@2@@std@@QAE@XZ 10002e40 f i AesECB.obj
 0001:00001e70       ??4?$basic_string@DU?$char_traits@D@std@@V?$allocator@D@2@@std@@QAEAAV01@PBD@Z 10002e70 f i AesECB.obj
 0001:00001e70       ?assign@?$basic_string@DU?$char_traits@D@std@@V?$allocator@D@2@@std@@QAEAAV12@PBD@Z 10002e70 f i AesECB.obj
 0001:00001ea0       ??Y?$CSimpleStringT@D$0A@@ATL@@QAEAAV01@ABV01@@Z 10002ea0 f i AesECB.obj
 0001:00001ea0       ??Y?$CStringT@DV?$StrTraitMFC@DV?$ChTraitsCRT@D@ATL@@@@@ATL@@QAEAAV01@ABV?$CSimpleStringT@D$0A@@1@@Z 10002ea0 f i AesECB.obj
 0001:00001ec0       ?assign@?$basic_string@DU?$char_traits@D@std@@V?$allocator@D@2@@std@@QAEAAV12@ABV12@II@Z 10002ec0 f i AesECB.obj
 0001:00001fa0       ?_Tidy@?$basic_string@DU?$char_traits@D@std@@V?$allocator@D@2@@std@@IAEX_NI@Z 10002fa0 f i AesECB.obj
 0001:00001ff0       ?c_str@?$basic_string@DU?$char_traits@D@std@@V?$allocator@D@2@@std@@QBEPBDXZ 10002ff0 f i AesECB.obj
 0001:00001ff0       ?_Myptr@?$basic_string@DU?$char_traits@D@std@@V?$allocator@D@2@@std@@IBEPBDXZ 10002ff0 f i AesECB.obj
 0001:00002000       ?assign@?$basic_string@DU?$char_traits@D@std@@V?$allocator@D@2@@std@@QAEAAV12@PBDI@Z 10003000 f i AesECB.obj
 0001:000020d0       ?erase@?$basic_string@DU?$char_traits@D@std@@V?$allocator@D@2@@std@@QAEAAV12@II@Z 100030d0 f i AesECB.obj
 0001:00002160       ?_Eos@?$basic_string@DU?$char_traits@D@std@@V?$allocator@D@2@@std@@IAEXI@Z 10003160 f i AesECB.obj
 0001:00002180       ?_Grow@?$basic_string@DU?$char_traits@D@std@@V?$allocator@D@2@@std@@IAE_NI_N@Z 10003180 f i AesECB.obj
 0001:00002240       ?Append@?$CSimpleStringT@D$0A@@ATL@@QAEXPBDH@Z 10003240 f i AesECB.obj
 0001:000022c0       ?_Copy@?$basic_string@DU?$char_traits@D@std@@V?$allocator@D@2@@std@@IAEXII@Z 100032c0 f i AesECB.obj
 0001:00002410       ??$_Allocate@D@std@@YAPADIPAD@Z 10003410 f i AesECB.obj
 0001:00002470       ??0bad_alloc@std@@QAE@ABV01@@Z 10003470 f i AesECB.obj
 0001:00002490       ?AfxCrtErrorCheck@@YAHH@Z  10003490 f i AesECB.obj
 0001:00002520       ?AtlThrowImpl@ATL@@YGXJ@Z  10003520 f i AesECB.obj
 0001:00002540       ?SetLength@?$CSimpleStringT@D$0A@@ATL@@AAEXH@Z 10003540 f i AesECB.obj
 0001:00002570       ?PrepareWrite@?$CSimpleStringT@D$0A@@ATL@@AAEPADH@Z 10003570 f i AesECB.obj
 0001:00002570       ?GetBuffer@?$CSimpleStringT@D$0A@@ATL@@QAEPADH@Z 10003570 f i AesECB.obj
 0001:000025a0       ?PrepareWrite2@?$CSimpleStringT@D$0A@@ATL@@AAEXH@Z 100035a0 f i AesECB.obj
 0001:000025f0       ?Fork@?$CSimpleStringT@D$0A@@ATL@@AAEXH@Z 100035f0 f i AesECB.obj
 0001:00002670       ?ThrowMemoryException@?$CSimpleStringT@D$0A@@ATL@@KAXXZ 10003670 f i AesECB.obj
 0001:00002680       ?Release@CStringData@ATL@@QAEXXZ 10003680 f i AesECB.obj
 0001:000026a0       ?Reallocate@?$CSimpleStringT@D$0A@@ATL@@AAEXH@Z 100036a0 f i AesECB.obj
 0001:000026e0       ??0?$CStringT@DV?$StrTraitMFC@DV?$ChTraitsCRT@D@ATL@@@@@ATL@@QAE@PBD@Z 100036e0 f i AesECB.obj
 0001:000027a0       ??0?$CSimpleStringT@D$0A@@ATL@@QAE@PAUIAtlStringMgr@1@@Z 100037a0 f i AesECB.obj
 0001:000027d0       ?CheckImplicitLoad@?$CStringT@DV?$StrTraitMFC@DV?$ChTraitsCRT@D@ATL@@@@@ATL@@AAE_NPBX@Z 100037d0 f i AesECB.obj
 0001:00002810       ?LoadStringA@?$CStringT@DV?$StrTraitMFC@DV?$ChTraitsCRT@D@ATL@@@@@ATL@@QAEHI@Z 10003810 f i AesECB.obj
 0001:00002840       ?LoadStringA@?$CStringT@DV?$StrTraitMFC@DV?$ChTraitsCRT@D@ATL@@@@@ATL@@QAEHPAUHINSTANCE__@@I@Z 10003840 f i AesECB.obj
 0001:00002910       ?AtlGetStringResourceImage@ATL@@YAPBUATLSTRINGRESOURCEIMAGE@1@PAUHINSTANCE__@@I@Z 10003910 f i AesECB.obj
 0001:00002950       ?_AtlGetStringResourceImage@ATL@@YAPBUATLSTRINGRESOURCEIMAGE@1@PAUHINSTANCE__@@PAUHRSRC__@@I@Z 10003950 f i AesECB.obj
 0001:000029c0       ?GetBaseTypeLength@?$ChTraitsCRT@D@ATL@@SAHPB_WH@Z 100039c0 f i AesECB.obj
 0001:000029f0       ?ConvertToBaseType@?$ChTraitsCRT@D@ATL@@SAXPADHPB_WH@Z 100039f0 f i AesECB.obj
 0001:00002a20       ??4?$CStringT@DV?$StrTraitMFC@DV?$ChTraitsCRT@D@ATL@@@@@ATL@@QAEAAV01@PBD@Z 10003a20 f i AesECB.obj
 0001:00002a60       ?SetString@?$CSimpleStringT@D$0A@@ATL@@QAEXPBD@Z 10003a60 f i AesECB.obj
 0001:00002aa0       ?SetString@?$CSimpleStringT@D$0A@@ATL@@QAEXPBDH@Z 10003aa0 f i AesECB.obj
 0001:00002b30       ?Empty@?$CSimpleStringT@D$0A@@ATL@@QAEXXZ 10003b30 f i AesECB.obj
 0001:00002b90       ?Format@?$CStringT@DV?$StrTraitMFC@DV?$ChTraitsCRT@D@ATL@@@@@ATL@@QAAXPBDZZ 10003b90 f i AesECB.obj
 0001:00002bb0       ??0?$CStringT@DV?$StrTraitMFC@DV?$ChTraitsCRT@D@ATL@@@@@ATL@@QAE@XZ 10003bb0 f i AesECB.obj
 0001:00002be0       ??0?$CStringT@DV?$StrTraitMFC@DV?$ChTraitsCRT@D@ATL@@@@@ATL@@QAE@ABV01@@Z 10003be0 f i AesECB.obj
 0001:00002be0       ??0?$CSimpleStringT@D$0A@@ATL@@QAE@ABV01@@Z 10003be0 f i AesECB.obj
 0001:00002c00       ?CloneData@?$CSimpleStringT@D$0A@@ATL@@CAPAUCStringData@2@PAU32@@Z 10003c00 f i AesECB.obj
 0001:00002c70       ??_GCAgencyPay@@UAEPAXI@Z  10003c70 f i AgencyPay.obj
 0001:00002c70       ??_ECAgencyPay@@UAEPAXI@Z  10003c70 f i  CIL library: CIL module
 0001:00002cc0       ??1CAgencyPay@@UAE@XZ      10003cc0 f   AgencyPay.obj
 0001:00002d00       ??0logic_error@std@@QAE@ABV?$basic_string@DU?$char_traits@D@std@@V?$allocator@D@2@@1@@Z 10003d00 f i base64.obj
 0001:00002d70       ?what@runtime_error@std@@UBEPBDXZ 10003d70 f i DataBaseHelper.obj
 0001:00002d70       ?what@logic_error@std@@UBEPBDXZ 10003d70 f i base64.obj
 0001:00002d80       ??_Gout_of_range@std@@UAEPAXI@Z 10003d80 f i JsonHelper.obj
 0001:00002d80       ??_Eout_of_range@std@@UAEPAXI@Z 10003d80 f i  CIL library: CIL module
 0001:00002d80       ??_Elength_error@std@@UAEPAXI@Z 10003d80 f i  CIL library: CIL module
 0001:00002d80       ??_Glength_error@std@@UAEPAXI@Z 10003d80 f i base64.obj
 0001:00002d80       ??_Glogic_error@std@@UAEPAXI@Z 10003d80 f i base64.obj
 0001:00002d80       ??_Elogic_error@std@@UAEPAXI@Z 10003d80 f i  CIL library: CIL module
 0001:00002dd0       ??1out_of_range@std@@UAE@XZ 10003dd0 f i JsonHelper.obj
 0001:00002dd0       ??1length_error@std@@UAE@XZ 10003dd0 f i base64.obj
 0001:00002e10       ?Base64_Decode@@YAIPADPBDI@Z 10003e10 f   base64.obj
 0001:00002f80       ?Base64_Encode@@YAIPADPBDI@Z 10003f80 f   base64.obj
 0001:00003090       ??0length_error@std@@QAE@ABV01@@Z 10004090 f i base64.obj
 0001:000030b0       ??0logic_error@std@@QAE@ABV01@@Z 100040b0 f i base64.obj
 0001:00003130       ??1CScopeLock@@QAE@XZ      10004130 f i RemoteAccessCore.obj
 0001:00003130       ??1CScopeLock@trawe@@QAE@XZ 10004130 f i CancelPayUnit.obj
 0001:00003140       ??0CCancelPayUnit@@QAE@XZ  10004140 f   CancelPayUnit.obj
 0001:00003250       ??_ECCancelPayUnit@@UAEPAXI@Z 10004250 f i  CIL library: CIL module
 0001:00003250       ??_GCCancelPayUnit@@UAEPAXI@Z 10004250 f i CancelPayUnit.obj
 0001:00003270       ??1CCancelPayUnit@@UAE@XZ  10004270 f   CancelPayUnit.obj
 0001:000032e0       ?RunBody@CCancelPayUnit@@UAEXXZ 100042e0 f   CancelPayUnit.obj
 0001:000032f0       ?ExecuteOneCancle@CCancelPayUnit@@AAEHXZ 100042f0 f   CancelPayUnit.obj
 0001:00003d20       ?NotifyResult@CCancelPayUnit@@AAEHHH@Z 10004d20 f   CancelPayUnit.obj
 0001:00003e50       ?GetDebitCancleFromDataBase@CCancelPayUnit@@AAEHXZ 10004e50 f   CancelPayUnit.obj
 0001:00004300       ?DeleteDebitCancleFromDataBase@CCancelPayUnit@@AAEHABUDebitCancleParameter@@@Z 10005300 f   CancelPayUnit.obj
 0001:000044c0       ?_Buynode@?$list@UDebitCancleParameter@@V?$allocator@UDebitCancleParameter@@@std@@@std@@IAEPAU_Node@?$_List_nod@UDebitCancleParameter@@V?$allocator@UDebitCancleParameter@@@std@@@2@XZ 100054c0 f i CancelPayUnit.obj
 0001:000044e0       ?_Buynode@?$list@UDebitCancleParameter@@V?$allocator@UDebitCancleParameter@@@std@@@std@@IAEPAU_Node@?$_List_nod@UDebitCancleParameter@@V?$allocator@UDebitCancleParameter@@@std@@@2@PAU342@0ABUDebitCancleParameter@@@Z 100054e0 f i CancelPayUnit.obj
 0001:00004520       ?_Incsize@?$list@UDebitCancleParameter@@V?$allocator@UDebitCancleParameter@@@std@@@std@@IAEXI@Z 10005520 f i CancelPayUnit.obj
 0001:000045c0       ??$?HDU?$char_traits@D@std@@V?$allocator@D@1@@std@@YA?AV?$basic_string@DU?$char_traits@D@std@@V?$allocator@D@2@@0@PBDABV10@@Z 100055c0 f i CancelPayUnit.obj
 0001:00004670       ??$sprintf_s@$0EAA@@@YAHAAY0EAA@DPBDZZ 10005670 f i CancelPayUnit.obj
 0001:00004690       ??$_Allocate@U_Node@?$_List_nod@UDebitCancleParameter@@V?$allocator@UDebitCancleParameter@@@std@@@std@@@std@@YAPAU_Node@?$_List_nod@UDebitCancleParameter@@V?$allocator@UDebitCancleParameter@@@std@@@0@IPAU120@@Z 10005690 f i CancelPayUnit.obj
 0001:000046e0       ?append@?$basic_string@DU?$char_traits@D@std@@V?$allocator@D@2@@std@@QAEAAV12@ABV12@II@Z 100056e0 f i CancelPayUnit.obj
 0001:000047e0       ?_AtlVerifyStackAvailable@_ATL_SAFE_ALLOCA_IMPL@ATL@@YA_NK@Z 100057e0 f i ComponentMessage.obj
 0001:000048a0       ?AtlA2WHelper@@YGPA_WPA_WPBDHI@Z 100058a0 f i ComponentMessage.obj
 0001:000048e0       ??0CComponentMessage@trawe@@QAE@PAVCMessageTerminal@1@@Z 100058e0 f   ComponentMessage.obj
 0001:00004980       ??_GCComponentMessage@trawe@@UAEPAXI@Z 10005980 f i ComponentMessage.obj
 0001:00004980       ??_ECComponentMessage@trawe@@UAEPAXI@Z 10005980 f i  CIL library: CIL module
 0001:000049c0       ?RunBody@CComponentMessage@trawe@@UAEXXZ 100059c0 f   ComponentMessage.obj
 0001:00004a60       ?NewMessage@CComponentMessage@trawe@@QAEXHPADHH@Z 10005a60 f   ComponentMessage.obj
 0001:00004b40       ?Allocate@?$CAtlSafeAllocBufferManager@VCCRTAllocator@ATL@@@_ATL_SAFE_ALLOCA_IMPL@ATL@@QAEPAXK@Z 10005b40 f i ComponentMessage.obj
 0001:00004b80       ??1?$CAtlSafeAllocBufferManager@VCCRTAllocator@ATL@@@_ATL_SAFE_ALLOCA_IMPL@ATL@@QAE@XZ 10005b80 f i ComponentMessage.obj
 0001:00004ba0       ??1?$CTempBuffer@D$0IA@VCCRTAllocator@ATL@@@ATL@@QAE@XZ 10005ba0 f i ComponentMessage.obj
 0001:00004bb0       ?Allocate@?$CTempBuffer@D$0IA@VCCRTAllocator@ATL@@@ATL@@QAEPADI@Z 10005bb0 f i ComponentMessage.obj
 0001:00004bf0       ?push_back@?$list@PAUMessageInfo@trawe@@V?$allocator@PAUMessageInfo@trawe@@@std@@@std@@QAEXABQAUMessageInfo@trawe@@@Z 10005bf0 f i ComponentMessage.obj
 0001:00004c20       ?FreeHeap@?$CTempBuffer@D$0IA@VCCRTAllocator@ATL@@@ATL@@AAEXXZ 10005c20 f i ComponentMessage.obj
 0001:00004c30       ?_Buynode@?$list@PAUMessageInfo@trawe@@V?$allocator@PAUMessageInfo@trawe@@@std@@@std@@IAEPAU_Node@?$_List_nod@PAUMessageInfo@trawe@@V?$allocator@PAUMessageInfo@trawe@@@std@@@2@XZ 10005c30 f i ComponentMessage.obj
 0001:00004c30       ?_Buynode@?$list@PAVInvoiceHttpSync@@V?$allocator@PAVInvoiceHttpSync@@@std@@@std@@IAEPAU_Node@?$_List_nod@PAVInvoiceHttpSync@@V?$allocator@PAVInvoiceHttpSync@@@std@@@2@XZ 10005c30 f i InvoiceUnit.obj
 0001:00004c30       ?_Buynode@?$list@PAVPayHttpSync@@V?$allocator@PAVPayHttpSync@@@std@@@std@@IAEPAU_Node@?$_List_nod@PAVPayHttpSync@@V?$allocator@PAVPayHttpSync@@@std@@@2@XZ 10005c30 f i PayUnit.obj
 0001:00004c50       ?AllocateHeap@?$CTempBuffer@D$0IA@VCCRTAllocator@ATL@@@ATL@@AAEXI@Z 10005c50 f i ComponentMessage.obj
 0001:00004c80       ?_Buynode@?$list@PAVInvoiceHttpSync@@V?$allocator@PAVInvoiceHttpSync@@@std@@@std@@IAEPAU_Node@?$_List_nod@PAVInvoiceHttpSync@@V?$allocator@PAVInvoiceHttpSync@@@std@@@2@PAU342@0ABQAVInvoiceHttpSync@@@Z 10005c80 f i InvoiceUnit.obj
 0001:00004c80       ?_Buynode@?$list@PAVPayHttpSync@@V?$allocator@PAVPayHttpSync@@@std@@@std@@IAEPAU_Node@?$_List_nod@PAVPayHttpSync@@V?$allocator@PAVPayHttpSync@@@std@@@2@PAU342@0ABQAVPayHttpSync@@@Z 10005c80 f i PayUnit.obj
 0001:00004c80       ?_Buynode@?$list@PAUMessageInfo@trawe@@V?$allocator@PAUMessageInfo@trawe@@@std@@@std@@IAEPAU_Node@?$_List_nod@PAUMessageInfo@trawe@@V?$allocator@PAUMessageInfo@trawe@@@std@@@2@PAU342@0ABQAUMessageInfo@trawe@@@Z 10005c80 f i ComponentMessage.obj
 0001:00004cc0       ?_Incsize@?$list@PAUMessageInfo@trawe@@V?$allocator@PAUMessageInfo@trawe@@@std@@@std@@IAEXI@Z 10005cc0 f i ComponentMessage.obj
 0001:00004cc0       ?_Incsize@?$list@PAVPayHttpSync@@V?$allocator@PAVPayHttpSync@@@std@@@std@@IAEXI@Z 10005cc0 f i PayUnit.obj
 0001:00004cc0       ?_Incsize@?$list@PAVInvoiceHttpSync@@V?$allocator@PAVInvoiceHttpSync@@@std@@@std@@IAEXI@Z 10005cc0 f i InvoiceUnit.obj
 0001:00004d60       ??$AtlAdd@K@ATL@@YAJPAKKK@Z 10005d60 f i ComponentMessage.obj
 0001:00004d90       ??$AtlMultiplyThrow@I@ATL@@YAIII@Z 10005d90 f i ComponentMessage.obj
 0001:00004db0       ??$_Allocate@U_Node@?$_List_nod@PAVPayHttpSync@@V?$allocator@PAVPayHttpSync@@@std@@@std@@@std@@YAPAU_Node@?$_List_nod@PAVPayHttpSync@@V?$allocator@PAVPayHttpSync@@@std@@@0@IPAU120@@Z 10005db0 f i PayUnit.obj
 0001:00004db0       ??$_Allocate@U_Node@?$_List_nod@PAUMessageInfo@trawe@@V?$allocator@PAUMessageInfo@trawe@@@std@@@std@@@std@@YAPAU_Node@?$_List_nod@PAUMessageInfo@trawe@@V?$allocator@PAUMessageInfo@trawe@@@std@@@0@IPAU120@@Z 10005db0 f i ComponentMessage.obj
 0001:00004db0       ??$_Allocate@U_Node@?$_List_nod@PAVInvoiceHttpSync@@V?$allocator@PAVInvoiceHttpSync@@@std@@@std@@@std@@YAPAU_Node@?$_List_nod@PAVInvoiceHttpSync@@V?$allocator@PAVInvoiceHttpSync@@@std@@@0@IPAU120@@Z 10005db0 f i InvoiceUnit.obj
 0001:00004e00       ?compare@?$char_traits@D@std@@SAHPBD0I@Z 10005e00 f i DataBaseHelper.obj
 0001:00004e90       ??0runtime_error@std@@QAE@ABV?$basic_string@DU?$char_traits@D@std@@V?$allocator@D@2@@1@@Z 10005e90 f i DataBaseHelper.obj
 0001:00004f00       ??0_Locinfo@std@@QAE@PBD@Z 10005f00 f i DataBaseHelper.obj
 0001:00004fd0       ??0_Locinfo@std@@QAE@HPBD@Z 10005fd0 f i DataBaseHelper.obj
 0001:000050a0       ??1_Locinfo@std@@QAE@XZ    100060a0 f i DataBaseHelper.obj
 0001:00005180       ?_Getname@_Locinfo@std@@QBE?AV?$basic_string@DU?$char_traits@D@std@@V?$allocator@D@2@@2@XZ 10006180 f i DataBaseHelper.obj
 0001:000051b0       ?_Getctype@_Locinfo@std@@QBE?AU_Ctypevec@@XZ 100061b0 f i DataBaseHelper.obj
 0001:000051e0       ??0runtime_error@std@@QAE@ABV01@@Z 100061e0 f i DataBaseHelper.obj
 0001:00005260       ??Bid@locale@std@@QAEIXZ   10006260 f i DataBaseHelper.obj
 0001:000052a0       ?_Incref@facet@locale@std@@QAEXXZ 100062a0 f i DataBaseHelper.obj
 0001:000052d0       ?_Decref@facet@locale@std@@QAEPAV123@XZ 100062d0 f i DataBaseHelper.obj
 0001:00005310       ??1ctype_base@std@@UAE@XZ  10006310 f i DataBaseHelper.obj
 0001:00005310       ??1facet@locale@std@@UAE@XZ 10006310 f i DataBaseHelper.obj
 0001:00005310       ??1codecvt_base@std@@UAE@XZ 10006310 f i JsonHelper.obj
 0001:00005320       ??1_Locimp@locale@std@@MAE@XZ 10006320 f i DataBaseHelper.obj
 0001:000053a0       ??0_Locimp@locale@std@@AAE@ABV012@@Z 100063a0 f i DataBaseHelper.obj
 0001:00005430       ??0locale@std@@QAE@XZ      10006430 f i DataBaseHelper.obj
 0001:00005470       ??0locale@std@@QAE@ABV01@PBDH@Z 10006470 f i DataBaseHelper.obj
 0001:000056a0       ??1locale@std@@QAE@XZ      100066a0 f i DataBaseHelper.obj
 0001:000056f0       ??4locale@std@@QAEAAV01@ABV01@@Z 100066f0 f i DataBaseHelper.obj
 0001:00005770       ?_Getfacet@locale@std@@QBEPBVfacet@12@I@Z 10006770 f i DataBaseHelper.obj
 0001:000057b0       ??_E_Locimp@locale@std@@MAEPAXI@Z 100067b0 f i  CIL library: CIL module
 0001:000057b0       ??_G_Locimp@locale@std@@MAEPAXI@Z 100067b0 f i DataBaseHelper.obj
 0001:000057d0       ??0?$ctype@D@std@@QAE@PBF_NI@Z 100067d0 f i DataBaseHelper.obj
 0001:000058d0       ?_Getcat@?$ctype@D@std@@SAIPAPBVfacet@locale@2@@Z 100068d0 f i DataBaseHelper.obj
 0001:00005950       ?_Init@?$ctype@D@std@@IAEXABV_Locinfo@2@@Z 10006950 f i DataBaseHelper.obj
 0001:00005990       ?do_tolower@?$ctype@D@std@@MBEDD@Z 10006990 f i DataBaseHelper.obj
 0001:000059b0       ?do_tolower@?$ctype@D@std@@MBEPBDPADPBD@Z 100069b0 f i DataBaseHelper.obj
 0001:000059e0       ?do_toupper@?$ctype@D@std@@MBEDD@Z 100069e0 f i DataBaseHelper.obj
 0001:00005a00       ?do_toupper@?$ctype@D@std@@MBEPBDPADPBD@Z 10006a00 f i DataBaseHelper.obj
 0001:00005a30       ?do_widen@?$ctype@D@std@@MBEDD@Z 10006a30 f i DataBaseHelper.obj
 0001:00005a40       ?do_widen@?$ctype@D@std@@MBEPBDPBD0PAD@Z 10006a40 f i DataBaseHelper.obj
 0001:00005a70       ?_Do_widen_s@?$ctype@D@std@@MBEPBDPBD0PADI@Z 10006a70 f i DataBaseHelper.obj
 0001:00005ab0       ?do_narrow@?$ctype@D@std@@MBEDDD@Z 10006ab0 f i DataBaseHelper.obj
 0001:00005ac0       ?do_narrow@?$ctype@D@std@@MBEPBDPBD0DPAD@Z 10006ac0 f i DataBaseHelper.obj
 0001:00005af0       ?_Do_narrow_s@?$ctype@D@std@@MBEPBDPBD0DPADI@Z 10006af0 f i DataBaseHelper.obj
 0001:00005b30       ??_E?$ctype@D@std@@MAEPAXI@Z 10006b30 f i  CIL library: CIL module
 0001:00005b30       ??_G?$ctype@D@std@@MAEPAXI@Z 10006b30 f i DataBaseHelper.obj
 0001:00005b80       ??1runtime_error@std@@UAE@XZ 10006b80 f i DataBaseHelper.obj
 0001:00005b80       ??1failure@ios_base@std@@UAE@XZ 10006b80 f i DataBaseHelper.obj
 0001:00005bc0       ?clear@ios_base@std@@QAEXH_N@Z 10006bc0 f i DataBaseHelper.obj
 0001:00005cf0       ?getloc@ios_base@std@@QBE?AVlocale@2@XZ 10006cf0 f i DataBaseHelper.obj
 0001:00005d30       ?imbue@ios_base@std@@QAE?AVlocale@2@ABV32@@Z 10006d30 f i DataBaseHelper.obj
 0001:00005df0       ?_Init@ios_base@std@@IAEXXZ 10006df0 f i DataBaseHelper.obj
 0001:00005e80       ?_Callfns@ios_base@std@@AAEXW4event@12@@Z 10006e80 f i DataBaseHelper.obj
 0001:00005eb0       ??_Gruntime_error@std@@UAEPAXI@Z 10006eb0 f i DataBaseHelper.obj
 0001:00005eb0       ??_Gfailure@ios_base@std@@UAEPAXI@Z 10006eb0 f i DataBaseHelper.obj
 0001:00005eb0       ??_Efailure@ios_base@std@@UAEPAXI@Z 10006eb0 f i  CIL library: CIL module
 0001:00005eb0       ??_Eruntime_error@std@@UAEPAXI@Z 10006eb0 f i  CIL library: CIL module
 0001:00005f00       ??0failure@ios_base@std@@QAE@ABV012@@Z 10006f00 f i DataBaseHelper.obj
 0001:00005f20       ??_Gios_base@std@@UAEPAXI@Z 10006f20 f i DataBaseHelper.obj
 0001:00005f20       ??_E?$basic_ios@DU?$char_traits@D@std@@@std@@UAEPAXI@Z 10006f20 f i  CIL library: CIL module
 0001:00005f20       ??_Eios_base@std@@UAEPAXI@Z 10006f20 f i  CIL library: CIL module
 0001:00005f20       ??_G?$basic_ios@DU?$char_traits@D@std@@@std@@UAEPAXI@Z 10006f20 f i DataBaseHelper.obj
 0001:00005f50       ??0CFunctionCallTrace@@QAE@ABV?$basic_string@DU?$char_traits@D@std@@V?$allocator@D@2@@std@@0@Z 10006f50 f i DataBaseHelper.obj
 0001:000060a0       ??1CFunctionCallTrace@@QAE@XZ 100070a0 f i DataBaseHelper.obj
 0001:000061e0       ?MultiByteToUTF8@@YAPADPBD@Z 100071e0 f   DataBaseHelper.obj
 0001:00006360       ?DataBaseOpen@trawe@@YAPAUsqlite3@@ABV?$basic_string@DU?$char_traits@D@std@@V?$allocator@D@2@@std@@@Z 10007360 f   DataBaseHelper.obj
 0001:00006440       ?sqlite3_callback_func@trawe@@YAHPAXHPAPAD1@Z 10007440 f   DataBaseHelper.obj
 0001:00006470       ?DataBaseIsTableExist@trawe@@YA_NPAUsqlite3@@ABV?$basic_string@DU?$char_traits@D@std@@V?$allocator@D@2@@std@@@Z 10007470 f   DataBaseHelper.obj
 0001:00006590       ?DataBaseCreateTable@trawe@@YAHPAUsqlite3@@ABV?$basic_string@DU?$char_traits@D@std@@V?$allocator@D@2@@std@@1@Z 10007590 f   DataBaseHelper.obj
 0001:000066c0       ?DataBaseClose@trawe@@YAHPAUsqlite3@@@Z 100076c0 f   DataBaseHelper.obj
 0001:00006770       ?DataBaseGetLastError@trawe@@YA?AV?$basic_string@DU?$char_traits@D@std@@V?$allocator@D@2@@std@@PAUsqlite3@@@Z 10007770 f   DataBaseHelper.obj
 0001:00006840       ?DataBaseAddDebitQuest@trawe@@YAHPAUsqlite3@@ABUETCDebitRecord@@@Z 10007840 f   DataBaseHelper.obj
 0001:00006c30       ??_D?$basic_stringstream@DU?$char_traits@D@std@@V?$allocator@D@2@@std@@QAEXXZ 10007c30 f i DataBaseHelper.obj
 0001:00006c50       ?DataBaseQueryDebitQuest@trawe@@YAHPAUsqlite3@@AAUETCDebitRecord@@@Z 10007c50 f   DataBaseHelper.obj
 0001:00006f50       ?DataBaseDeleteDebitQuest@trawe@@YAHPAUsqlite3@@ABUETCDebitRecord@@@Z 10007f50 f   DataBaseHelper.obj
 0001:00007180       ?DataBaseAddRecord@trawe@@YAHPAUsqlite3@@ABUETCDebitRecord@@@Z 10008180 f   DataBaseHelper.obj
 0001:00007830       ?DataBaseQueryRecord@trawe@@YAHPAUsqlite3@@AAUETCDebitRecord@@@Z 10008830 f   DataBaseHelper.obj
 0001:00007e40       ?DataBaseAdd@trawe@@YAHPAUsqlite3@@ABUDebitCancleParameter@@@Z 10008e40 f   DataBaseHelper.obj
 0001:00008370       ?DataBaseAdd@trawe@@YAHPAUsqlite3@@ABUInvoiceCancelParameter@@@Z 10009370 f   DataBaseHelper.obj
 0001:000086b0       ?DataBaseAdd@trawe@@YAHPAUsqlite3@@ABUInvoiceParameter@@@Z 100096b0 f   DataBaseHelper.obj
 0001:00008f80       ?DataBaseQuery@trawe@@YAHPAUsqlite3@@AAUDebitCancleParameter@@@Z 10009f80 f   DataBaseHelper.obj
 0001:000092b0       ?DataBaseQuery@trawe@@YAHPAUsqlite3@@AAUInvoiceCancelParameter@@@Z 1000a2b0 f   DataBaseHelper.obj
 0001:000095a0       ?DataBaseQuery@trawe@@YAHPAUsqlite3@@AAUInvoiceParameter@@@Z 1000a5a0 f   DataBaseHelper.obj
 0001:00009cb0       ?DataBaseDelete@trawe@@YAHPAUsqlite3@@ABUDebitCancleParameter@@@Z 1000acb0 f   DataBaseHelper.obj
 0001:00009ee0       ?DataBaseDelete@trawe@@YAHPAUsqlite3@@ABUInvoiceCancelParameter@@@Z 1000aee0 f   DataBaseHelper.obj
 0001:0000a110       ?DataBaseDelete@trawe@@YAHPAUsqlite3@@ABUInvoiceParameter@@@Z 1000b110 f   DataBaseHelper.obj
 0001:0000a330       ?DataBaseGetDebitRecordTableDefine@trawe@@YA?AV?$basic_string@DU?$char_traits@D@std@@V?$allocator@D@2@@std@@XZ 1000b330 f   DataBaseHelper.obj
 0001:0000a480       ?DataBaseGetDebitQuestTableDefine@trawe@@YA?AV?$basic_string@DU?$char_traits@D@std@@V?$allocator@D@2@@std@@XZ 1000b480 f   DataBaseHelper.obj
 0001:0000a4b0       ?DataBaseGetDebitRecordTableName@trawe@@YA?AV?$basic_string@DU?$char_traits@D@std@@V?$allocator@D@2@@std@@XZ 1000b4b0 f   DataBaseHelper.obj
 0001:0000a4e0       ?DataBaseGetDebitRequestTableName@trawe@@YA?AV?$basic_string@DU?$char_traits@D@std@@V?$allocator@D@2@@std@@XZ 1000b4e0 f   DataBaseHelper.obj
 0001:0000a510       ?DataBaseGetDebitCancleTableName@trawe@@YA?AV?$basic_string@DU?$char_traits@D@std@@V?$allocator@D@2@@std@@XZ 1000b510 f   DataBaseHelper.obj
 0001:0000a540       ?DataBaseGetInvoiceCancleTableName@trawe@@YA?AV?$basic_string@DU?$char_traits@D@std@@V?$allocator@D@2@@std@@XZ 1000b540 f   DataBaseHelper.obj
 0001:0000a570       ?DataBaseGetInvoiceTableName@trawe@@YA?AV?$basic_string@DU?$char_traits@D@std@@V?$allocator@D@2@@std@@XZ 1000b570 f   DataBaseHelper.obj
 0001:0000a5a0       ?DataBaseGetDebitCancleTableDefine@trawe@@YA?AV?$basic_string@DU?$char_traits@D@std@@V?$allocator@D@2@@std@@XZ 1000b5a0 f   DataBaseHelper.obj
 0001:0000a660       ?DataBaseGetInvoiceCancleTableDefine@trawe@@YA?AV?$basic_string@DU?$char_traits@D@std@@V?$allocator@D@2@@std@@XZ 1000b660 f   DataBaseHelper.obj
 0001:0000a720       ?DataBaseGetInvoiceTableDefine@trawe@@YA?AV?$basic_string@DU?$char_traits@D@std@@V?$allocator@D@2@@std@@XZ 1000b720 f   DataBaseHelper.obj
 0001:0000a9b0       ?DataBaseRecordReadInt@trawe@@YAHPAUsqlite3_stmt@@HAAH@Z 1000b9b0 f   DataBaseHelper.obj
 0001:0000a9e0       ?DataBaseRecordReadVarchar@trawe@@YAHPAUsqlite3_stmt@@HPADH@Z 1000b9e0 f   DataBaseHelper.obj
 0001:0000aa20       ?DataBaseRecordReadTimet@trawe@@YAHPAUsqlite3_stmt@@HAA_J@Z 1000ba20 f   DataBaseHelper.obj
 0001:0000ab00       ??Y?$basic_string@DU?$char_traits@D@std@@V?$allocator@D@2@@std@@QAEAAV01@PBD@Z 1000bb00 f i DataBaseHelper.obj
 0001:0000ab20       ?compare@?$basic_string@DU?$char_traits@D@std@@V?$allocator@D@2@@std@@QBEHPBD@Z 1000bb20 f i DataBaseHelper.obj
 0001:0000ab50       ??1?$basic_ostream@DU?$char_traits@D@std@@@std@@UAE@XZ 1000bb50 f i DataBaseHelper.obj
 0001:0000ab60       ??6?$basic_ostream@DU?$char_traits@D@std@@@std@@QAEAAV01@H@Z 1000bb60 f i DataBaseHelper.obj
 0001:0000acb0       ??6?$basic_ostream@DU?$char_traits@D@std@@@std@@QAEAAV01@_J@Z 1000bcb0 f i DataBaseHelper.obj
 0001:0000ae00       ?flush@?$basic_ostream@DU?$char_traits@D@std@@@std@@QAEAAV12@XZ 1000be00 f i DataBaseHelper.obj
 0001:0000ae50       ??1?$basic_ios@DU?$char_traits@D@std@@@std@@UAE@XZ 1000be50 f i DataBaseHelper.obj
 0001:0000ae60       ?imbue@?$basic_ios@DU?$char_traits@D@std@@@std@@QAE?AVlocale@2@ABV32@@Z 1000be60 f i DataBaseHelper.obj
 0001:0000aef0       ??1?$basic_istream@DU?$char_traits@D@std@@@std@@UAE@XZ 1000bef0 f i DataBaseHelper.obj
 0001:0000af00       ??1?$basic_streambuf@DU?$char_traits@D@std@@@std@@UAE@XZ 1000bf00 f i DataBaseHelper.obj
 0001:0000af30       ?overflow@?$basic_streambuf@DU?$char_traits@D@std@@@std@@MAEHH@Z 1000bf30 f i DataBaseHelper.obj
 0001:0000af30       ?pbackfail@?$basic_streambuf@DU?$char_traits@D@std@@@std@@MAEHH@Z 1000bf30 f i DataBaseHelper.obj
 0001:0000af40       ?sync@?$basic_streambuf@DU?$char_traits@D@std@@@std@@MAEHXZ 1000bf40 f i DataBaseHelper.obj
 0001:0000af40       ?showmanyc@?$basic_streambuf@DU?$char_traits@D@std@@@std@@MAEHXZ 1000bf40 f i DataBaseHelper.obj
 0001:0000af50       ?underflow@?$basic_streambuf@DU?$char_traits@D@std@@@std@@MAEHXZ 1000bf50 f i DataBaseHelper.obj
 0001:0000af60       ?uflow@?$basic_streambuf@DU?$char_traits@D@std@@@std@@MAEHXZ 1000bf60 f i DataBaseHelper.obj
 0001:0000af90       ?xsgetn@?$basic_streambuf@DU?$char_traits@D@std@@@std@@MAEHPADH@Z 1000bf90 f i DataBaseHelper.obj
 0001:0000afb0       ?_Xsgetn_s@?$basic_streambuf@DU?$char_traits@D@std@@@std@@MAEHPADIH@Z 1000bfb0 f i DataBaseHelper.obj
 0001:0000b050       ?xsputn@?$basic_streambuf@DU?$char_traits@D@std@@@std@@MAEHPBDH@Z 1000c050 f i DataBaseHelper.obj
 0001:0000b0f0       ?seekoff@?$basic_streambuf@DU?$char_traits@D@std@@@std@@MAE?AV?$fpos@H@2@JHH@Z 1000c0f0 f i DataBaseHelper.obj
 0001:0000b110       ?seekpos@?$basic_streambuf@DU?$char_traits@D@std@@@std@@MAE?AV?$fpos@H@2@V32@H@Z 1000c110 f i DataBaseHelper.obj
 0001:0000b130       ?setbuf@?$basic_streambuf@DU?$char_traits@D@std@@@std@@MAEPAV12@PADH@Z 1000c130 f i DataBaseHelper.obj
 0001:0000b140       ??0?$basic_stringstream@DU?$char_traits@D@std@@V?$allocator@D@2@@std@@QAE@H@Z 1000c140 f i DataBaseHelper.obj
 0001:0000b1d0       ??1?$basic_stringstream@DU?$char_traits@D@std@@V?$allocator@D@2@@std@@UAE@XZ 1000c1d0 f i DataBaseHelper.obj
 0001:0000b290       ?str@?$basic_stringstream@DU?$char_traits@D@std@@V?$allocator@D@2@@std@@QBE?AV?$basic_string@DU?$char_traits@D@std@@V?$allocator@D@2@@2@XZ 1000c290 f i DataBaseHelper.obj
 0001:0000b2b0       ??1?$basic_iostream@DU?$char_traits@D@std@@@std@@UAE@XZ 1000c2b0 f i DataBaseHelper.obj
 0001:0000b2f0       ?overflow@?$basic_stringbuf@DU?$char_traits@D@std@@V?$allocator@D@2@@std@@MAEHH@Z 1000c2f0 f i DataBaseHelper.obj
 0001:0000b4a0       ?pbackfail@?$basic_stringbuf@DU?$char_traits@D@std@@V?$allocator@D@2@@std@@MAEHH@Z 1000c4a0 f i DataBaseHelper.obj
 0001:0000b4f0       ?underflow@?$basic_stringbuf@DU?$char_traits@D@std@@V?$allocator@D@2@@std@@MAEHXZ 1000c4f0 f i DataBaseHelper.obj
 0001:0000b560       ?seekoff@?$basic_stringbuf@DU?$char_traits@D@std@@V?$allocator@D@2@@std@@MAE?AV?$fpos@H@2@JHH@Z 1000c560 f i DataBaseHelper.obj
 0001:0000b6c0       ?seekpos@?$basic_stringbuf@DU?$char_traits@D@std@@V?$allocator@D@2@@std@@MAE?AV?$fpos@H@2@V32@H@Z 1000c6c0 f i DataBaseHelper.obj
 0001:0000b790       ??_E?$basic_ostream@DU?$char_traits@D@std@@@std@@UAEPAXI@Z 1000c790 f i  CIL library: CIL module
 0001:0000b790       ??_G?$basic_ostream@DU?$char_traits@D@std@@@std@@UAEPAXI@Z 1000c790 f i DataBaseHelper.obj
 0001:0000b7d0       ??_G?$basic_istream@DU?$char_traits@D@std@@@std@@UAEPAXI@Z 1000c7d0 f i DataBaseHelper.obj
 0001:0000b7d0       ??_E?$basic_istream@DU?$char_traits@D@std@@@std@@UAEPAXI@Z 1000c7d0 f i  CIL library: CIL module
 0001:0000b810       ??_G?$basic_streambuf@DU?$char_traits@D@std@@@std@@UAEPAXI@Z 1000c810 f i DataBaseHelper.obj
 0001:0000b810       ??_E?$basic_streambuf@DU?$char_traits@D@std@@@std@@UAEPAXI@Z 1000c810 f i  CIL library: CIL module
 0001:0000b850       ??_G?$basic_stringstream@DU?$char_traits@D@std@@V?$allocator@D@2@@std@@UAEPAXI@Z 1000c850 f i DataBaseHelper.obj
 0001:0000b850       ??_E?$basic_stringstream@DU?$char_traits@D@std@@V?$allocator@D@2@@std@@UAEPAXI@Z 1000c850 f i  CIL library: CIL module
 0001:0000b890       ??_E?$basic_iostream@DU?$char_traits@D@std@@@std@@UAEPAXI@Z 1000c890 f i  CIL library: CIL module
 0001:0000b890       ??_G?$basic_iostream@DU?$char_traits@D@std@@@std@@UAEPAXI@Z 1000c890 f i DataBaseHelper.obj
 0001:0000b900       ??_G?$basic_stringbuf@DU?$char_traits@D@std@@V?$allocator@D@2@@std@@UAEPAXI@Z 1000c900 f i DataBaseHelper.obj
 0001:0000b900       ??_E?$basic_stringbuf@DU?$char_traits@D@std@@V?$allocator@D@2@@std@@UAEPAXI@Z 1000c900 f i  CIL library: CIL module
 0001:0000b950       ?compare@?$basic_string@DU?$char_traits@D@std@@V?$allocator@D@2@@std@@QBEHIIPBDI@Z 1000c950 f i DataBaseHelper.obj
 0001:0000b9c0       ?pubimbue@?$basic_streambuf@DU?$char_traits@D@std@@@std@@QAE?AVlocale@2@ABV32@@Z 1000c9c0 f i DataBaseHelper.obj
 0001:0000ba60       ?_Gnavail@?$basic_streambuf@DU?$char_traits@D@std@@@std@@IBEHXZ 1000ca60 f i DataBaseHelper.obj
 0001:0000ba80       ?_Pnavail@?$basic_streambuf@DU?$char_traits@D@std@@@std@@IBEHXZ 1000ca80 f i DataBaseHelper.obj
 0001:0000baa0       ??0?$basic_iostream@DU?$char_traits@D@std@@@std@@QAE@PAV?$basic_streambuf@DU?$char_traits@D@std@@@1@@Z 1000caa0 f i DataBaseHelper.obj
 0001:0000bb10       ??0?$basic_stringbuf@DU?$char_traits@D@std@@V?$allocator@D@2@@std@@QAE@H@Z 1000cb10 f i DataBaseHelper.obj
 0001:0000bb90       ?str@?$basic_stringbuf@DU?$char_traits@D@std@@V?$allocator@D@2@@std@@QBE?AV?$basic_string@DU?$char_traits@D@std@@V?$allocator@D@2@@2@XZ 1000cb90 f i DataBaseHelper.obj
 0001:0000bd10       ?_Tidy@?$basic_stringbuf@DU?$char_traits@D@std@@V?$allocator@D@2@@std@@IAEXXZ 1000cd10 f i DataBaseHelper.obj
 0001:0000bd70       ??0sentry@?$basic_ostream@DU?$char_traits@D@std@@@std@@QAE@AAV12@@Z 1000cd70 f i DataBaseHelper.obj
 0001:0000be00       ??1sentry@?$basic_ostream@DU?$char_traits@D@std@@@std@@QAE@XZ 1000ce00 f i DataBaseHelper.obj
 0001:0000be70       ?do_put@?$num_put@DV?$ostreambuf_iterator@DU?$char_traits@D@std@@@std@@@std@@MBE?AV?$ostreambuf_iterator@DU?$char_traits@D@std@@@2@V32@AAVios_base@2@D_N@Z 1000ce70 f i DataBaseHelper.obj
 0001:0000c0c0       ?do_put@?$num_put@DV?$ostreambuf_iterator@DU?$char_traits@D@std@@@std@@@std@@MBE?AV?$ostreambuf_iterator@DU?$char_traits@D@std@@@2@V32@AAVios_base@2@DJ@Z 1000d0c0 f i DataBaseHelper.obj
 0001:0000c160       ?do_put@?$num_put@DV?$ostreambuf_iterator@DU?$char_traits@D@std@@@std@@@std@@MBE?AV?$ostreambuf_iterator@DU?$char_traits@D@std@@@2@V32@AAVios_base@2@DK@Z 1000d160 f i DataBaseHelper.obj
 0001:0000c200       ?do_put@?$num_put@DV?$ostreambuf_iterator@DU?$char_traits@D@std@@@std@@@std@@MBE?AV?$ostreambuf_iterator@DU?$char_traits@D@std@@@2@V32@AAVios_base@2@D_J@Z 1000d200 f i DataBaseHelper.obj
 0001:0000c2a0       ?do_put@?$num_put@DV?$ostreambuf_iterator@DU?$char_traits@D@std@@@std@@@std@@MBE?AV?$ostreambuf_iterator@DU?$char_traits@D@std@@@2@V32@AAVios_base@2@D_K@Z 1000d2a0 f i DataBaseHelper.obj
 0001:0000c340       ?do_put@?$num_put@DV?$ostreambuf_iterator@DU?$char_traits@D@std@@@std@@@std@@MBE?AV?$ostreambuf_iterator@DU?$char_traits@D@std@@@2@V32@AAVios_base@2@DN@Z 1000d340 f i DataBaseHelper.obj
 0001:0000c510       ?do_put@?$num_put@DV?$ostreambuf_iterator@DU?$char_traits@D@std@@@std@@@std@@MBE?AV?$ostreambuf_iterator@DU?$char_traits@D@std@@@2@V32@AAVios_base@2@DO@Z 1000d510 f i DataBaseHelper.obj
 0001:0000c6f0       ?do_put@?$num_put@DV?$ostreambuf_iterator@DU?$char_traits@D@std@@@std@@@std@@MBE?AV?$ostreambuf_iterator@DU?$char_traits@D@std@@@2@V32@AAVios_base@2@DPBX@Z 1000d6f0 f i DataBaseHelper.obj
 0001:0000c770       ??0?$basic_string@DU?$char_traits@D@std@@V?$allocator@D@2@@std@@QAE@PBDI@Z 1000d770 f i DataBaseHelper.obj
 0001:0000c7a0       ?append@?$basic_string@DU?$char_traits@D@std@@V?$allocator@D@2@@std@@QAEAAV12@PBDI@Z 1000d7a0 f i DataBaseHelper.obj
 0001:0000c890       ?_Osfx@?$basic_ostream@DU?$char_traits@D@std@@@std@@QAEXXZ 1000d890 f i DataBaseHelper.obj
 0001:0000c8f0       ??0?$basic_istream@DU?$char_traits@D@std@@@std@@QAE@PAV?$basic_streambuf@DU?$char_traits@D@std@@@1@_N@Z 1000d8f0 f i DataBaseHelper.obj
 0001:0000c980       ??0?$basic_streambuf@DU?$char_traits@D@std@@@std@@IAE@XZ 1000d980 f i DataBaseHelper.obj
 0001:0000ca30       ??1_Sentry_base@?$basic_ostream@DU?$char_traits@D@std@@@std@@QAE@XZ 1000da30 f i DataBaseHelper.obj
 0001:0000ca30       ??1_Sentry_base@?$basic_istream@DU?$char_traits@D@std@@@std@@QAE@XZ 1000da30 f i LogUploader.obj
 0001:0000ca30       ??1sentry@?$basic_istream@DU?$char_traits@D@std@@@std@@QAE@XZ 1000da30 f i LogUploader.obj
 0001:0000ca50       ?_Fput@?$num_put@DV?$ostreambuf_iterator@DU?$char_traits@D@std@@@std@@@std@@ABA?AV?$ostreambuf_iterator@DU?$char_traits@D@std@@@2@V32@AAVios_base@2@DPBDIIII@Z 1000da50 f i DataBaseHelper.obj
 0001:0000d170       ?_Ifmt@?$num_put@DV?$ostreambuf_iterator@DU?$char_traits@D@std@@@std@@@std@@ABAPADPADPBDH@Z 1000e170 f i DataBaseHelper.obj
 0001:0000d210       ?_Iput@?$num_put@DV?$ostreambuf_iterator@DU?$char_traits@D@std@@@std@@@std@@ABA?AV?$ostreambuf_iterator@DU?$char_traits@D@std@@@2@V32@AAVios_base@2@DPADI@Z 1000e210 f i DataBaseHelper.obj
 0001:0000d570       ?_Put@?$num_put@DV?$ostreambuf_iterator@DU?$char_traits@D@std@@@std@@@std@@ABA?AV?$ostreambuf_iterator@DU?$char_traits@D@std@@@2@V32@PBDI@Z 1000e570 f i DataBaseHelper.obj
 0001:0000d570       ?_Putc@?$num_put@DV?$ostreambuf_iterator@DU?$char_traits@D@std@@@std@@@std@@ABA?AV?$ostreambuf_iterator@DU?$char_traits@D@std@@@2@V32@PBDI@Z 1000e570 f i DataBaseHelper.obj
 0001:0000d5f0       ?_Rep@?$num_put@DV?$ostreambuf_iterator@DU?$char_traits@D@std@@@std@@@std@@ABA?AV?$ostreambuf_iterator@DU?$char_traits@D@std@@@2@V32@DI@Z 1000e5f0 f i DataBaseHelper.obj
 0001:0000d670       ?falsename@?$numpunct@D@std@@QBE?AV?$basic_string@DU?$char_traits@D@std@@V?$allocator@D@2@@2@XZ 1000e670 f i DataBaseHelper.obj
 0001:0000d690       ?truename@?$numpunct@D@std@@QBE?AV?$basic_string@DU?$char_traits@D@std@@V?$allocator@D@2@@2@XZ 1000e690 f i DataBaseHelper.obj
 0001:0000d6b0       ?do_decimal_point@?$numpunct@D@std@@MBEDXZ 1000e6b0 f i DataBaseHelper.obj
 0001:0000d6c0       ?do_thousands_sep@?$numpunct@D@std@@MBEDXZ 1000e6c0 f i DataBaseHelper.obj
 0001:0000d6d0       ?do_grouping@?$numpunct@D@std@@MBE?AV?$basic_string@DU?$char_traits@D@std@@V?$allocator@D@2@@2@XZ 1000e6d0 f i DataBaseHelper.obj
 0001:0000d720       ?do_falsename@?$numpunct@D@std@@MBE?AV?$basic_string@DU?$char_traits@D@std@@V?$allocator@D@2@@2@XZ 1000e720 f i DataBaseHelper.obj
 0001:0000d770       ?do_truename@?$numpunct@D@std@@MBE?AV?$basic_string@DU?$char_traits@D@std@@V?$allocator@D@2@@2@XZ 1000e770 f i DataBaseHelper.obj
 0001:0000d7c0       ??_E?$numpunct@D@std@@MAEPAXI@Z 1000e7c0 f i  CIL library: CIL module
 0001:0000d7c0       ??_G?$numpunct@D@std@@MAEPAXI@Z 1000e7c0 f i DataBaseHelper.obj
 0001:0000d810       ?append@?$basic_string@DU?$char_traits@D@std@@V?$allocator@D@2@@std@@QAEAAV12@ID@Z 1000e810 f i DataBaseHelper.obj
 0001:0000d8c0       ?insert@?$basic_string@DU?$char_traits@D@std@@V?$allocator@D@2@@std@@QAEAAV12@IID@Z 1000e8c0 f i DataBaseHelper.obj
 0001:0000d9c0       ??A?$basic_string@DU?$char_traits@D@std@@V?$allocator@D@2@@std@@QAEAADI@Z 1000e9c0 f i DataBaseHelper.obj
 0001:0000d9f0       ?_Init@?$basic_streambuf@DU?$char_traits@D@std@@@std@@IAEXXZ 1000e9f0 f i DataBaseHelper.obj
 0001:0000da50       ?_Putgrouped@?$num_put@DV?$ostreambuf_iterator@DU?$char_traits@D@std@@@std@@@std@@ABA?AV?$ostreambuf_iterator@DU?$char_traits@D@std@@@2@V32@PBDID@Z 1000ea50 f i DataBaseHelper.obj
 0001:0000db20       ??4?$ostreambuf_iterator@DU?$char_traits@D@std@@@std@@QAEAAV01@D@Z 1000eb20 f i DataBaseHelper.obj
 0001:0000db70       ?grouping@?$numpunct@D@std@@QBE?AV?$basic_string@DU?$char_traits@D@std@@V?$allocator@D@2@@2@XZ 1000eb70 f i DataBaseHelper.obj
 0001:0000db90       ?_Tidy@?$numpunct@D@std@@AAEXXZ 1000eb90 f i DataBaseHelper.obj
 0001:0000dbc0       ?_Chassign@?$basic_string@DU?$char_traits@D@std@@V?$allocator@D@2@@std@@IAEXIID@Z 1000ebc0 f i DataBaseHelper.obj
 0001:0000dc20       ?widen@?$basic_ios@DU?$char_traits@D@std@@@std@@QBEDD@Z 1000ec20 f i DataBaseHelper.obj
 0001:0000dce0       ??$use_facet@V?$ctype@D@std@@@std@@YAABV?$ctype@D@0@ABVlocale@0@@Z 1000ece0 f i DataBaseHelper.obj
 0001:0000de10       ??$?HDU?$char_traits@D@std@@V?$allocator@D@1@@std@@YA?AV?$basic_string@DU?$char_traits@D@std@@V?$allocator@D@2@@0@ABV10@PBD@Z 1000ee10 f i DataBaseHelper.obj
 0001:0000dec0       ??$?HDU?$char_traits@D@std@@V?$allocator@D@1@@std@@YA?AV?$basic_string@DU?$char_traits@D@std@@V?$allocator@D@2@@0@ABV10@0@Z 1000eec0 f i DataBaseHelper.obj
 0001:0000df60       ??$?6U?$char_traits@D@std@@@std@@YAAAV?$basic_ostream@DU?$char_traits@D@std@@@0@AAV10@PBD@Z 1000ef60 f i DataBaseHelper.obj
 0001:0000e170       ??$?6DU?$char_traits@D@std@@V?$allocator@D@1@@std@@YAAAV?$basic_ostream@DU?$char_traits@D@std@@@0@AAV10@ABV?$basic_string@DU?$char_traits@D@std@@V?$allocator@D@2@@0@@Z 1000f170 f i DataBaseHelper.obj
 0001:0000e3c0       ??$use_facet@V?$num_put@DV?$ostreambuf_iterator@DU?$char_traits@D@std@@@std@@@std@@@std@@YAABV?$num_put@DV?$ostreambuf_iterator@DU?$char_traits@D@std@@@std@@@0@ABVlocale@0@@Z 1000f3c0 f i DataBaseHelper.obj
 0001:0000e4f0       ??$use_facet@V?$numpunct@D@std@@@std@@YAABV?$numpunct@D@0@ABVlocale@0@@Z 1000f4f0 f i DataBaseHelper.obj
 0001:0000e620       ?_Getcat@?$num_put@DV?$ostreambuf_iterator@DU?$char_traits@D@std@@@std@@@std@@SAIPAPBVfacet@locale@2@@Z 1000f620 f i DataBaseHelper.obj
 0001:0000e690       ?_Getcat@?$numpunct@D@std@@SAIPAPBVfacet@locale@2@@Z 1000f690 f i DataBaseHelper.obj
 0001:0000e700       ??0?$num_put@DV?$ostreambuf_iterator@DU?$char_traits@D@std@@@std@@@std@@QAE@I@Z 1000f700 f i DataBaseHelper.obj
 0001:0000e7b0       ??0?$numpunct@D@std@@QAE@I@Z 1000f7b0 f i DataBaseHelper.obj
 0001:0000e880       ?_Init@?$numpunct@D@std@@IAEXABV_Locinfo@2@@Z 1000f880 f i DataBaseHelper.obj
 0001:0000e960       ??$_Maklocstr@D@std@@YAPADPBDPADABU_Cvtvec@@@Z 1000f960 f i DataBaseHelper.obj
 0001:0000e9b0       ??0CDVDebitCancel@@QAE@XZ  1000f9b0 f   DVDebitCancel.obj
 0001:0000ea40       ??1CDVDebitCancel@@QAE@XZ  1000fa40 f   DVDebitCancel.obj
 0001:0000eaa0       ??0CDVJsonBase@@QAE@XZ     1000faa0 f   DVJsonBase.obj
 0001:0000ebb0       ??1CDVJsonBase@@QAE@XZ     1000fbb0 f   DVJsonBase.obj
 0001:0000ecb0       ??0CDVJsonDebit@@QAE@XZ    1000fcb0 f   DVJsonDebit.obj
 0001:0000f0a0       ??1CDVJsonDebit@@QAE@XZ    100100a0 f   DVJsonDebit.obj
 0001:0000f530       ?Reset@CDVJsonDebit@@QAEXABH@Z 10010530 f   DVJsonDebit.obj
 0001:0000f7a0       ??4CDVJsonDebit@@QAEAAV0@ABV0@@Z 100107a0 f   DVJsonDebit.obj
 0001:0000fb20       ??4?$CStringT@DV?$StrTraitMFC@DV?$ChTraitsCRT@D@ATL@@@@@ATL@@QAEAAV01@ABV01@@Z 10010b20 f i DVJsonDebit.obj
 0001:0000fb40       ??4?$CSimpleStringT@D$0A@@ATL@@QAEAAV01@ABV01@@Z 10010b40 f i DVJsonDebit.obj
 0001:0000fbc0       ??0CDVJsonDebitCancel@@QAE@XZ 10010bc0 f   DVJsonDebitCancel.obj
 0001:0000fc40       ??0CDVJsonDebitCancel@@QAE@PBVCDVJsonDebit@@@Z 10010c40 f   DVJsonDebitCancel.obj
 0001:0000fdb0       ??0CDVJsonDebitCheck@@QAE@XZ 10010db0 f   DVJsonDebitCheck.obj
 0001:0000fe70       ??1CDVJsonDebitCheck@@QAE@XZ 10010e70 f   DVJsonDebitCheck.obj
 0001:0000ff20       ??0CDVJsonDebitCheck@@QAE@PBVCDVJsonDebit@@@Z 10010f20 f   DVJsonDebitCheck.obj
 0001:00010140       ??0CDVJsonDebitCheck@@QAE@PBV0@@Z 10011140 f   DVJsonDebitCheck.obj
 0001:00010350       ??0CDVJsonHeart@@QAE@XZ    10011350 f   DVJsonHeart.obj
 0001:000103e0       ??0CDVJsonNFCSignIn@@QAE@XZ 100113e0 f   DVJsonNFCSignIn.obj
 0001:00010490       ??0CDVJsonParamAccount@@QAE@XZ 10011490 f   DVJsonParamAccount.obj
 0001:00010500       ??1CDVJsonParamAccount@@QAE@XZ 10011500 f   DVJsonParamAccount.obj
 0001:00010530       ??0CDVJsonParamDebitCancel@@QAE@XZ 10011530 f   DVJsonParamDebitCancel.obj
 0001:00010590       ??0CDVJsonParamDebitMoney@@QAE@XZ 10011590 f   DVJsonParamDebitMoney.obj
 0001:00010760       ??0CDVJsonParamDebitResult@@QAE@XZ 10011760 f   DVJsonParamDebitResult.obj
 0001:00010830       ??1CDVJsonParamDebitResult@@QAE@XZ 10011830 f   DVJsonParamDebitResult.obj
 0001:000108c0       ??0CDVJsonParamMMI@@QAE@XZ 100118c0 f   DVJsonParamMMI.obj
 0001:00010960       ??1?$CArray@U_tagMMIItemText@@AAU1@@@UAE@XZ 10011960 f i DVJsonParamMMI.obj
 0001:00010980       ?Serialize@?$CArray@U_tagMMIItemText@@AAU1@@@UAEXAAVCArchive@@@Z 10011980 f i DVJsonParamMMI.obj
 0001:000109d0       ??1?$CArray@U_tagMMIItemVoice@@AAU1@@@UAE@XZ 100119d0 f i DVJsonParamMMI.obj
 0001:000109f0       ?Serialize@?$CArray@U_tagMMIItemGraph@@AAU1@@@UAEXAAVCArchive@@@Z 100119f0 f i DVJsonParamMMI.obj
 0001:000109f0       ?Serialize@?$CArray@U_tagMMIItemVoice@@AAU1@@@UAEXAAVCArchive@@@Z 100119f0 f i DVJsonParamMMI.obj
 0001:00010a40       ??1?$CArray@U_tagMMIItemGraph@@AAU1@@@UAE@XZ 10011a40 f i DVJsonParamMMI.obj
 0001:00010a60       ??_E?$CArray@U_tagMMIItemText@@AAU1@@@UAEPAXI@Z 10011a60 f i  CIL library: CIL module
 0001:00010a60       ??_G?$CArray@U_tagMMIItemText@@AAU1@@@UAEPAXI@Z 10011a60 f i DVJsonParamMMI.obj
 0001:00010a90       ??_E?$CArray@U_tagMMIItemVoice@@AAU1@@@UAEPAXI@Z 10011a90 f i  CIL library: CIL module
 0001:00010a90       ??_G?$CArray@U_tagMMIItemVoice@@AAU1@@@UAEPAXI@Z 10011a90 f i DVJsonParamMMI.obj
 0001:00010ac0       ??_G?$CArray@U_tagMMIItemGraph@@AAU1@@@UAEPAXI@Z 10011ac0 f i DVJsonParamMMI.obj
 0001:00010ac0       ??_E?$CArray@U_tagMMIItemGraph@@AAU1@@@UAEPAXI@Z 10011ac0 f i  CIL library: CIL module
 0001:00010af0       ?SetSize@?$CArray@U_tagMMIItemText@@AAU1@@@QAEXHH@Z 10011af0 f i DVJsonParamMMI.obj
 0001:00010c20       ??$SerializeElements@U_tagMMIItemText@@@@YGXAAVCArchive@@PAU_tagMMIItemText@@H@Z 10011c20 f i DVJsonParamMMI.obj
 0001:00010cc0       ?SetSize@?$CArray@U_tagMMIItemGraph@@AAU1@@@QAEXHH@Z 10011cc0 f i DVJsonParamMMI.obj
 0001:00010cc0       ?SetSize@?$CArray@U_tagMMIItemVoice@@AAU1@@@QAEXHH@Z 10011cc0 f i DVJsonParamMMI.obj
 0001:00010e00       ??$SerializeElements@U_tagMMIItemGraph@@@@YGXAAVCArchive@@PAU_tagMMIItemGraph@@H@Z 10011e00 f i DVJsonParamMMI.obj
 0001:00010e00       ??$SerializeElements@U_tagMMIItemVoice@@@@YGXAAVCArchive@@PAU_tagMMIItemVoice@@H@Z 10011e00 f i DVJsonParamMMI.obj
 0001:00010eb0       ?memcpy_s@Checked@ATL@@YAXPAXIPBXI@Z 10011eb0 f i DVJsonParamMMI.obj
 0001:00010ee0       ??3CObject@@SGXPAX@Z       10011ee0 f i DVJsonParamMMI.obj
 0001:00010ef0       ?imbue@?$basic_streambuf@DU?$char_traits@D@std@@@std@@MAEXABVlocale@2@@Z 10011ef0 f i DataBaseHelper.obj
 0001:00010ef0       ?Serialize@CObject@@UAEXAAVCArchive@@@Z 10011ef0 f i DVJsonParamMMI.obj
 0001:00010f00       ?EnsureRead@CArchive@@QAEXPAXI@Z 10011f00 f i DVJsonParamMMI.obj
 0001:00010f30       ??0CMarkup@@QAE@XZ         10011f30 f i DVXMLAccount.obj
 0001:00011010       ?ResetChildPos@CMarkup@@QAEXXZ 10012010 f i DVXMLAccount.obj
 0001:00011040       ?GetChildData@CMarkup@@QAE?AV?$CStringT@DV?$StrTraitMFC@DV?$ChTraitsCRT@D@ATL@@@@@ATL@@XZ 10012040 f i DVXMLAccount.obj
 0001:00011060       ?AddElem@CMarkup@@QAE_NUMCD_CSTR@@HH@Z 10012060 f i DVXMLAccount.obj
 0001:000110b0       ??0CDVXMLAccountContext@@QAE@XZ 100120b0 f   DVXMLAccount.obj
 0001:00011130       ??1CDVXMLAccountContext@@QAE@XZ 10012130 f   DVXMLAccount.obj
 0001:00011160       ?Init@CDVXMLAccountContext@@UAE?BHABV?$CStringT@DV?$StrTraitMFC@DV?$ChTraitsCRT@D@ATL@@@@@ATL@@@Z 10012160 f   DVXMLAccount.obj
 0001:00011490       ?GetXMLString@CDVXMLAccountContext@@QAE?BV?$CStringT@DV?$StrTraitMFC@DV?$ChTraitsCRT@D@ATL@@@@@ATL@@ABV23@ABH1@Z 10012490 f   DVXMLAccount.obj
 0001:000116b0       ??0CDVXMLBase@@QAE@XZ      100126b0 f   DVXMLBase.obj
 0001:00011750       ??1CDVXMLBase@@QAE@XZ      10012750 f   DVXMLBase.obj
 0001:00011800       ??0CDVXMLDebitCancel@@QAE@XZ 10012800 f   DVXMLDebitCancel.obj
 0001:00011880       ??1CDVXMLDebitCancel@@QAE@XZ 10012880 f   DVXMLDebitCancel.obj
 0001:000118b0       ?Init@CDVXMLDebitCancel@@UAE?BHABV?$CStringT@DV?$StrTraitMFC@DV?$ChTraitsCRT@D@ATL@@@@@ATL@@@Z 100128b0 f   DVXMLDebitCancel.obj
 0001:00011b70       ??0CDVXMLDebitFlow@@QAE@XZ 10012b70 f   DVXMLDebitFlow.obj
 0001:00011bd0       ??1CDVXMLDebitFlow@@QAE@XZ 10012bd0 f   DVXMLDebitFlow.obj
 0001:00011be0       ?Init@CDVXMLDebitFlow@@UAE?BHABV?$CStringT@DV?$StrTraitMFC@DV?$ChTraitsCRT@D@ATL@@@@@ATL@@@Z 10012be0 f   DVXMLDebitFlow.obj
 0001:00012050       ?Format@CTime@ATL@@QBE?AV?$CStringT@DV?$StrTraitMFC@DV?$ChTraitsCRT@D@ATL@@@@@2@PBD@Z 10013050 f i DVXMLDebitFlow.obj
 0001:000120e0       ??0CDVXMLDebitResult@@QAE@XZ 100130e0 f   DVXMLDebitResult.obj
 0001:000121b0       ??1CDVXMLDebitResult@@QAE@XZ 100131b0 f   DVXMLDebitResult.obj
 0001:00012240       ?GetXMLString@CDVXMLDebitResult@@QAE?BV?$CStringT@DV?$StrTraitMFC@DV?$ChTraitsCRT@D@ATL@@@@@ATL@@XZ 10013240 f   DVXMLDebitResult.obj
 0001:00012740       ??0CDVXMLMMI@@QAE@XZ       10013740 f   DVXMLMMI.obj
 0001:00012800       ??1CDVXMLMMI@@QAE@XZ       10013800 f   DVXMLMMI.obj
 0001:00012910       ?Init@CDVXMLMMI@@UAE?BHABV?$CStringT@DV?$StrTraitMFC@DV?$ChTraitsCRT@D@ATL@@@@@ATL@@@Z 10013910 f   DVXMLMMI.obj
 0001:00013090       ?Add@?$CArray@U_tagMMIItemText@@AAU1@@@QAEHAAU_tagMMIItemText@@@Z 10014090 f i DVXMLMMI.obj
 0001:000130d0       ?Add@?$CArray@U_tagMMIMedia@@AAU1@@@QAEHAAU_tagMMIMedia@@@Z 100140d0 f i DVXMLMMI.obj
 0001:00013110       ??1?$CArray@U_tagMMIMedia@@AAU1@@@UAE@XZ 10014110 f i DVXMLMMI.obj
 0001:00013130       ?Serialize@?$CArray@U_tagMMIMedia@@AAU1@@@UAEXAAVCArchive@@@Z 10014130 f i DVXMLMMI.obj
 0001:00013180       ??_E?$CArray@U_tagMMIMedia@@AAU1@@@UAEPAXI@Z 10014180 f i  CIL library: CIL module
 0001:00013180       ??_G?$CArray@U_tagMMIMedia@@AAU1@@@UAEPAXI@Z 10014180 f i DVXMLMMI.obj
 0001:000131b0       ?SetSize@?$CArray@U_tagMMIMedia@@AAU1@@@QAEXHH@Z 100141b0 f i DVXMLMMI.obj
 0001:000132f0       ??$SerializeElements@U_tagMMIMedia@@@@YGXAAVCArchive@@PAU_tagMMIMedia@@H@Z 100142f0 f i DVXMLMMI.obj
 0001:000133a0       ?ReleaseBuffer@?$CSimpleStringT@D$0A@@ATL@@QAEXH@Z 100143a0 f i DVXMLMMI.obj
 0001:000133f0       ??0CDVXMLUnipay@@QAE@XZ    100143f0 f   DVXMLUnipay.obj
 0001:00013470       ??1CDVXMLUnipay@@QAE@XZ    10014470 f   DVXMLUnipay.obj
 0001:000134a0       ?Init@CDVXMLDebitResult@@UAE?BHABV?$CStringT@DV?$StrTraitMFC@DV?$ChTraitsCRT@D@ATL@@@@@ATL@@@Z 100144a0 f   DVXMLDebitResult.obj
 0001:000134a0       ?Init@CDVXMLUnipay@@UAE?BHABV?$CStringT@DV?$StrTraitMFC@DV?$ChTraitsCRT@D@ATL@@@@@ATL@@@Z 100144a0 f   DVXMLUnipay.obj
 0001:000134b0       ?ConstructNFCFrameData@CDVXMLUnipay@@QAE?BV?$CStringT@DV?$StrTraitMFC@DV?$ChTraitsCRT@D@ATL@@@@@ATL@@ABV23@ABH@Z 100144b0 f   DVXMLUnipay.obj
 0001:000136d0       ??0ETCAuthenticateUnit@trawe@@QAE@XZ 100146d0 f   ETCAuthenticateUnit.obj
 0001:00013800       ??_EETCAuthenticateUnit@trawe@@UAEPAXI@Z 10014800 f i  CIL library: CIL module
 0001:00013800       ??_GETCAuthenticateUnit@trawe@@UAEPAXI@Z 10014800 f i ETCAuthenticateUnit.obj
 0001:00013820       ??1ETCAuthenticateUnit@trawe@@UAE@XZ 10014820 f   ETCAuthenticateUnit.obj
 0001:000138a0       ?RunBody@ETCAuthenticateUnit@trawe@@UAEXXZ 100148a0 f   ETCAuthenticateUnit.obj
 0001:00013900       ?ExecuteQuery@ETCAuthenticateUnit@trawe@@AAEXXZ 10014900 f   ETCAuthenticateUnit.obj
 0001:00013d70       ?StartWhiteListQuery@ETCAuthenticateUnit@trawe@@QAEHABUObuWhiteListQueryParameter@@@Z 10014d70 f   ETCAuthenticateUnit.obj
 0001:00013f10       ?IsAgencyWhiteList@ETCAuthenticateUnit@trawe@@QAEHABUObuWhiteListQueryParameter@@@Z 10014f10 f   ETCAuthenticateUnit.obj
 0001:000141c0       ?NewObuWhiteListRecord@ETCAuthenticateUnit@trawe@@QAEHABUObuWhiteListRecord@@@Z 100151c0 f   ETCAuthenticateUnit.obj
 0001:00014340       ??1?$list@UInvoiceCancelParameter@@V?$allocator@UInvoiceCancelParameter@@@std@@@std@@QAE@XZ 10015340 f i InvoiceUnit.obj
 0001:00014340       ??1?$list@UETCDebitAbstract@@V?$allocator@UETCDebitAbstract@@@std@@@std@@QAE@XZ 10015340 f i ETCPayUnit.obj
 0001:00014340       ??1?$list@PAVPayHttpSync@@V?$allocator@PAVPayHttpSync@@@std@@@std@@QAE@XZ 10015340 f i PayUnit.obj
 0001:00014340       ??1?$list@PAVInvoiceHttpSync@@V?$allocator@PAVInvoiceHttpSync@@@std@@@std@@QAE@XZ 10015340 f i InvoiceUnit.obj
 0001:00014340       ??1?$list@UETCDebitRecord@@V?$allocator@UETCDebitRecord@@@std@@@std@@QAE@XZ 10015340 f i ETCPayUnit.obj
 0001:00014340       ??1?$list@UDebitCancleParameter@@V?$allocator@UDebitCancleParameter@@@std@@@std@@QAE@XZ 10015340 f i CancelPayUnit.obj
 0001:00014340       ??1?$list@UObuWhiteListQueryParameter@@V?$allocator@UObuWhiteListQueryParameter@@@std@@@std@@QAE@XZ 10015340 f i ETCAuthenticateUnit.obj
 0001:00014340       ??1?$list@UDebitParameter@@V?$allocator@UDebitParameter@@@std@@@std@@QAE@XZ 10015340 f i PayHttpSync.obj
 0001:00014340       ??1?$list@UInvoiceParameter@@V?$allocator@UInvoiceParameter@@@std@@@std@@QAE@XZ 10015340 f i InvoiceHttpSync.obj
 0001:00014340       ??1?$list@UObuWhiteListRecord@@V?$allocator@UObuWhiteListRecord@@@std@@@std@@QAE@XZ 10015340 f i ETCAuthenticateUnit.obj
 0001:00014340       ??1?$list@UDebitResultParameter@@V?$allocator@UDebitResultParameter@@@std@@@std@@QAE@XZ 10015340 f i PayUnit.obj
 0001:00014350       ?_Buynode@?$list@UObuWhiteListQueryParameter@@V?$allocator@UObuWhiteListQueryParameter@@@std@@@std@@IAEPAU_Node@?$_List_nod@UObuWhiteListQueryParameter@@V?$allocator@UObuWhiteListQueryParameter@@@std@@@2@XZ 10015350 f i ETCAuthenticateUnit.obj
 0001:00014370       ?_Tidy@?$list@UDebitParameter@@V?$allocator@UDebitParameter@@@std@@@std@@IAEXXZ 10015370 f i PayHttpSync.obj
 0001:00014370       ?_Tidy@?$list@UETCDebitAbstract@@V?$allocator@UETCDebitAbstract@@@std@@@std@@IAEXXZ 10015370 f i ETCPayUnit.obj
 0001:00014370       ?_Tidy@?$list@UDebitResultParameter@@V?$allocator@UDebitResultParameter@@@std@@@std@@IAEXXZ 10015370 f i PayUnit.obj
 0001:00014370       ?_Tidy@?$list@PAVPayHttpSync@@V?$allocator@PAVPayHttpSync@@@std@@@std@@IAEXXZ 10015370 f i PayUnit.obj
 0001:00014370       ?_Tidy@?$list@UObuWhiteListRecord@@V?$allocator@UObuWhiteListRecord@@@std@@@std@@IAEXXZ 10015370 f i ETCAuthenticateUnit.obj
 0001:00014370       ?_Tidy@?$list@PAUMessageInfo@trawe@@V?$allocator@PAUMessageInfo@trawe@@@std@@@std@@IAEXXZ 10015370 f i ComponentMessage.obj
 0001:00014370       ?_Tidy@?$list@UETCDebitRecord@@V?$allocator@UETCDebitRecord@@@std@@@std@@IAEXXZ 10015370 f i ETCPayUnit.obj
 0001:00014370       ?_Tidy@?$list@UObuWhiteListQueryParameter@@V?$allocator@UObuWhiteListQueryParameter@@@std@@@std@@IAEXXZ 10015370 f i ETCAuthenticateUnit.obj
 0001:00014370       ?_Tidy@?$list@UInvoiceParameter@@V?$allocator@UInvoiceParameter@@@std@@@std@@IAEXXZ 10015370 f i InvoiceHttpSync.obj
 0001:00014370       ?_Tidy@?$list@UInvoiceCancelParameter@@V?$allocator@UInvoiceCancelParameter@@@std@@@std@@IAEXXZ 10015370 f i InvoiceUnit.obj
 0001:00014370       ?_Tidy@?$list@PAVInvoiceHttpSync@@V?$allocator@PAVInvoiceHttpSync@@@std@@@std@@IAEXXZ 10015370 f i InvoiceUnit.obj
 0001:00014370       ?_Tidy@?$list@UDebitCancleParameter@@V?$allocator@UDebitCancleParameter@@@std@@@std@@IAEXXZ 10015370 f i CancelPayUnit.obj
 0001:000143c0       ?_Buynode@?$list@UObuWhiteListRecord@@V?$allocator@UObuWhiteListRecord@@@std@@@std@@IAEPAU_Node@?$_List_nod@UObuWhiteListRecord@@V?$allocator@UObuWhiteListRecord@@@std@@@2@XZ 100153c0 f i ETCAuthenticateUnit.obj
 0001:000143e0       ?_Buynode@?$list@UObuWhiteListQueryParameter@@V?$allocator@UObuWhiteListQueryParameter@@@std@@@std@@IAEPAU_Node@?$_List_nod@UObuWhiteListQueryParameter@@V?$allocator@UObuWhiteListQueryParameter@@@std@@@2@PAU342@0ABUObuWhiteListQueryParameter@@@Z 100153e0 f i ETCAuthenticateUnit.obj
 0001:00014420       ?_Incsize@?$list@UObuWhiteListQueryParameter@@V?$allocator@UObuWhiteListQueryParameter@@@std@@@std@@IAEXI@Z 10015420 f i ETCAuthenticateUnit.obj
 0001:000144c0       ?_Buynode@?$list@UObuWhiteListRecord@@V?$allocator@UObuWhiteListRecord@@@std@@@std@@IAEPAU_Node@?$_List_nod@UObuWhiteListRecord@@V?$allocator@UObuWhiteListRecord@@@std@@@2@PAU342@0ABUObuWhiteListRecord@@@Z 100154c0 f i ETCAuthenticateUnit.obj
 0001:00014500       ?_Incsize@?$list@UObuWhiteListRecord@@V?$allocator@UObuWhiteListRecord@@@std@@@std@@IAEXI@Z 10015500 f i ETCAuthenticateUnit.obj
 0001:000145a0       ??$_Allocate@U_Node@?$_List_nod@UObuWhiteListQueryParameter@@V?$allocator@UObuWhiteListQueryParameter@@@std@@@std@@@std@@YAPAU_Node@?$_List_nod@UObuWhiteListQueryParameter@@V?$allocator@UObuWhiteListQueryParameter@@@std@@@0@IPAU120@@Z 100155a0 f i ETCAuthenticateUnit.obj
 0001:000145f0       ??$_Allocate@U_Node@?$_List_nod@UObuWhiteListRecord@@V?$allocator@UObuWhiteListRecord@@@std@@@std@@@std@@YAPAU_Node@?$_List_nod@UObuWhiteListRecord@@V?$allocator@UObuWhiteListRecord@@@std@@@0@IPAU120@@Z 100155f0 f i ETCAuthenticateUnit.obj
 0001:00014640       ?memmove_s@Checked@ATL@@YAXPAXIPBXI@Z 10015640 f i ETCPayHelper.obj
 0001:00014670       ?GetHour@CTime@ATL@@QBEHXZ 10015670 f i ETCPayHelper.obj
 0001:000146a0       ?GetMD5@CMD5@@QAE?BV?$CStringT@DV?$StrTraitMFC@DV?$ChTraitsCRT@D@ATL@@@@@ATL@@XZ 100156a0 f i ETCPayHelper.obj
 0001:00014760       ??1FastWriter@Json@@UAE@XZ 10015760 f i ETCPayHelper.obj
 0001:000147a0       ??_EFastWriter@Json@@UAEPAXI@Z 100157a0 f i  CIL library: CIL module
 0001:000147a0       ??_GFastWriter@Json@@UAEPAXI@Z 100157a0 f i ETCPayHelper.obj
 0001:000147f0       ?ParseWhiteListQueryParaFromXML@@YA_NABV?$basic_string@DU?$char_traits@D@std@@V?$allocator@D@2@@std@@AAUObuWhiteListQueryParameter@@@Z 100157f0 f   ETCPayHelper.obj
 0001:000153e0       ?ParseWhiteListQueryParaFromJson@@YA_NABV?$basic_string@DU?$char_traits@D@std@@V?$allocator@D@2@@std@@AAUObuWhiteListQueryParameter@@@Z 100163e0 f   ETCPayHelper.obj
 0001:00016260       ??1Reader@Json@@QAE@XZ     10017260 f i ETCPayHelper.obj
 0001:000162c0       ?ParseDebitStateQueryParaFromXML@@YA_NABV?$basic_string@DU?$char_traits@D@std@@V?$allocator@D@2@@std@@AAUDebitStateQueryParameter@@@Z 100172c0 f   ETCPayHelper.obj
 0001:000169f0       ?ParseDebitStateQueryParaFromJson@@YA_NABV?$basic_string@DU?$char_traits@D@std@@V?$allocator@D@2@@std@@AAUDebitStateQueryParameter@@@Z 100179f0 f   ETCPayHelper.obj
 0001:00017420       ?PackETCDebitResultXML@@YAHABUETCDebitRecord@@AAV?$basic_string@DU?$char_traits@D@std@@V?$allocator@D@2@@std@@@Z 10018420 f   ETCPayHelper.obj
 0001:00017890       ?PackETCDebitResultJson@@YAHABUETCDebitRecord@@AAV?$basic_string@DU?$char_traits@D@std@@V?$allocator@D@2@@std@@@Z 10018890 f   ETCPayHelper.obj
 0001:00017dc0       ?ParseETCDebitParaFromJson@@YA_NABV?$basic_string@DU?$char_traits@D@std@@V?$allocator@D@2@@std@@AAUETCDebitRecord@@@Z 10018dc0 f   ETCPayHelper.obj
 0001:000196a0       ?ParseETCDebitParaFromXML@@YA_NABV?$basic_string@DU?$char_traits@D@std@@V?$allocator@D@2@@std@@AAUETCDebitRecord@@@Z 1001a6a0 f   ETCPayHelper.obj
 0001:0001ad70       ?ParseETCDebitResponseFromServer@@YA_NABV?$basic_string@DU?$char_traits@D@std@@V?$allocator@D@2@@std@@AAUETCDebitRecord@@@Z 1001bd70 f   ETCPayHelper.obj
 0001:0001af90       ?PackETCDebitRequestJson@@YAHABUETCDebitRecord@@AAV?$basic_string@DU?$char_traits@D@std@@V?$allocator@D@2@@std@@@Z 1001bf90 f   ETCPayHelper.obj
 0001:0001bef0       ?PackOBUWhiteListQueryJson@@YAHABUObuWhiteListQueryParameter@@AAV?$basic_string@DU?$char_traits@D@std@@V?$allocator@D@2@@std@@@Z 1001cef0 f   ETCPayHelper.obj
 0001:0001c870       ?ParseOBUWhiteListRecordFromServer@@YA_NABV?$basic_string@DU?$char_traits@D@std@@V?$allocator@D@2@@std@@AAUObuWhiteListRecord@@@Z 1001d870 f   ETCPayHelper.obj
 0001:0001ce30       ?GetNetPayRecordMatchCode@@YA?AV?$basic_string@DU?$char_traits@D@std@@V?$allocator@D@2@@std@@ABUETCDebitRecord@@@Z 1001de30 f   ETCPayHelper.obj
 0001:0001dd60       ?TrimRight@?$CStringT@DV?$StrTraitMFC@DV?$ChTraitsCRT@D@ATL@@@@@ATL@@QAEAAV12@XZ 1001ed60 f i ETCPayHelper.obj
 0001:0001dde0       ?TrimLeft@?$CStringT@DV?$StrTraitMFC@DV?$ChTraitsCRT@D@ATL@@@@@ATL@@QAEAAV12@XZ 1001ede0 f i ETCPayHelper.obj
 0001:0001de80       ?Left@?$CStringT@DV?$StrTraitMFC@DV?$ChTraitsCRT@D@ATL@@@@@ATL@@QBE?AV12@H@Z 1001ee80 f i ETCPayHelper.obj
 0001:0001df00       ?GetManager@?$CStringT@DV?$StrTraitMFC@DV?$ChTraitsCRT@D@ATL@@@@@ATL@@QBEPAUIAtlStringMgr@2@XZ 1001ef00 f i ETCPayHelper.obj
 0001:0001df30       ??0?$CSimpleStringT@D$0A@@ATL@@QAE@PBDHPAUIAtlStringMgr@1@@Z 1001ef30 f i ETCPayHelper.obj
 0001:0001dfa0       ?_Tidy@?$deque@PAVValue@Json@@V?$allocator@PAVValue@Json@@@std@@@std@@IAEXXZ 1001efa0 f i ETCPayHelper.obj
 0001:0001e010       ?_Tidy@?$deque@VErrorInfo@Reader@Json@@V?$allocator@VErrorInfo@Reader@Json@@@std@@@std@@IAEXXZ 1001f010 f i ETCPayHelper.obj
 0001:0001e0b0       ?pop_back@?$deque@VErrorInfo@Reader@Json@@V?$allocator@VErrorInfo@Reader@Json@@@std@@@std@@QAEXXZ 1001f0b0 f i ETCPayHelper.obj
 0001:0001e110       ??1ErrorInfo@Reader@Json@@QAE@XZ 1001f110 f i ETCPayHelper.obj
 0001:0001e140       ??1ETCPayManage@trawe@@QAE@XZ 1001f140 f   ETCPayManage.obj
 0001:0001e160       ?Init@ETCPayManage@trawe@@QAEHXZ 1001f160 f   ETCPayManage.obj
 0001:0001e3a0       ?Destroy@ETCPayManage@trawe@@QAEHXZ 1001f3a0 f   ETCPayManage.obj
 0001:0001e430       ?StartWhiteListQuery@ETCPayManage@trawe@@QAEHABUObuWhiteListQueryParameter@@@Z 1001f430 f   ETCPayManage.obj
 0001:0001e520       ?IsInWhiteList@ETCPayManage@trawe@@QAEHABUObuWhiteListQueryParameter@@@Z 1001f520 f   ETCPayManage.obj
 0001:0001e5c0       ?StartDebitStateQuery@ETCPayManage@trawe@@QAEHABUDebitStateQueryParameter@@@Z 1001f5c0 f   ETCPayManage.obj
 0001:0001e650       ?GetDebitState@ETCPayManage@trawe@@QAEHABUDebitStateQueryParameter@@AAUETCDebitRecord@@@Z 1001f650 f   ETCPayManage.obj
 0001:0001e6f0       ?DebitMoney@ETCPayManage@trawe@@QAEHABUETCDebitRecord@@AAV?$basic_string@DU?$char_traits@D@std@@V?$allocator@D@2@@std@@ABH@Z 1001f6f0 f   ETCPayManage.obj
 0001:0001e8e0       ?HasUnrecoverableError@ETCPayManage@trawe@@QAE_NXZ 1001f8e0 f   ETCPayManage.obj
 0001:0001e930       ??0ETCPayUnit@trawe@@QAE@XZ 1001f930 f   ETCPayUnit.obj
 0001:0001ea60       ??_EETCPayUnit@trawe@@UAEPAXI@Z 1001fa60 f i  CIL library: CIL module
 0001:0001ea60       ??_GETCPayUnit@trawe@@UAEPAXI@Z 1001fa60 f i ETCPayUnit.obj
 0001:0001ea80       ??1ETCPayUnit@trawe@@UAE@XZ 1001fa80 f   ETCPayUnit.obj
 0001:0001eb10       ?RunBody@ETCPayUnit@trawe@@UAEXXZ 1001fb10 f   ETCPayUnit.obj
 0001:0001eb20       ?IsHTTPIdle@ETCPayUnit@trawe@@QAE_NXZ 1001fb20 f   ETCPayUnit.obj
 0001:0001ec00       ?StartDebitStateQuery@ETCPayUnit@trawe@@QAEHABUDebitStateQueryParameter@@@Z 1001fc00 f   ETCPayUnit.obj
 0001:0001ecb0       ?GetRecordFileName@ETCPayUnit@trawe@@AAE?AV?$basic_string@DU?$char_traits@D@std@@V?$allocator@D@2@@std@@_J@Z 1001fcb0 f   ETCPayUnit.obj
 0001:0001efa0       ?GetDebitState@ETCPayUnit@trawe@@QAEHABUDebitStateQueryParameter@@AAUETCDebitRecord@@@Z 1001ffa0 f   ETCPayUnit.obj
 0001:0001f430       ?DebitMoney@ETCPayUnit@trawe@@QAEHABUETCDebitRecord@@AAV?$basic_string@DU?$char_traits@D@std@@V?$allocator@D@2@@std@@ABH@Z 10020430 f   ETCPayUnit.obj
 0001:0001fa10       ?SendOneDebit@ETCPayUnit@trawe@@AAEHXZ 10020a10 f   ETCPayUnit.obj
 0001:000204d0       ?SaveDebitRecord@ETCPayUnit@trawe@@AAEHABUETCDebitRecord@@@Z 100214d0 f   ETCPayUnit.obj
 0001:000209b0       ?ClearAbateRecord@ETCPayUnit@trawe@@AAEHXZ 100219b0 f   ETCPayUnit.obj
 0001:00020ca0       ?OccurSystemFatalError@ETCPayUnit@trawe@@AAEHXZ 10021ca0 f   ETCPayUnit.obj
 0001:00020d30       ?GetNextPaySerialNo@ETCPayUnit@trawe@@AAE?AV?$basic_string@DU?$char_traits@D@std@@V?$allocator@D@2@@std@@XZ 10021d30 f   ETCPayUnit.obj
 0001:00020d50       ?QueryRecordInTargetDataBase@ETCPayUnit@trawe@@AAEHABV?$basic_string@DU?$char_traits@D@std@@V?$allocator@D@2@@std@@AAUETCDebitRecord@@@Z 10021d50 f   ETCPayUnit.obj
 0001:00020e90       ?MoveDebitRequestFromIOToDataBase@ETCPayUnit@trawe@@AAEHXZ 10021e90 f   ETCPayUnit.obj
 0001:00021450       ?SaveDebitRequestToIO@ETCPayUnit@trawe@@AAEHABUETCDebitRecord@@@Z 10022450 f   ETCPayUnit.obj
 0001:00021600       ?NewDebitAbstract@ETCPayUnit@trawe@@AAEHABUETCDebitAbstract@@@Z 10022600 f   ETCPayUnit.obj
 0001:00021780       ?QueryDebitAbstract@ETCPayUnit@trawe@@AAEHABV?$basic_string@DU?$char_traits@D@std@@V?$allocator@D@2@@std@@AAUETCDebitAbstract@@@Z 10022780 f   ETCPayUnit.obj
 0001:00021900       ??Y?$CStringT@DV?$StrTraitMFC@DV?$ChTraitsCRT@D@ATL@@@@@ATL@@QAEAAV01@PBD@Z 10022900 f i ETCPayUnit.obj
 0001:00021940       ?push_back@?$list@UETCDebitRecord@@V?$allocator@UETCDebitRecord@@@std@@@std@@QAEXABUETCDebitRecord@@@Z 10022940 f i ETCPayUnit.obj
 0001:00021970       ?size@?$vector@V?$basic_string@DU?$char_traits@D@std@@V?$allocator@D@2@@std@@V?$allocator@V?$basic_string@DU?$char_traits@D@std@@V?$allocator@D@2@@std@@@2@@std@@QBEIXZ 10022970 f i ETCPayUnit.obj
 0001:000219a0       ?erase@?$list@PAUMessageInfo@trawe@@V?$allocator@PAUMessageInfo@trawe@@@std@@@std@@QAE?AV?$_Iterator@$00@12@V312@@Z 100229a0 f i ComponentMessage.obj
 0001:000219a0       ?erase@?$list@UETCDebitRecord@@V?$allocator@UETCDebitRecord@@@std@@@std@@QAE?AV?$_Iterator@$00@12@V312@@Z 100229a0 f i ETCPayUnit.obj
 0001:000219a0       ?erase@?$list@UDebitCancleParameter@@V?$allocator@UDebitCancleParameter@@@std@@@std@@QAE?AV?$_Iterator@$00@12@V312@@Z 100229a0 f i CancelPayUnit.obj
 0001:000219a0       ?erase@?$list@UDebitParameter@@V?$allocator@UDebitParameter@@@std@@@std@@QAE?AV?$_Iterator@$00@12@V312@@Z 100229a0 f i PayHttpSync.obj
 0001:000219a0       ?erase@?$list@UObuWhiteListQueryParameter@@V?$allocator@UObuWhiteListQueryParameter@@@std@@@std@@QAE?AV?$_Iterator@$00@12@V312@@Z 100229a0 f i ETCAuthenticateUnit.obj
 0001:000219a0       ?erase@?$list@UInvoiceParameter@@V?$allocator@UInvoiceParameter@@@std@@@std@@QAE?AV?$_Iterator@$00@12@V312@@Z 100229a0 f i InvoiceHttpSync.obj
 0001:000219a0       ?erase@?$list@PAVPayHttpSync@@V?$allocator@PAVPayHttpSync@@@std@@@std@@QAE?AV?$_Iterator@$00@12@V312@@Z 100229a0 f i PayUnit.obj
 0001:000219a0       ?erase@?$list@UInvoiceCancelParameter@@V?$allocator@UInvoiceCancelParameter@@@std@@@std@@QAE?AV?$_Iterator@$00@12@V312@@Z 100229a0 f i InvoiceUnit.obj
 0001:000219a0       ?erase@?$list@UDebitResultParameter@@V?$allocator@UDebitResultParameter@@@std@@@std@@QAE?AV?$_Iterator@$00@12@V312@@Z 100229a0 f i PayUnit.obj
 0001:000219a0       ?erase@?$list@PAVInvoiceHttpSync@@V?$allocator@PAVInvoiceHttpSync@@@std@@@std@@QAE?AV?$_Iterator@$00@12@V312@@Z 100229a0 f i InvoiceUnit.obj
 0001:00021a00       ?_Buynode@?$list@UETCDebitRecord@@V?$allocator@UETCDebitRecord@@@std@@@std@@IAEPAU_Node@?$_List_nod@UETCDebitRecord@@V?$allocator@UETCDebitRecord@@@std@@@2@XZ 10022a00 f i ETCPayUnit.obj
 0001:00021a20       ?_Buynode@?$list@UETCDebitAbstract@@V?$allocator@UETCDebitAbstract@@@std@@@std@@IAEPAU_Node@?$_List_nod@UETCDebitAbstract@@V?$allocator@UETCDebitAbstract@@@std@@@2@XZ 10022a20 f i ETCPayUnit.obj
 0001:00021a40       ?_Tidy@?$vector@V?$basic_string@DU?$char_traits@D@std@@V?$allocator@D@2@@std@@V?$allocator@V?$basic_string@DU?$char_traits@D@std@@V?$allocator@D@2@@std@@@2@@std@@IAEXXZ 10022a40 f i ETCPayUnit.obj
 0001:00021a40       ??1?$vector@V?$basic_string@DU?$char_traits@D@std@@V?$allocator@D@2@@std@@V?$allocator@V?$basic_string@DU?$char_traits@D@std@@V?$allocator@D@2@@std@@@2@@std@@QAE@XZ 10022a40 f i ETCPayUnit.obj
 0001:00021a80       ??1?$list@V?$basic_string@DU?$char_traits@D@std@@V?$allocator@D@2@@std@@V?$allocator@V?$basic_string@DU?$char_traits@D@std@@V?$allocator@D@2@@std@@@2@@std@@QAE@XZ 10022a80 f i ETCPayUnit.obj
 0001:00021a80       ?_Tidy@?$list@V?$basic_string@DU?$char_traits@D@std@@V?$allocator@D@2@@std@@V?$allocator@V?$basic_string@DU?$char_traits@D@std@@V?$allocator@D@2@@std@@@2@@std@@IAEXXZ 10022a80 f i ETCPayUnit.obj
 0001:00021aa0       ??E?$_Const_iterator@$00@?$list@UAdsFilePiece@@V?$allocator@UAdsFilePiece@@@std@@@std@@QAEAAV012@XZ 10022aa0 f i ProtocolHelper.obj
 0001:00021aa0       ??E?$_Const_iterator@$00@?$list@PAVInvoiceHttpSync@@V?$allocator@PAVInvoiceHttpSync@@@std@@@std@@QAEAAV012@XZ 10022aa0 f i InvoiceUnit.obj
 0001:00021aa0       ??E?$_Const_iterator@$00@?$list@PAVPayHttpSync@@V?$allocator@PAVPayHttpSync@@@std@@@std@@QAEAAV012@XZ 10022aa0 f i PayUnit.obj
 0001:00021aa0       ??E?$_Const_iterator@$00@?$list@URemoteAdsUpdateCmd@@V?$allocator@URemoteAdsUpdateCmd@@@std@@@std@@QAEAAV012@XZ 10022aa0 f i ProtocolHelper.obj
 0001:00021aa0       ??E?$_Const_iterator@$00@?$list@UAdsFileInfo@@V?$allocator@UAdsFileInfo@@@std@@@std@@QAEAAV012@XZ 10022aa0 f i ProtocolHelper.obj
 0001:00021aa0       ??E?$_Const_iterator@$00@?$list@V?$basic_string@DU?$char_traits@D@std@@V?$allocator@D@2@@std@@V?$allocator@V?$basic_string@DU?$char_traits@D@std@@V?$allocator@D@2@@std@@@2@@std@@QAEAAV012@XZ 10022aa0 f i ETCPayUnit.obj
 0001:00021ad0       ?Append@?$CSimpleStringT@D$0A@@ATL@@QAEXPBD@Z 10022ad0 f i ETCPayUnit.obj
 0001:00021b10       ?AppendChar@?$CSimpleStringT@D$0A@@ATL@@QAEXD@Z 10022b10 f i ETCPayUnit.obj
 0001:00021b70       ?_Buynode@?$list@UETCDebitRecord@@V?$allocator@UETCDebitRecord@@@std@@@std@@IAEPAU_Node@?$_List_nod@UETCDebitRecord@@V?$allocator@UETCDebitRecord@@@std@@@2@PAU342@0ABUETCDebitRecord@@@Z 10022b70 f i ETCPayUnit.obj
 0001:00021bb0       ?_Incsize@?$list@UETCDebitRecord@@V?$allocator@UETCDebitRecord@@@std@@@std@@IAEXI@Z 10022bb0 f i ETCPayUnit.obj
 0001:00021c50       ?_Buynode@?$list@UETCDebitAbstract@@V?$allocator@UETCDebitAbstract@@@std@@@std@@IAEPAU_Node@?$_List_nod@UETCDebitAbstract@@V?$allocator@UETCDebitAbstract@@@std@@@2@PAU342@0ABUETCDebitAbstract@@@Z 10022c50 f i ETCPayUnit.obj
 0001:00021c90       ?_Incsize@?$list@UETCDebitAbstract@@V?$allocator@UETCDebitAbstract@@@std@@@std@@IAEXI@Z 10022c90 f i ETCPayUnit.obj
 0001:00021d30       ?clear@?$list@V?$basic_string@DU?$char_traits@D@std@@V?$allocator@D@2@@std@@V?$allocator@V?$basic_string@DU?$char_traits@D@std@@V?$allocator@D@2@@std@@@2@@std@@QAEXXZ 10022d30 f i ETCPayUnit.obj
 0001:00021d90       ??$_Allocate@U_Node@?$_List_nod@UETCDebitRecord@@V?$allocator@UETCDebitRecord@@@std@@@std@@@std@@YAPAU_Node@?$_List_nod@UETCDebitRecord@@V?$allocator@UETCDebitRecord@@@std@@@0@IPAU120@@Z 10022d90 f i ETCPayUnit.obj
 0001:00021de0       ??$_Allocate@U_Node@?$_List_nod@UETCDebitAbstract@@V?$allocator@UETCDebitAbstract@@@std@@@std@@@std@@YAPAU_Node@?$_List_nod@UETCDebitAbstract@@V?$allocator@UETCDebitAbstract@@@std@@@0@IPAU120@@Z 10022de0 f i ETCPayUnit.obj
 0001:00021e40       ??$_Allocate@V?$basic_string@DU?$char_traits@D@std@@V?$allocator@D@2@@std@@@std@@YAPAV?$basic_string@DU?$char_traits@D@std@@V?$allocator@D@2@@0@IPAV10@@Z 10022e40 f i ETCPayUnit.obj
 0001:00021ea0       ??$_Destroy_range@V?$basic_string@DU?$char_traits@D@std@@V?$allocator@D@2@@std@@V?$allocator@V?$basic_string@DU?$char_traits@D@std@@V?$allocator@D@2@@std@@@2@@std@@YAXPAV?$basic_string@DU?$char_traits@D@std@@V?$allocator@D@2@@0@0AAV?$allocator@V?$basic_string@DU?$char_traits@D@std@@V?$allocator@D@2@@std@@@0@U_Nonscalar_ptr_iterator_tag@0@@Z 10022ea0 f i ETCPayUnit.obj
 0001:00021ee0       ??0CFileFindExt@@QAE@XZ    10022ee0 f   FileFindExt1.obj
 0001:00021f60       ??_GCFileFindExt@@UAEPAXI@Z 10022f60 f i FileFindExt1.obj
 0001:00021f60       ??_ECFileFindExt@@UAEPAXI@Z 10022f60 f i  CIL library: CIL module
 0001:00021f80       ??1CFileFindExt@@UAE@XZ    10022f80 f   FileFindExt1.obj
 0001:00022000       ?GetAt@CFileFindExt@@QBE?AV?$CStringT@DV?$StrTraitMFC@DV?$ChTraitsCRT@D@ATL@@@@@ATL@@H@Z 10023000 f   FileFindExt1.obj
 0001:00022040       ?SearchFiles@CFileFindExt@@QAEHV?$CStringT@DV?$StrTraitMFC@DV?$ChTraitsCRT@D@ATL@@@@@ATL@@0@Z 10023040 f   FileFindExt1.obj
 0001:000227f0       ?Right@?$CStringT@DV?$StrTraitMFC@DV?$ChTraitsCRT@D@ATL@@@@@ATL@@QBE?AV12@H@Z 100237f0 f i FileFindExt1.obj
 0001:00022870       ??HATL@@YA?AV?$CStringT@DV?$StrTraitMFC@DV?$ChTraitsCRT@D@ATL@@@@@0@ABV10@0@Z 10023870 f i FileFindExt1.obj
 0001:00022930       ??HATL@@YA?AV?$CStringT@DV?$StrTraitMFC@DV?$ChTraitsCRT@D@ATL@@@@@0@ABV10@PBD@Z 10023930 f i FileFindExt1.obj
 0001:00022a10       ?Concatenate@?$CSimpleStringT@D$0A@@ATL@@KAXAAV12@PBDH1H@Z 10023a10 f i FileFindExt1.obj
 0001:00022a90       ?fs_SplitBasePath@@YA?AV?$basic_string@DU?$char_traits@D@std@@V?$allocator@D@2@@std@@ABV12@@Z 10023a90 f   fs_funcs.obj
 0001:00022ad0       ?fs_PathJoin@@YA?AV?$basic_string@DU?$char_traits@D@std@@V?$allocator@D@2@@std@@ABV12@0@Z 10023ad0 f   fs_funcs.obj
 0001:00022c00       ?Search_files@@YA?AV?$list@V?$basic_string@DU?$char_traits@D@std@@V?$allocator@D@2@@std@@V?$allocator@V?$basic_string@DU?$char_traits@D@std@@V?$allocator@D@2@@std@@@2@@std@@ABUSearch_file_info@@@Z 10023c00 f   fs_funcs.obj
 0001:00023540       ?Delete_file@@YA_NABV?$basic_string@DU?$char_traits@D@std@@V?$allocator@D@2@@std@@@Z 10024540 f   fs_funcs.obj
 0001:00023570       ?fs_thisModulePath@@YA?AV?$basic_string@DU?$char_traits@D@std@@V?$allocator@D@2@@std@@XZ 10024570 f   fs_funcs.obj
 0001:00023660       ?MakeDirectory_WindowsFun@@YA_NV?$basic_string@DU?$char_traits@D@std@@V?$allocator@D@2@@std@@@Z 10024660 f   fs_funcs.obj
 0001:00023a90       ?Move_file_to@@YA_NABUMove_file_info@@@Z 10024a90 f   fs_funcs.obj
 0001:00023c80       ?Move_file_to_target_catalog@@YA_NAAUMove_file_info@@V?$basic_string@DU?$char_traits@D@std@@V?$allocator@D@2@@std@@@Z 10024c80 f   fs_funcs.obj
 0001:00023eb0       ?substr@?$basic_string@DU?$char_traits@D@std@@V?$allocator@D@2@@std@@QBE?AV12@II@Z 10024eb0 f i fs_funcs.obj
 0001:00023ee0       ??0?$list@V?$basic_string@DU?$char_traits@D@std@@V?$allocator@D@2@@std@@V?$allocator@V?$basic_string@DU?$char_traits@D@std@@V?$allocator@D@2@@std@@@2@@std@@QAE@ABV01@@Z 10024ee0 f i fs_funcs.obj
 0001:00023f70       ?push_back@?$list@V?$basic_string@DU?$char_traits@D@std@@V?$allocator@D@2@@std@@V?$allocator@V?$basic_string@DU?$char_traits@D@std@@V?$allocator@D@2@@std@@@2@@std@@QAEXABV?$basic_string@DU?$char_traits@D@std@@V?$allocator@D@2@@2@@Z 10024f70 f i fs_funcs.obj
 0001:00023fa0       ?find@?$basic_string@DU?$char_traits@D@std@@V?$allocator@D@2@@std@@QBEIPBDII@Z 10024fa0 f i fs_funcs.obj
 0001:00024060       ?rfind@?$basic_string@DU?$char_traits@D@std@@V?$allocator@D@2@@std@@QBEIPBDII@Z 10025060 f i fs_funcs.obj
 0001:00024110       ?erase@?$list@V?$basic_string@DU?$char_traits@D@std@@V?$allocator@D@2@@std@@V?$allocator@V?$basic_string@DU?$char_traits@D@std@@V?$allocator@D@2@@std@@@2@@std@@QAE?AV?$_Iterator@$00@12@V312@@Z 10025110 f i fs_funcs.obj
 0001:000241a0       ?_Buynode@?$list@V?$basic_string@DU?$char_traits@D@std@@V?$allocator@D@2@@std@@V?$allocator@V?$basic_string@DU?$char_traits@D@std@@V?$allocator@D@2@@std@@@2@@std@@IAEPAU_Node@?$_List_nod@V?$basic_string@DU?$char_traits@D@std@@V?$allocator@D@2@@std@@V?$allocator@V?$basic_string@DU?$char_traits@D@std@@V?$allocator@D@2@@std@@@2@@2@XZ 100251a0 f i fs_funcs.obj
 0001:000241c0       ?_Buynode@?$list@V?$basic_string@DU?$char_traits@D@std@@V?$allocator@D@2@@std@@V?$allocator@V?$basic_string@DU?$char_traits@D@std@@V?$allocator@D@2@@std@@@2@@std@@IAEPAU_Node@?$_List_nod@V?$basic_string@DU?$char_traits@D@std@@V?$allocator@D@2@@std@@V?$allocator@V?$basic_string@DU?$char_traits@D@std@@V?$allocator@D@2@@std@@@2@@2@PAU342@0ABV?$basic_string@DU?$char_traits@D@std@@V?$allocator@D@2@@2@@Z 100251c0 f i fs_funcs.obj
 0001:00024260       ?_Incsize@?$list@V?$basic_string@DU?$char_traits@D@std@@V?$allocator@D@2@@std@@V?$allocator@V?$basic_string@DU?$char_traits@D@std@@V?$allocator@D@2@@std@@@2@@std@@IAEXI@Z 10025260 f i fs_funcs.obj
 0001:00024300       ??$_Allocate@U_Node@?$_List_nod@V?$basic_string@DU?$char_traits@D@std@@V?$allocator@D@2@@std@@V?$allocator@V?$basic_string@DU?$char_traits@D@std@@V?$allocator@D@2@@std@@@2@@std@@@std@@YAPAU_Node@?$_List_nod@V?$basic_string@DU?$char_traits@D@std@@V?$allocator@D@2@@std@@V?$allocator@V?$basic_string@DU?$char_traits@D@std@@V?$allocator@D@2@@std@@@2@@0@IPAU120@@Z 10025300 f i fs_funcs.obj
 0001:00024350       ??$_Construct@V?$basic_string@DU?$char_traits@D@std@@V?$allocator@D@2@@std@@V12@@std@@YAXPAV?$basic_string@DU?$char_traits@D@std@@V?$allocator@D@2@@0@ABV10@@Z 10025350 f i fs_funcs.obj
 0001:000243b0       ??$_Insert@V?$_Const_iterator@$00@?$list@V?$basic_string@DU?$char_traits@D@std@@V?$allocator@D@2@@std@@V?$allocator@V?$basic_string@DU?$char_traits@D@std@@V?$allocator@D@2@@std@@@2@@std@@@?$list@V?$basic_string@DU?$char_traits@D@std@@V?$allocator@D@2@@std@@V?$allocator@V?$basic_string@DU?$char_traits@D@std@@V?$allocator@D@2@@std@@@2@@std@@QAEXV?$_Iterator@$00@01@V?$_Const_iterator@$00@01@1Uforward_iterator_tag@1@@Z 100253b0 f i fs_funcs.obj
 0001:000244c0       ??F?$_Iterator@$00@?$list@V?$basic_string@DU?$char_traits@D@std@@V?$allocator@D@2@@std@@V?$allocator@V?$basic_string@DU?$char_traits@D@std@@V?$allocator@D@2@@std@@@2@@std@@QAEAAV012@XZ 100254c0 f i fs_funcs.obj
 0001:000244f0       ??0CHTSDDeviceDll@@QAE@XZ  100254f0 f   HTSDDeviceDll.obj
 0001:00024560       ?Init@CHTSDDeviceDll@@QAE?BHABV?$CStringT@DV?$StrTraitMFC@DV?$ChTraitsCRT@D@ATL@@@@@ATL@@@Z 10025560 f   HTSDDeviceDll.obj
 0001:00024810       ?QRcodeDisplay@CHTSDDeviceDll@@QAEHABV?$CStringT@DV?$StrTraitMFC@DV?$ChTraitsCRT@D@ATL@@@@@ATL@@@Z 10025810 f   HTSDDeviceDll.obj
 0001:00024920       ?FeeDisplay@CHTSDDeviceDll@@QAEHABV?$CStringT@DV?$StrTraitMFC@DV?$ChTraitsCRT@D@ATL@@@@@ATL@@@Z 10025920 f   HTSDDeviceDll.obj
 0001:00024a30       ?PayResultDisplay@CHTSDDeviceDll@@QAEHABV?$CStringT@DV?$StrTraitMFC@DV?$ChTraitsCRT@D@ATL@@@@@ATL@@@Z 10025a30 f   HTSDDeviceDll.obj
 0001:00024b40       ?ClearScreen@CHTSDDeviceDll@@QAEHABV?$CStringT@DV?$StrTraitMFC@DV?$ChTraitsCRT@D@ATL@@@@@ATL@@@Z 10025b40 f   HTSDDeviceDll.obj
 0001:00024c80       ?Post@HttpClientLibCurl@@QAEHABV?$basic_string@DU?$char_traits@D@std@@V?$allocator@D@2@@std@@0AAV23@H@Z 10025c80 f   HttpClient_LibCurl.obj
 0001:00024d30       ??1HttpConnection@@QAE@XZ  10025d30 f   HttpConnection.obj
 0001:00024d80       ?Post@HttpConnection@@QAE_NABV?$basic_string@DU?$char_traits@D@std@@V?$allocator@D@2@@std@@0AAV23@@Z 10025d80 f   HttpConnection.obj
 0001:00024ee0       ?LastHttpErrorDesc@HttpConnection@@QAE?AV?$basic_string@DU?$char_traits@D@std@@V?$allocator@D@2@@std@@XZ 10025ee0 f   HttpConnection.obj
 0001:00024f10       ?OpenConn@HttpConnection@@AAE_NAAVCInternetSession@@AAPAVCHttpConnection@@AAPAVCHttpFile@@ABV?$basic_string@DU?$char_traits@D@std@@V?$allocator@D@2@@std@@@Z 10025f10 f   HttpConnection.obj
 0001:00024fc0       ?PostData@HttpConnection@@AAE_NAAPAVCHttpFile@@ABV?$basic_string@DU?$char_traits@D@std@@V?$allocator@D@2@@std@@@Z 10025fc0 f   HttpConnection.obj
 0001:000250e0       ?ReadResponse@HttpConnection@@AAE_NAAPAVCHttpFile@@AAV?$basic_string@DU?$char_traits@D@std@@V?$allocator@D@2@@std@@@Z 100260e0 f   HttpConnection.obj
 0001:000252c0       ?CloseConn@HttpConnection@@AAE_NAAPAVCHttpConnection@@AAPAVCHttpFile@@@Z 100262c0 f   HttpConnection.obj
 0001:00025310       ??0InvoiceHttpSync@@QAE@XZ 10026310 f   InvoiceHttpSync.obj
 0001:00025430       ??_GInvoiceHttpSync@@UAEPAXI@Z 10026430 f i InvoiceHttpSync.obj
 0001:00025430       ??_EInvoiceHttpSync@@UAEPAXI@Z 10026430 f i  CIL library: CIL module
 0001:00025450       ??1InvoiceHttpSync@@UAE@XZ 10026450 f   InvoiceHttpSync.obj
 0001:000254f0       ?RunBody@InvoiceHttpSync@@UAEXXZ 100264f0 f   InvoiceHttpSync.obj
 0001:00025670       ?ExecuteOneInvoice@InvoiceHttpSync@@AAEHAAUInvoiceParameter@@@Z 10026670 f   InvoiceHttpSync.obj
 0001:00025df0       ?StartTransmit@InvoiceHttpSync@@QAEHAAUInvoiceParameter@@@Z 10026df0 f   InvoiceHttpSync.obj
 0001:00025e80       ?_Buynode@?$list@UInvoiceParameter@@V?$allocator@UInvoiceParameter@@@std@@@std@@IAEPAU_Node@?$_List_nod@UInvoiceParameter@@V?$allocator@UInvoiceParameter@@@std@@@2@XZ 10026e80 f i InvoiceHttpSync.obj
 0001:00025ea0       ?_Buynode@?$list@UInvoiceParameter@@V?$allocator@UInvoiceParameter@@@std@@@std@@IAEPAU_Node@?$_List_nod@UInvoiceParameter@@V?$allocator@UInvoiceParameter@@@std@@@2@PAU342@0ABUInvoiceParameter@@@Z 10026ea0 f i InvoiceHttpSync.obj
 0001:00025ee0       ?_Incsize@?$list@UInvoiceParameter@@V?$allocator@UInvoiceParameter@@@std@@@std@@IAEXI@Z 10026ee0 f i InvoiceHttpSync.obj
 0001:00025f80       ??$sprintf_s@$0IA@@@YAHAAY0IA@DPBDZZ 10026f80 f i InvoiceHttpSync.obj
 0001:00025fa0       ??$_Allocate@U_Node@?$_List_nod@UInvoiceParameter@@V?$allocator@UInvoiceParameter@@@std@@@std@@@std@@YAPAU_Node@?$_List_nod@UInvoiceParameter@@V?$allocator@UInvoiceParameter@@@std@@@0@IPAU120@@Z 10026fa0 f i InvoiceHttpSync.obj
 0001:00025ff0       ??0CInvoiceUnit@@QAE@XZ    10026ff0 f   InvoiceUnit.obj
 0001:00026180       ??_GCInvoiceUnit@@UAEPAXI@Z 10027180 f i InvoiceUnit.obj
 0001:00026180       ??_ECInvoiceUnit@@UAEPAXI@Z 10027180 f i  CIL library: CIL module
 0001:000261a0       ??1CInvoiceUnit@@UAE@XZ    100271a0 f   InvoiceUnit.obj
 0001:00026410       ?RunBody@CInvoiceUnit@@UAEXXZ 10027410 f   InvoiceUnit.obj
 0001:00026440       ?StartNewInvoiceTransmit@CInvoiceUnit@@QAEHAAUInvoiceParameter@@@Z 10027440 f   InvoiceUnit.obj
 0001:00026680       ?StartInvoiceCancel@CInvoiceUnit@@QAEHAAUInvoiceCancelParameter@@@Z 10027680 f   InvoiceUnit.obj
 0001:00026710       ?ExecuteOneInvoiceTransmit@CInvoiceUnit@@AAEXXZ 10027710 f   InvoiceUnit.obj
 0001:00026d50       ?ExecuteOneInvoiceCancel@CInvoiceUnit@@AAEXXZ 10027d50 f   InvoiceUnit.obj
 0001:00027420       ?ClearAbandonInvoice@CInvoiceUnit@@AAEHXZ 10028420 f   InvoiceUnit.obj
 0001:000276f0       ?NotifyResult@CInvoiceUnit@@AAEHHH@Z 100286f0 f   InvoiceUnit.obj
 0001:00027820       ?SetQrcodeDisplay@CInvoiceUnit@@AAEHAAUInvoiceParameter@@@Z 10028820 f   InvoiceUnit.obj
 0001:00027e40       ?AddInvoiceCancel2DB@CInvoiceUnit@@AAEXAAUInvoiceCancelParameter@@@Z 10028e40 f   InvoiceUnit.obj
 0001:000280f0       ?AddInvoice2DB@CInvoiceUnit@@AAEXAAUInvoiceParameter@@@Z 100290f0 f   InvoiceUnit.obj
 0001:000283a0       ?DeleteInvoiceCancelFromDB@CInvoiceUnit@@AAEXAAUInvoiceCancelParameter@@@Z 100293a0 f   InvoiceUnit.obj
 0001:00028540       ?DeleteInvoiceFromDB@CInvoiceUnit@@AAEXAAUInvoiceParameter@@@Z 10029540 f   InvoiceUnit.obj
 0001:000286e0       ?GetOneInvoiceCancelFromDB@CInvoiceUnit@@AAE_NXZ 100296e0 f   InvoiceUnit.obj
 0001:00028940       ?GetOneInvoiceFromDB@CInvoiceUnit@@AAE_NXZ 10029940 f   InvoiceUnit.obj
 0001:00028ba0       ?_Buynode@?$list@UInvoiceCancelParameter@@V?$allocator@UInvoiceCancelParameter@@@std@@@std@@IAEPAU_Node@?$_List_nod@UInvoiceCancelParameter@@V?$allocator@UInvoiceCancelParameter@@@std@@@2@XZ 10029ba0 f i InvoiceUnit.obj
 0001:00028bc0       ?_Buynode@?$list@UInvoiceCancelParameter@@V?$allocator@UInvoiceCancelParameter@@@std@@@std@@IAEPAU_Node@?$_List_nod@UInvoiceCancelParameter@@V?$allocator@UInvoiceCancelParameter@@@std@@@2@PAU342@0ABUInvoiceCancelParameter@@@Z 10029bc0 f i InvoiceUnit.obj
 0001:00028c00       ?_Incsize@?$list@UInvoiceCancelParameter@@V?$allocator@UInvoiceCancelParameter@@@std@@@std@@IAEXI@Z 10029c00 f i InvoiceUnit.obj
 0001:00028ca0       ??$_Allocate@U_Node@?$_List_nod@UInvoiceCancelParameter@@V?$allocator@UInvoiceCancelParameter@@@std@@@std@@@std@@YAPAU_Node@?$_List_nod@UInvoiceCancelParameter@@V?$allocator@UInvoiceCancelParameter@@@std@@@0@IPAU120@@Z 10029ca0 f i InvoiceUnit.obj
 0001:00028cf0       ??$_Assign@V?$_Const_iterator@$00@?$list@PAVPayHttpSync@@V?$allocator@PAVPayHttpSync@@@std@@@std@@@?$list@PAVPayHttpSync@@V?$allocator@PAVPayHttpSync@@@std@@@std@@QAEXV?$_Const_iterator@$00@01@0Uinput_iterator_tag@1@@Z 10029cf0 f i PayUnit.obj
 0001:00028cf0       ??$_Assign@V?$_Const_iterator@$00@?$list@PAVInvoiceHttpSync@@V?$allocator@PAVInvoiceHttpSync@@@std@@@std@@@?$list@PAVInvoiceHttpSync@@V?$allocator@PAVInvoiceHttpSync@@@std@@@std@@QAEXV?$_Const_iterator@$00@01@0Uinput_iterator_tag@1@@Z 10029cf0 f i InvoiceUnit.obj
 0001:00028d50       ??$_Insert@V?$_Const_iterator@$00@?$list@PAVPayHttpSync@@V?$allocator@PAVPayHttpSync@@@std@@@std@@@?$list@PAVPayHttpSync@@V?$allocator@PAVPayHttpSync@@@std@@@std@@QAEXV?$_Iterator@$00@01@V?$_Const_iterator@$00@01@1Uforward_iterator_tag@1@@Z 10029d50 f i PayUnit.obj
 0001:00028d50       ??$_Insert@V?$_Const_iterator@$00@?$list@PAVInvoiceHttpSync@@V?$allocator@PAVInvoiceHttpSync@@@std@@@std@@@?$list@PAVInvoiceHttpSync@@V?$allocator@PAVInvoiceHttpSync@@@std@@@std@@QAEXV?$_Iterator@$00@01@V?$_Const_iterator@$00@01@1Uforward_iterator_tag@1@@Z 10029d50 f i InvoiceUnit.obj
 0001:00028e70       ?CreateEnDataString@CDVJsonDebit@@QBE?BV?$CStringT@DV?$StrTraitMFC@DV?$ChTraitsCRT@D@ATL@@@@@ATL@@XZ 10029e70 f i JsonDebitOperate.obj
 0001:00028e90       ?FormatSendData2Json@CJsonHeartOperate@@EAE?AV?$CStringT@DV?$StrTraitMFC@DV?$ChTraitsCRT@D@ATL@@@@@ATL@@PBVCDVJsonDebitSecond@@@Z 10029e90 f i JsonHeartOperate.obj
 0001:00028e90       ?FormatSendData2Json@CJsonDebitOperate@@EAE?AV?$CStringT@DV?$StrTraitMFC@DV?$ChTraitsCRT@D@ATL@@@@@ATL@@PBVCDVJsonHeart@@@Z 10029e90 f i JsonDebitOperate.obj
 0001:00028e90       ?FormatSendData2Json@CJsonNFCOperate@@MAE?AV?$CStringT@DV?$StrTraitMFC@DV?$ChTraitsCRT@D@ATL@@@@@ATL@@PBVCDVJsonDebitSecond@@@Z 10029e90 f i JsonNFCOperate.obj
 0001:00028e90       ?FormatSendData2Json@CJsonParamOperate@@EAE?AV?$CStringT@DV?$StrTraitMFC@DV?$ChTraitsCRT@D@ATL@@@@@ATL@@PBVCDVJsonDebitSecond@@@Z 10029e90 f i JsonParamOperate.obj
 0001:00028e90       ?FormatParamData2Json@CJsonNFCOperate@@MAE?AV?$CStringT@DV?$StrTraitMFC@DV?$ChTraitsCRT@D@ATL@@@@@ATL@@PBVCDVJsonParamAccount@@@Z 10029e90 f i JsonNFCOperate.obj
 0001:00028e90       ?FormatSendData2Json@CJsonHeartOperate@@EAE?AV?$CStringT@DV?$StrTraitMFC@DV?$ChTraitsCRT@D@ATL@@@@@ATL@@PBVCDVJsonNFCSignIn@@@Z 10029e90 f i JsonHeartOperate.obj
 0001:00028e90       ?FormatParamData2Json@CJsonDebitOperate@@EAE?AV?$CStringT@DV?$StrTraitMFC@DV?$ChTraitsCRT@D@ATL@@@@@ATL@@PBVCDVJsonParamAccount@@@Z 10029e90 f i JsonDebitOperate.obj
 0001:00028e90       ?FormatParamData2Json@CJsonHeartOperate@@EAE?AV?$CStringT@DV?$StrTraitMFC@DV?$ChTraitsCRT@D@ATL@@@@@ATL@@PBVCDVJsonParamAccount@@@Z 10029e90 f i JsonHeartOperate.obj
 0001:00028e90       ?FormatSendData2Json@CJsonNFCOperate@@MAE?AV?$CStringT@DV?$StrTraitMFC@DV?$ChTraitsCRT@D@ATL@@@@@ATL@@PBVCDVJsonHeart@@@Z 10029e90 f i JsonNFCOperate.obj
 0001:00028e90       ?FormatSendData2Json@CJsonParamOperate@@EAE?AV?$CStringT@DV?$StrTraitMFC@DV?$ChTraitsCRT@D@ATL@@@@@ATL@@PBVCDVJsonNFCSignIn@@@Z 10029e90 f i JsonParamOperate.obj
 0001:00028e90       ?FormatSendData2Json@CJsonNFCOperate@@MAE?AV?$CStringT@DV?$StrTraitMFC@DV?$ChTraitsCRT@D@ATL@@@@@ATL@@PBVCDVJsonDebitCancel@@@Z 10029e90 f i JsonNFCOperate.obj
 0001:00028e90       ?FormatParamData2Json@CJsonDebitOperate@@EAE?AV?$CStringT@DV?$StrTraitMFC@DV?$ChTraitsCRT@D@ATL@@@@@ATL@@PBVCDVJsonParamDebitResult@@@Z 10029e90 f i JsonDebitOperate.obj
 0001:00028e90       ?FormatParamData2Json@CJsonNFCOperate@@MAE?AV?$CStringT@DV?$StrTraitMFC@DV?$ChTraitsCRT@D@ATL@@@@@ATL@@PBVCDVJsonParamDebitResult@@@Z 10029e90 f i JsonNFCOperate.obj
 0001:00028e90       ?FormatParamData2Json@CJsonHeartOperate@@EAE?AV?$CStringT@DV?$StrTraitMFC@DV?$ChTraitsCRT@D@ATL@@@@@ATL@@PBVCDVJsonParamDebitResult@@@Z 10029e90 f i JsonHeartOperate.obj
 0001:00028e90       ?FormatSendData2Json@CJsonHeartOperate@@EAE?AV?$CStringT@DV?$StrTraitMFC@DV?$ChTraitsCRT@D@ATL@@@@@ATL@@PBVCDVJsonDebitCancel@@@Z 10029e90 f i JsonHeartOperate.obj
 0001:00028e90       ?FormatSendData2Json@CJsonParamOperate@@EAE?AV?$CStringT@DV?$StrTraitMFC@DV?$ChTraitsCRT@D@ATL@@@@@ATL@@PBVCDVJsonHeart@@@Z 10029e90 f i JsonParamOperate.obj
 0001:00028e90       ?FormatSendData2Json@CJsonDebitOperate@@EAE?AV?$CStringT@DV?$StrTraitMFC@DV?$ChTraitsCRT@D@ATL@@@@@ATL@@PBVCDVJsonNFCSignIn@@@Z 10029e90 f i JsonDebitOperate.obj
 0001:00028e90       ?FormatSendData2Json@CJsonParamOperate@@EAE?AV?$CStringT@DV?$StrTraitMFC@DV?$ChTraitsCRT@D@ATL@@@@@ATL@@PBVCDVJsonDebitCancel@@@Z 10029e90 f i JsonParamOperate.obj
 0001:00028ec0       ??0CJsonDebitOperate@@QAE@XZ 10029ec0 f   JsonDebitOperate.obj
 0001:00028ee0       ?FormatSendData2Json@CJsonDebitOperate@@UAE?AV?$CStringT@DV?$StrTraitMFC@DV?$ChTraitsCRT@D@ATL@@@@@ATL@@PBVCDVJsonDebit@@H@Z 10029ee0 f   JsonDebitOperate.obj
 0001:0002a550       ?FormatSendData2Json@CJsonDebitOperate@@UAE?AV?$CStringT@DV?$StrTraitMFC@DV?$ChTraitsCRT@D@ATL@@@@@ATL@@PBVCDVJsonDebitCheck@@H@Z 1002b550 f   JsonDebitOperate.obj
 0001:0002a960       ?FormatSendData2Json@CJsonDebitOperate@@UAE?AV?$CStringT@DV?$StrTraitMFC@DV?$ChTraitsCRT@D@ATL@@@@@ATL@@PBVCDVJsonDebitCancel@@@Z 1002b960 f   JsonDebitOperate.obj
 0001:0002ad20       ?FormatSendData2Json@CJsonDebitOperate@@UAE?AV?$CStringT@DV?$StrTraitMFC@DV?$ChTraitsCRT@D@ATL@@@@@ATL@@PBVCDVJsonDebitSecond@@@Z 1002bd20 f   JsonDebitOperate.obj
 0001:0002b910       ?FormatResponseResult2Class@CJsonDebitOperate@@UAEPAVCDVJsonBase@@ABV?$CStringT@DV?$StrTraitMFC@DV?$ChTraitsCRT@D@ATL@@@@@ATL@@ABH@Z 1002c910 f   JsonDebitOperate.obj
 0001:0002b990       ?fnAnalysisStringForDebit@CJsonDebitOperate@@AAEPAVCDVJsonDebit@@ABV?$CStringT@DV?$StrTraitMFC@DV?$ChTraitsCRT@D@ATL@@@@@ATL@@@Z 1002c990 f   JsonDebitOperate.obj
 0001:0002bf80       ?fnAnalysisStringForDebitCheck@CJsonDebitOperate@@AAEPAVCDVJsonDebitCheck@@ABV?$CStringT@DV?$StrTraitMFC@DV?$ChTraitsCRT@D@ATL@@@@@ATL@@@Z 1002cf80 f   JsonDebitOperate.obj
 0001:0002c430       ?fnAnalysisStringForDebitCancel@CJsonDebitOperate@@AAEPAVCDVJsonDebitCancel@@ABV?$CStringT@DV?$StrTraitMFC@DV?$ChTraitsCRT@D@ATL@@@@@ATL@@@Z 1002d430 f   JsonDebitOperate.obj
 0001:0002c820       ?fnAnalysisStringForDebitSecond@CJsonDebitOperate@@AAEPAVCDVJsonDebit@@ABV?$CStringT@DV?$StrTraitMFC@DV?$ChTraitsCRT@D@ATL@@@@@ATL@@@Z 1002d820 f   JsonDebitOperate.obj
 0001:0002cd70       ?FormatSendData2Json@CJsonHeartOperate@@EAE?AV?$CStringT@DV?$StrTraitMFC@DV?$ChTraitsCRT@D@ATL@@@@@ATL@@PBVCDVJsonDebitCheck@@H@Z 1002dd70 f i JsonHeartOperate.obj
 0001:0002cd70       ?FormatSendData2Json@CJsonNFCOperate@@MAE?AV?$CStringT@DV?$StrTraitMFC@DV?$ChTraitsCRT@D@ATL@@@@@ATL@@PBVCDVJsonDebitCheck@@H@Z 1002dd70 f i JsonNFCOperate.obj
 0001:0002cd70       ?FormatSendData2Json@CJsonNFCOperate@@MAE?AV?$CStringT@DV?$StrTraitMFC@DV?$ChTraitsCRT@D@ATL@@@@@ATL@@PBVCDVJsonDebit@@H@Z 1002dd70 f i JsonNFCOperate.obj
 0001:0002cd70       ?FormatSendData2Json@CJsonParamOperate@@EAE?AV?$CStringT@DV?$StrTraitMFC@DV?$ChTraitsCRT@D@ATL@@@@@ATL@@PBVCDVJsonDebit@@H@Z 1002dd70 f i JsonParamOperate.obj
 0001:0002cd70       ?FormatSendData2Json@CJsonParamOperate@@EAE?AV?$CStringT@DV?$StrTraitMFC@DV?$ChTraitsCRT@D@ATL@@@@@ATL@@PBVCDVJsonDebitCheck@@H@Z 1002dd70 f i JsonParamOperate.obj
 0001:0002cd70       ?FormatSendData2Json@CJsonHeartOperate@@EAE?AV?$CStringT@DV?$StrTraitMFC@DV?$ChTraitsCRT@D@ATL@@@@@ATL@@PBVCDVJsonDebit@@H@Z 1002dd70 f i JsonHeartOperate.obj
 0001:0002cda0       ?FormatSendData2Json@CJsonHeartOperate@@UAE?AV?$CStringT@DV?$StrTraitMFC@DV?$ChTraitsCRT@D@ATL@@@@@ATL@@PBVCDVJsonHeart@@@Z 1002dda0 f   JsonHeartOperate.obj
 0001:0002cdd0       ?FormatResponseResult2Class@CJsonHeartOperate@@UAEPAVCDVJsonBase@@ABV?$CStringT@DV?$StrTraitMFC@DV?$ChTraitsCRT@D@ATL@@@@@ATL@@ABH@Z 1002ddd0 f   JsonHeartOperate.obj
 0001:0002cef0       ?do_always_noconv@codecvt_base@std@@MBE_NXZ 1002def0 f i JsonHelper.obj
 0001:0002cf00       ?do_max_length@codecvt_base@std@@MBEHXZ 1002df00 f i JsonHelper.obj
 0001:0002cf00       ?do_encoding@codecvt_base@std@@MBEHXZ 1002df00 f i JsonHelper.obj
 0001:0002cf00       ?InitInstance@CThreadBase@@UAEHXZ 1002df00 f i ThreadBase.obj
 0001:0002cf10       ??0out_of_range@std@@QAE@ABV01@@Z 1002df10 f i JsonHelper.obj
 0001:0002cf30       ??$_Fputc@D@std@@YA_NDPAU_iobuf@@@Z 1002df30 f i JsonHelper.obj
 0001:0002cf50       ?ReadJsonInt@@YA_NABVValue@Json@@ABV?$basic_string@DU?$char_traits@D@std@@V?$allocator@D@2@@std@@AAH@Z 1002df50 f   JsonHelper.obj
 0001:0002cfc0       ?ReadJsonStr@@YA_NABVValue@Json@@ABV?$basic_string@DU?$char_traits@D@std@@V?$allocator@D@2@@std@@AAV34@@Z 1002dfc0 f   JsonHelper.obj
 0001:0002d0a0       ?ReadJsonSubNode@@YA_NABVValue@Json@@ABV?$basic_string@DU?$char_traits@D@std@@V?$allocator@D@2@@std@@AAV12@@Z 1002e0a0 f   JsonHelper.obj
 0001:0002d120       ?ReadJsonChars@@YA_NABVValue@Json@@ABV?$basic_string@DU?$char_traits@D@std@@V?$allocator@D@2@@std@@PADI@Z 1002e120 f   JsonHelper.obj
 0001:0002d210       ?ReadJsonStrOrInt@@YA_NABVValue@Json@@ABV?$basic_string@DU?$char_traits@D@std@@V?$allocator@D@2@@std@@PADI@Z 1002e210 f   JsonHelper.obj
 0001:0002d330       ?ReadJsonTimet@@YA_NABVValue@Json@@ABV?$basic_string@DU?$char_traits@D@std@@V?$allocator@D@2@@std@@AA_J@Z 1002e330 f   JsonHelper.obj
 0001:0002d410       ??_D?$basic_ifstream@DU?$char_traits@D@std@@@std@@QAEXXZ 1002e410 f i JsonHelper.obj
 0001:0002d430       ?GetJsonParseError@@YA?AV?$basic_string@DU?$char_traits@D@std@@V?$allocator@D@2@@std@@XZ 1002e430 f   JsonHelper.obj
 0001:0002d530       ??1JsonLastError@@QAE@XZ   1002e530 f i JsonHelper.obj
 0001:0002d530       ?destroy@?$allocator@V?$basic_string@DU?$char_traits@D@std@@V?$allocator@D@2@@std@@@std@@QAEXPAV?$basic_string@DU?$char_traits@D@std@@V?$allocator@D@2@@2@@Z 1002e530 f i ETCPayUnit.obj
 0001:0002d560       ?push_back@?$vector@V?$basic_string@DU?$char_traits@D@std@@V?$allocator@D@2@@std@@V?$allocator@V?$basic_string@DU?$char_traits@D@std@@V?$allocator@D@2@@std@@@2@@std@@QAEXABV?$basic_string@DU?$char_traits@D@std@@V?$allocator@D@2@@2@@Z 1002e560 f i JsonHelper.obj
 0001:0002d610       ??A?$map@HUJsonLastError@@U?$less@H@std@@V?$allocator@U?$pair@$$CBHUJsonLastError@@@std@@@3@@std@@QAEAAUJsonLastError@@ABH@Z 1002e610 f i JsonHelper.obj
 0001:0002d740       ??0?$basic_ifstream@DU?$char_traits@D@std@@@std@@QAE@PBDHH@Z 1002e740 f i JsonHelper.obj
 0001:0002d820       ??1?$basic_ifstream@DU?$char_traits@D@std@@@std@@UAE@XZ 1002e820 f i JsonHelper.obj
 0001:0002d890       ?close@?$basic_ifstream@DU?$char_traits@D@std@@@std@@QAEXXZ 1002e890 f i JsonHelper.obj
 0001:0002d8c0       ??1?$basic_filebuf@DU?$char_traits@D@std@@@std@@UAE@XZ 1002e8c0 f i JsonHelper.obj
 0001:0002d950       ?overflow@?$basic_filebuf@DU?$char_traits@D@std@@@std@@MAEHH@Z 1002e950 f i JsonHelper.obj
 0001:0002dd30       ?pbackfail@?$basic_filebuf@DU?$char_traits@D@std@@@std@@MAEHH@Z 1002ed30 f i JsonHelper.obj
 0001:0002dda0       ?underflow@?$basic_filebuf@DU?$char_traits@D@std@@@std@@MAEHXZ 1002eda0 f i JsonHelper.obj
 0001:0002ddf0       ?uflow@?$basic_filebuf@DU?$char_traits@D@std@@@std@@MAEHXZ 1002edf0 f i JsonHelper.obj
 0001:0002e160       ?seekoff@?$basic_filebuf@DU?$char_traits@D@std@@@std@@MAE?AV?$fpos@H@2@JHH@Z 1002f160 f i JsonHelper.obj
 0001:0002e240       ?seekpos@?$basic_filebuf@DU?$char_traits@D@std@@@std@@MAE?AV?$fpos@H@2@V32@H@Z 1002f240 f i JsonHelper.obj
 0001:0002e330       ?setbuf@?$basic_filebuf@DU?$char_traits@D@std@@@std@@MAEPAV?$basic_streambuf@DU?$char_traits@D@std@@@2@PADH@Z 1002f330 f i JsonHelper.obj
 0001:0002e3b0       ?sync@?$basic_filebuf@DU?$char_traits@D@std@@@std@@MAEHXZ 1002f3b0 f i JsonHelper.obj
 0001:0002e3e0       ?imbue@?$basic_filebuf@DU?$char_traits@D@std@@@std@@MAEXABVlocale@2@@Z 1002f3e0 f i JsonHelper.obj
 0001:0002e420       ??_E?$basic_ifstream@DU?$char_traits@D@std@@@std@@UAEPAXI@Z 1002f420 f i  CIL library: CIL module
 0001:0002e420       ??_G?$basic_ifstream@DU?$char_traits@D@std@@@std@@UAEPAXI@Z 1002f420 f i JsonHelper.obj
 0001:0002e460       ??_E?$basic_filebuf@DU?$char_traits@D@std@@@std@@UAEPAXI@Z 1002f460 f i  CIL library: CIL module
 0001:0002e460       ??_G?$basic_filebuf@DU?$char_traits@D@std@@@std@@UAEPAXI@Z 1002f460 f i JsonHelper.obj
 0001:0002e480       ??0?$basic_string@DU?$char_traits@D@std@@V?$allocator@D@2@@std@@QAE@ID@Z 1002f480 f i JsonHelper.obj
 0001:0002e4b0       ?begin@?$basic_string@DU?$char_traits@D@std@@V?$allocator@D@2@@std@@QAE?AV?$_String_iterator@DU?$char_traits@D@std@@V?$allocator@D@2@@2@XZ 1002f4b0 f i JsonHelper.obj
 0001:0002e4f0       ?insert@?$vector@V?$basic_string@DU?$char_traits@D@std@@V?$allocator@D@2@@std@@V?$allocator@V?$basic_string@DU?$char_traits@D@std@@V?$allocator@D@2@@std@@@2@@std@@QAE?AV?$_Vector_iterator@V?$basic_string@DU?$char_traits@D@std@@V?$allocator@D@2@@std@@V?$allocator@V?$basic_string@DU?$char_traits@D@std@@V?$allocator@D@2@@std@@@2@@2@V32@ABV?$basic_string@DU?$char_traits@D@std@@V?$allocator@D@2@@2@@Z 1002f4f0 f i JsonHelper.obj
 0001:0002e5b0       ?_Ufill@?$vector@V?$basic_string@DU?$char_traits@D@std@@V?$allocator@D@2@@std@@V?$allocator@V?$basic_string@DU?$char_traits@D@std@@V?$allocator@D@2@@std@@@2@@std@@IAEPAV?$basic_string@DU?$char_traits@D@std@@V?$allocator@D@2@@2@PAV32@IABV32@@Z 1002f5b0 f i JsonHelper.obj
 0001:0002e5e0       ?insert@?$_Tree@V?$_Tmap_traits@HUJsonLastError@@U?$less@H@std@@V?$allocator@U?$pair@$$CBHUJsonLastError@@@std@@@3@$0A@@std@@@std@@QAE?AViterator@12@V312@ABU?$pair@$$CBHUJsonLastError@@@2@@Z 1002f5e0 f i JsonHelper.obj
 0001:0002e7a0       ?lower_bound@?$_Tree@V?$_Tmap_traits@HUJsonLastError@@U?$less@H@std@@V?$allocator@U?$pair@$$CBHUJsonLastError@@@std@@@3@$0A@@std@@@std@@QAE?AViterator@12@ABH@Z 1002f7a0 f i JsonHelper.obj
 0001:0002e7e0       ??R?$less@V?$basic_string@DU?$char_traits@D@std@@V?$allocator@D@2@@std@@@std@@QBE_NABV?$basic_string@DU?$char_traits@D@std@@V?$allocator@D@2@@1@0@Z 1002f7e0 f i JsonHelper.obj
 0001:0002e810       ?open@?$basic_filebuf@DU?$char_traits@D@std@@@std@@QAEPAV12@PBDHH@Z 1002f810 f i JsonHelper.obj
 0001:0002e920       ?close@?$basic_filebuf@DU?$char_traits@D@std@@@std@@QAEPAV12@XZ 1002f920 f i JsonHelper.obj
 0001:0002e970       ?_Endwrite@?$basic_filebuf@DU?$char_traits@D@std@@@std@@IAE_NXZ 1002f970 f i JsonHelper.obj
 0001:0002ecb0       ??8const_iterator@?$_Tree@V?$_Tmap_traits@HHU?$less@H@std@@V?$allocator@U?$pair@$$CBHH@std@@@2@$0A@@std@@@std@@QBE_NABV012@@Z 1002fcb0 f i PayHelper.obj
 0001:0002ecb0       ??8const_iterator@?$_Tree@V?$_Tmap_traits@HV?$basic_string@DU?$char_traits@D@std@@V?$allocator@D@2@@std@@U?$less@H@2@V?$allocator@U?$pair@$$CBHV?$basic_string@DU?$char_traits@D@std@@V?$allocator@D@2@@std@@@std@@@2@$0A@@std@@@std@@QBE_NABV012@@Z 1002fcb0 f i ThreadDevice.obj
 0001:0002ecb0       ??8const_iterator@?$_Tree@V?$_Tmap_traits@KIU?$less@K@std@@V?$allocator@U?$pair@$$CBKI@std@@@2@$0A@@std@@@std@@QBE_NABV012@@Z 1002fcb0 f i LogUploader.obj
 0001:0002ecb0       ??8const_iterator@?$_Tree@V?$_Tmap_traits@HUXMLLastError@@U?$less@H@std@@V?$allocator@U?$pair@$$CBHUXMLLastError@@@std@@@3@$0A@@std@@@std@@QBE_NABV012@@Z 1002fcb0 f i XMLHelper.obj
 0001:0002ecb0       ??8const_iterator@?$_Tree@V?$_Tmap_traits@V?$basic_string@DU?$char_traits@D@std@@V?$allocator@D@2@@std@@V?$set@V?$basic_string@DU?$char_traits@D@std@@V?$allocator@D@2@@std@@U?$less@V?$basic_string@DU?$char_traits@D@std@@V?$allocator@D@2@@std@@@2@V?$allocator@V?$basic_string@DU?$char_traits@D@std@@V?$allocator@D@2@@std@@@2@@2@U?$less@V?$basic_string@DU?$char_traits@D@std@@V?$allocator@D@2@@std@@@2@V?$allocator@U?$pair@$$CBV?$basic_string@DU?$char_traits@D@std@@V?$allocator@D@2@@std@@V?$set@V?$basic_string@DU?$char_traits@D@std@@V?$allocator@D@2@@std@@U?$less@V?$basic_string@DU?$char_traits@D@std@@V?$allocator@D@2@@std@@@2@V?$allocator@V?$basic_string@DU?$char_traits@D@std@@V?$allocator@D@2@@std@@@2@@2@@std@@@2@$0A@@std@@@std@@QBE_NABV012@@Z 1002fcb0 f i RemoteAccessCore.obj
 0001:0002ecb0       ??8const_iterator@?$_Tree@V?$_Tmap_traits@VCZString@Value@Json@@V23@U?$less@VCZString@Value@Json@@@std@@V?$allocator@U?$pair@$$CBVCZString@Value@Json@@V23@@std@@@5@$0A@@std@@@std@@QBE_NABV012@@Z 1002fcb0 f i json_vc71_libmt:json_value.obj
 0001:0002ecb0       ??8const_iterator@?$_Tree@V?$_Tset_traits@V?$basic_string@DU?$char_traits@D@std@@V?$allocator@D@2@@std@@U?$less@V?$basic_string@DU?$char_traits@D@std@@V?$allocator@D@2@@std@@@2@V?$allocator@V?$basic_string@DU?$char_traits@D@std@@V?$allocator@D@2@@std@@@2@$0A@@std@@@std@@QBE_NABV012@@Z 1002fcb0 f i LogFileExplorer.obj
 0001:0002ecb0       ??8const_iterator@?$_Tree@V?$_Tmap_traits@HUJsonLastError@@U?$less@H@std@@V?$allocator@U?$pair@$$CBHUJsonLastError@@@std@@@3@$0A@@std@@@std@@QBE_NABV012@@Z 1002fcb0 f i JsonHelper.obj
 0001:0002ecd0       ?do_in@?$codecvt@DDH@std@@MBEHAAHPBD1AAPBDPAD3AAPAD@Z 1002fcd0 f i JsonHelper.obj
 0001:0002ecd0       ?do_out@?$codecvt@DDH@std@@MBEHAAHPBD1AAPBDPAD3AAPAD@Z 1002fcd0 f i JsonHelper.obj
 0001:0002ecf0       ?do_unshift@?$codecvt@DDH@std@@MBEHAAHPAD1AAPAD@Z 1002fcf0 f i JsonHelper.obj
 0001:0002ed10       ?do_length@?$codecvt@DDH@std@@MBEHABHPBD1I@Z 1002fd10 f i JsonHelper.obj
 0001:0002ed30       ??D?$_String_const_iterator@DU?$char_traits@D@std@@V?$allocator@D@2@@std@@QBEABDXZ 1002fd30 f i JsonHelper.obj
 0001:0002ed30       ??D?$_String_iterator@DU?$char_traits@D@std@@V?$allocator@D@2@@std@@QBEAADXZ 1002fd30 f i JsonHelper.obj
 0001:0002ed70       ??_Gfacet@locale@std@@UAEPAXI@Z 1002fd70 f i DataBaseHelper.obj
 0001:0002ed70       ??_E?$codecvt@DDH@std@@MAEPAXI@Z 1002fd70 f i  CIL library: CIL module
 0001:0002ed70       ??_G?$codecvt@DDH@std@@MAEPAXI@Z 1002fd70 f i JsonHelper.obj
 0001:0002ed70       ??_E?$num_put@DV?$ostreambuf_iterator@DU?$char_traits@D@std@@@std@@@std@@MAEPAXI@Z 1002fd70 f i  CIL library: CIL module
 0001:0002ed70       ??_G?$num_put@DV?$ostreambuf_iterator@DU?$char_traits@D@std@@@std@@@std@@MAEPAXI@Z 1002fd70 f i DataBaseHelper.obj
 0001:0002ed70       ??_Efacet@locale@std@@UAEPAXI@Z 1002fd70 f i  CIL library: CIL module
 0001:0002ed90       ?assign@?$basic_string@DU?$char_traits@D@std@@V?$allocator@D@2@@std@@QAEAAV12@ID@Z 1002fd90 f i JsonHelper.obj
 0001:0002ee20       ?getloc@?$basic_streambuf@DU?$char_traits@D@std@@@std@@QBE?AVlocale@2@XZ 1002fe20 f i JsonHelper.obj
 0001:0002ee50       ?_Insert_n@?$vector@V?$basic_string@DU?$char_traits@D@std@@V?$allocator@D@2@@std@@V?$allocator@V?$basic_string@DU?$char_traits@D@std@@V?$allocator@D@2@@std@@@2@@std@@IAEXV?$_Vector_iterator@V?$basic_string@DU?$char_traits@D@std@@V?$allocator@D@2@@std@@V?$allocator@V?$basic_string@DU?$char_traits@D@std@@V?$allocator@D@2@@std@@@2@@2@IABV?$basic_string@DU?$char_traits@D@std@@V?$allocator@D@2@@2@@Z 1002fe50 f i JsonHelper.obj
 0001:0002f180       ?insert@?$_Tree@V?$_Tmap_traits@HUJsonLastError@@U?$less@H@std@@V?$allocator@U?$pair@$$CBHUJsonLastError@@@std@@@3@$0A@@std@@@std@@QAE?AU?$pair@Viterator@?$_Tree@V?$_Tmap_traits@HUJsonLastError@@U?$less@H@std@@V?$allocator@U?$pair@$$CBHUJsonLastError@@@std@@@3@$0A@@std@@@std@@_N@2@ABU?$pair@$$CBHUJsonLastError@@@2@@Z 10030180 f i JsonHelper.obj
 0001:0002f230       ?erase@?$_Tree@V?$_Tmap_traits@HUJsonLastError@@U?$less@H@std@@V?$allocator@U?$pair@$$CBHUJsonLastError@@@std@@@3@$0A@@std@@@std@@QAE?AViterator@12@V312@0@Z 10030230 f i JsonHelper.obj
 0001:0002f2f0       ?_Insert@?$_Tree@V?$_Tmap_traits@HUJsonLastError@@U?$less@H@std@@V?$allocator@U?$pair@$$CBHUJsonLastError@@@std@@@3@$0A@@std@@@std@@IAE?AViterator@12@_NPAU_Node@?$_Tree_nod@V?$_Tmap_traits@HUJsonLastError@@U?$less@H@std@@V?$allocator@U?$pair@$$CBHUJsonLastError@@@std@@@3@$0A@@std@@@2@ABU?$pair@$$CBHUJsonLastError@@@2@@Z 100302f0 f i JsonHelper.obj
 0001:0002f520       ?erase@?$_Tree@V?$_Tmap_traits@HUJsonLastError@@U?$less@H@std@@V?$allocator@U?$pair@$$CBHUJsonLastError@@@std@@@3@$0A@@std@@@std@@QAE?AViterator@12@V312@@Z 10030520 f i JsonHelper.obj
 0001:0002f810       ?clear@?$_Tree@V?$_Tmap_traits@HUJsonLastError@@U?$less@H@std@@V?$allocator@U?$pair@$$CBHUJsonLastError@@@std@@@3@$0A@@std@@@std@@QAEXXZ 10030810 f i JsonHelper.obj
 0001:0002f850       ?_Lrotate@?$_Tree@V?$_Tmap_traits@HUJsonLastError@@U?$less@H@std@@V?$allocator@U?$pair@$$CBHUJsonLastError@@@std@@@3@$0A@@std@@@std@@IAEXPAU_Node@?$_Tree_nod@V?$_Tmap_traits@HUJsonLastError@@U?$less@H@std@@V?$allocator@U?$pair@$$CBHUJsonLastError@@@std@@@3@$0A@@std@@@2@@Z 10030850 f i JsonHelper.obj
 0001:0002f8a0       ?_Rrotate@?$_Tree@V?$_Tmap_traits@HUJsonLastError@@U?$less@H@std@@V?$allocator@U?$pair@$$CBHUJsonLastError@@@std@@@3@$0A@@std@@@std@@IAEXPAU_Node@?$_Tree_nod@V?$_Tmap_traits@HUJsonLastError@@U?$less@H@std@@V?$allocator@U?$pair@$$CBHUJsonLastError@@@std@@@3@$0A@@std@@@2@@Z 100308a0 f i JsonHelper.obj
 0001:0002f8f0       ?_Buynode@?$_Tree@V?$_Tmap_traits@HUJsonLastError@@U?$less@H@std@@V?$allocator@U?$pair@$$CBHUJsonLastError@@@std@@@3@$0A@@std@@@std@@IAEPAU_Node@?$_Tree_nod@V?$_Tmap_traits@HUJsonLastError@@U?$less@H@std@@V?$allocator@U?$pair@$$CBHUJsonLastError@@@std@@@3@$0A@@std@@@2@PAU342@00ABU?$pair@$$CBHUJsonLastError@@@2@D@Z 100308f0 f i JsonHelper.obj
 0001:0002f9b0       ??0?$_String_const_iterator@DU?$char_traits@D@std@@V?$allocator@D@2@@std@@QAE@PBDPBU_Container_base@1@@Z 100309b0 f i JsonHelper.obj
 0001:0002fa10       ?_Erase@?$_Tree@V?$_Tmap_traits@HUJsonLastError@@U?$less@H@std@@V?$allocator@U?$pair@$$CBHUJsonLastError@@@std@@@3@$0A@@std@@@std@@IAEXPAU_Node@?$_Tree_nod@V?$_Tmap_traits@HUJsonLastError@@U?$less@H@std@@V?$allocator@U?$pair@$$CBHUJsonLastError@@@std@@@3@$0A@@std@@@2@@Z 10030a10 f i JsonHelper.obj
 0001:0002fa10       ?_Erase@?$_Tree@V?$_Tmap_traits@HV?$basic_string@DU?$char_traits@D@std@@V?$allocator@D@2@@std@@U?$less@H@2@V?$allocator@U?$pair@$$CBHV?$basic_string@DU?$char_traits@D@std@@V?$allocator@D@2@@std@@@std@@@2@$0A@@std@@@std@@IAEXPAU_Node@?$_Tree_nod@V?$_Tmap_traits@HV?$basic_string@DU?$char_traits@D@std@@V?$allocator@D@2@@std@@U?$less@H@2@V?$allocator@U?$pair@$$CBHV?$basic_string@DU?$char_traits@D@std@@V?$allocator@D@2@@std@@@std@@@2@$0A@@std@@@2@@Z 10030a10 f i ThreadDevice.obj
 0001:0002fa70       ?_Inc@const_iterator@?$_Tree@V?$_Tmap_traits@HV?$basic_string@DU?$char_traits@D@std@@V?$allocator@D@2@@std@@U?$less@H@2@V?$allocator@U?$pair@$$CBHV?$basic_string@DU?$char_traits@D@std@@V?$allocator@D@2@@std@@@std@@@2@$0A@@std@@@std@@QAEXXZ 10030a70 f i ThreadDevice.obj
 0001:0002fa70       ?_Inc@const_iterator@?$_Tree@V?$_Tmap_traits@HUJsonLastError@@U?$less@H@std@@V?$allocator@U?$pair@$$CBHUJsonLastError@@@std@@@3@$0A@@std@@@std@@QAEXXZ 10030a70 f i JsonHelper.obj
 0001:0002fae0       ??$use_facet@V?$codecvt@DDH@std@@@std@@YAABV?$codecvt@DDH@0@ABVlocale@0@@Z 10030ae0 f i JsonHelper.obj
 0001:0002fc10       ??$_Umove@PAV?$basic_string@DU?$char_traits@D@std@@V?$allocator@D@2@@std@@@?$vector@V?$basic_string@DU?$char_traits@D@std@@V?$allocator@D@2@@std@@V?$allocator@V?$basic_string@DU?$char_traits@D@std@@V?$allocator@D@2@@std@@@2@@std@@IAEPAV?$basic_string@DU?$char_traits@D@std@@V?$allocator@D@2@@1@PAV21@00@Z 10030c10 f i JsonHelper.obj
 0001:0002fc40       ??$fill@PAV?$basic_string@DU?$char_traits@D@std@@V?$allocator@D@2@@std@@V12@@std@@YAXPAV?$basic_string@DU?$char_traits@D@std@@V?$allocator@D@2@@0@0ABV10@@Z 10030c40 f i JsonHelper.obj
 0001:0002fc60       ??$_Unchecked_move_backward@PAV?$basic_string@DU?$char_traits@D@std@@V?$allocator@D@2@@std@@PAV12@@stdext@@YAPAV?$basic_string@DU?$char_traits@D@std@@V?$allocator@D@2@@std@@PAV12@00@Z 10030c60 f i JsonHelper.obj
 0001:0002fcb0       ?_Getcat@?$codecvt@DDH@std@@SAIPAPBVfacet@locale@2@@Z 10030cb0 f i JsonHelper.obj
 0001:0002fd20       ??0?$codecvt@DDH@std@@QAE@I@Z 10030d20 f i JsonHelper.obj
 0001:0002fdc0       ??$_Uninit_fill_n@PAV?$basic_string@DU?$char_traits@D@std@@V?$allocator@D@2@@std@@IV12@V?$allocator@V?$basic_string@DU?$char_traits@D@std@@V?$allocator@D@2@@std@@@2@@std@@YAXPAV?$basic_string@DU?$char_traits@D@std@@V?$allocator@D@2@@0@IABV10@AAV?$allocator@V?$basic_string@DU?$char_traits@D@std@@V?$allocator@D@2@@std@@@0@U_Nonscalar_ptr_iterator_tag@0@U_Range_checked_iterator_tag@0@@Z 10030dc0 f i JsonHelper.obj
 0001:0002fe70       ??D?$istreambuf_iterator@DU?$char_traits@D@std@@@std@@QBEDXZ 10030e70 f i JsonHelper.obj
 0001:0002fe90       ?_Inc@?$istreambuf_iterator@DU?$char_traits@D@std@@@std@@AAEXXZ 10030e90 f i JsonHelper.obj
 0001:0002fee0       ?_Peek@?$istreambuf_iterator@DU?$char_traits@D@std@@@std@@AAEDXZ 10030ee0 f i JsonHelper.obj
 0001:0002ff30       ??$_Uninit_move@PAV?$basic_string@DU?$char_traits@D@std@@V?$allocator@D@2@@std@@PAV12@V?$allocator@V?$basic_string@DU?$char_traits@D@std@@V?$allocator@D@2@@std@@@2@@std@@YAPAV?$basic_string@DU?$char_traits@D@std@@V?$allocator@D@2@@0@PAV10@00AAV?$allocator@V?$basic_string@DU?$char_traits@D@std@@V?$allocator@D@2@@std@@@0@U_Swap_move_tag@0@U_Range_checked_iterator_tag@0@@Z 10030f30 f i JsonHelper.obj
 0001:00030070       ??$_Move_backward_opt@PAV?$basic_string@DU?$char_traits@D@std@@V?$allocator@D@2@@std@@PAV12@Uforward_iterator_tag@2@@std@@YAPAV?$basic_string@DU?$char_traits@D@std@@V?$allocator@D@2@@0@PAV10@00Uforward_iterator_tag@0@U_Swap_move_tag@0@U_Range_checked_iterator_tag@0@@Z 10031070 f i JsonHelper.obj
 0001:00030100       ?equal@?$istreambuf_iterator@DU?$char_traits@D@std@@@std@@QBE_NABV12@@Z 10031100 f i JsonHelper.obj
 0001:00030150       ?FormatSendData2Json@CJsonNFCOperate@@UAE?AV?$CStringT@DV?$StrTraitMFC@DV?$ChTraitsCRT@D@ATL@@@@@ATL@@PBVCDVJsonNFCSignIn@@@Z 10031150 f   JsonNFCOperate.obj
 0001:00030520       ?FormatResponseResult2Class@CJsonNFCOperate@@UAEPAVCDVJsonBase@@ABV?$CStringT@DV?$StrTraitMFC@DV?$ChTraitsCRT@D@ATL@@@@@ATL@@ABH@Z 10031520 f   JsonNFCOperate.obj
 0001:00030910       ??0CJsonParamOperate@@QAE@XZ 10031910 f   JsonParamOperate.obj
 0001:00030930       ??1CJsonParamOperate@@QAE@XZ 10031930 f   JsonParamOperate.obj
 0001:00030960       ?FormatParamData2Json@CJsonParamOperate@@UAE?AV?$CStringT@DV?$StrTraitMFC@DV?$ChTraitsCRT@D@ATL@@@@@ATL@@PBVCDVJsonParamDebitResult@@@Z 10031960 f   JsonParamOperate.obj
 0001:00031140       ?FormatParamData2Json@CJsonParamOperate@@UAE?AV?$CStringT@DV?$StrTraitMFC@DV?$ChTraitsCRT@D@ATL@@@@@ATL@@PBVCDVJsonParamAccount@@@Z 10032140 f   JsonParamOperate.obj
 0001:000313f0       ?FormatResponseResult2Class@CJsonParamOperate@@UAEPAVCDVJsonBase@@ABV?$CStringT@DV?$StrTraitMFC@DV?$ChTraitsCRT@D@ATL@@@@@ATL@@ABH@Z 100323f0 f   JsonParamOperate.obj
 0001:00033350       ?Add@?$CArray@U_tagMMIItemGraph@@AAU1@@@QAEHAAU_tagMMIItemGraph@@@Z 10034350 f i JsonParamOperate.obj
 0001:00033350       ?Add@?$CArray@U_tagMMIItemVoice@@AAU1@@@QAEHAAU_tagMMIItemVoice@@@Z 10034350 f i JsonParamOperate.obj
 0001:00033390       ??0LogFileFilter@@QAE@ABV?$set@V?$basic_string@DU?$char_traits@D@std@@V?$allocator@D@2@@std@@U?$less@V?$basic_string@DU?$char_traits@D@std@@V?$allocator@D@2@@std@@@2@V?$allocator@V?$basic_string@DU?$char_traits@D@std@@V?$allocator@D@2@@std@@@2@@std@@ABV?$basic_string@DU?$char_traits@D@std@@V?$allocator@D@2@@2@1@Z 10034390 f i LogFileExplorer.obj
 0001:00033450       ??RLogFileFilter@@QAE_NABV?$basic_string@DU?$char_traits@D@std@@V?$allocator@D@2@@std@@@Z 10034450 f i LogFileExplorer.obj
 0001:000335a0       ??1?$set@V?$basic_string@DU?$char_traits@D@std@@V?$allocator@D@2@@std@@U?$less@V?$basic_string@DU?$char_traits@D@std@@V?$allocator@D@2@@std@@@2@V?$allocator@V?$basic_string@DU?$char_traits@D@std@@V?$allocator@D@2@@std@@@2@@std@@QAE@XZ 100345a0 f i LogFileExplorer.obj
 0001:000335b0       ??0LogFileExplorer@@QAE@XZ 100345b0 f   LogFileExplorer.obj
 0001:00033720       ??1LogFileExplorer@@QAE@XZ 10034720 f   LogFileExplorer.obj
 0001:00033780       ?RefreshFileView@LogFileExplorer@@QAEXXZ 10034780 f   LogFileExplorer.obj
 0001:00033830       ?ZipTargetFiles@LogFileExplorer@@QAE?AV?$basic_string@DU?$char_traits@D@std@@V?$allocator@D@2@@std@@ABV?$set@V?$basic_string@DU?$char_traits@D@std@@V?$allocator@D@2@@std@@U?$less@V?$basic_string@DU?$char_traits@D@std@@V?$allocator@D@2@@std@@@2@V?$allocator@V?$basic_string@DU?$char_traits@D@std@@V?$allocator@D@2@@std@@@2@@3@ABV23@11@Z 10034830 f   LogFileExplorer.obj
 0001:00033e10       ??1LogFileFilter@@QAE@XZ   10034e10 f i LogFileExplorer.obj
 0001:00033e60       ??0LogFileFilter@@QAE@ABU0@@Z 10034e60 f i LogFileExplorer.obj
 0001:00033ef0       ?SplitLogField@@YAXABV?$basic_string@DU?$char_traits@D@std@@V?$allocator@D@2@@std@@AAV12@1@Z 10034ef0 f   LogFileExplorer.obj
 0001:00034080       ?isAllNumber@@YA_NABV?$basic_string@DU?$char_traits@D@std@@V?$allocator@D@2@@std@@@Z 10035080 f   LogFileExplorer.obj
 0001:00034200       ??0?$_Tree@V?$_Tset_traits@V?$basic_string@DU?$char_traits@D@std@@V?$allocator@D@2@@std@@U?$less@V?$basic_string@DU?$char_traits@D@std@@V?$allocator@D@2@@std@@@2@V?$allocator@V?$basic_string@DU?$char_traits@D@std@@V?$allocator@D@2@@std@@@2@$0A@@std@@@std@@QAE@ABV01@@Z 10035200 f i LogFileExplorer.obj
 0001:00034290       ??4?$_Tree@V?$_Tset_traits@V?$basic_string@DU?$char_traits@D@std@@V?$allocator@D@2@@std@@U?$less@V?$basic_string@DU?$char_traits@D@std@@V?$allocator@D@2@@std@@@2@V?$allocator@V?$basic_string@DU?$char_traits@D@std@@V?$allocator@D@2@@std@@@2@$0A@@std@@@std@@QAEAAV01@ABV01@@Z 10035290 f i LogFileExplorer.obj
 0001:000342d0       ?count@?$_Tree@V?$_Tset_traits@V?$basic_string@DU?$char_traits@D@std@@V?$allocator@D@2@@std@@U?$less@V?$basic_string@DU?$char_traits@D@std@@V?$allocator@D@2@@std@@@2@V?$allocator@V?$basic_string@DU?$char_traits@D@std@@V?$allocator@D@2@@std@@@2@$0A@@std@@@std@@QBEIABV?$basic_string@DU?$char_traits@D@std@@V?$allocator@D@2@@2@@Z 100352d0 f i LogFileExplorer.obj
 0001:00034330       ?erase@?$_Tree@V?$_Tset_traits@V?$basic_string@DU?$char_traits@D@std@@V?$allocator@D@2@@std@@U?$less@V?$basic_string@DU?$char_traits@D@std@@V?$allocator@D@2@@std@@@2@V?$allocator@V?$basic_string@DU?$char_traits@D@std@@V?$allocator@D@2@@std@@@2@$0A@@std@@@std@@QAE?AViterator@12@V312@0@Z 10035330 f i LogFileExplorer.obj
 0001:00034400       ?_Copy@?$_Tree@V?$_Tset_traits@V?$basic_string@DU?$char_traits@D@std@@V?$allocator@D@2@@std@@U?$less@V?$basic_string@DU?$char_traits@D@std@@V?$allocator@D@2@@std@@@2@V?$allocator@V?$basic_string@DU?$char_traits@D@std@@V?$allocator@D@2@@std@@@2@$0A@@std@@@std@@IAEXABV12@@Z 10035400 f i LogFileExplorer.obj
 0001:00034470       ?_Tidy@?$_Tree@V?$_Tset_traits@V?$basic_string@DU?$char_traits@D@std@@V?$allocator@D@2@@std@@U?$less@V?$basic_string@DU?$char_traits@D@std@@V?$allocator@D@2@@std@@@2@V?$allocator@V?$basic_string@DU?$char_traits@D@std@@V?$allocator@D@2@@std@@@2@$0A@@std@@@std@@IAEXXZ 10035470 f i LogFileExplorer.obj
 0001:000344b0       ?erase@?$_Tree@V?$_Tset_traits@V?$basic_string@DU?$char_traits@D@std@@V?$allocator@D@2@@std@@U?$less@V?$basic_string@DU?$char_traits@D@std@@V?$allocator@D@2@@std@@@2@V?$allocator@V?$basic_string@DU?$char_traits@D@std@@V?$allocator@D@2@@std@@@2@$0A@@std@@@std@@QAE?AViterator@12@V312@@Z 100354b0 f i LogFileExplorer.obj
 0001:000347a0       ?clear@?$_Tree@V?$_Tset_traits@V?$basic_string@DU?$char_traits@D@std@@V?$allocator@D@2@@std@@U?$less@V?$basic_string@DU?$char_traits@D@std@@V?$allocator@D@2@@std@@@2@V?$allocator@V?$basic_string@DU?$char_traits@D@std@@V?$allocator@D@2@@std@@@2@$0A@@std@@@std@@QAEXXZ 100357a0 f i LogFileExplorer.obj
 0001:000347d0       ?_Copy@?$_Tree@V?$_Tset_traits@V?$basic_string@DU?$char_traits@D@std@@V?$allocator@D@2@@std@@U?$less@V?$basic_string@DU?$char_traits@D@std@@V?$allocator@D@2@@std@@@2@V?$allocator@V?$basic_string@DU?$char_traits@D@std@@V?$allocator@D@2@@std@@@2@$0A@@std@@@std@@IAEPAU_Node@?$_Tree_nod@V?$_Tset_traits@V?$basic_string@DU?$char_traits@D@std@@V?$allocator@D@2@@std@@U?$less@V?$basic_string@DU?$char_traits@D@std@@V?$allocator@D@2@@std@@@2@V?$allocator@V?$basic_string@DU?$char_traits@D@std@@V?$allocator@D@2@@std@@@2@$0A@@std@@@2@PAU342@0@Z 100357d0 f i LogFileExplorer.obj
 0001:00034890       ?_Max@?$_Tree@V?$_Tset_traits@V?$basic_string@DU?$char_traits@D@std@@V?$allocator@D@2@@std@@U?$less@V?$basic_string@DU?$char_traits@D@std@@V?$allocator@D@2@@std@@@2@V?$allocator@V?$basic_string@DU?$char_traits@D@std@@V?$allocator@D@2@@std@@@2@$0A@@std@@@std@@KAPAU_Node@?$_Tree_nod@V?$_Tset_traits@V?$basic_string@DU?$char_traits@D@std@@V?$allocator@D@2@@std@@U?$less@V?$basic_string@DU?$char_traits@D@std@@V?$allocator@D@2@@std@@@2@V?$allocator@V?$basic_string@DU?$char_traits@D@std@@V?$allocator@D@2@@std@@@2@$0A@@std@@@2@PAU342@@Z 10035890 f i LogFileExplorer.obj
 0001:00034890       ?_Max@?$_Tree@V?$_Tmap_traits@VCZString@Value@Json@@V23@U?$less@VCZString@Value@Json@@@std@@V?$allocator@U?$pair@$$CBVCZString@Value@Json@@V23@@std@@@5@$0A@@std@@@std@@KAPAU_Node@?$_Tree_nod@V?$_Tmap_traits@VCZString@Value@Json@@V23@U?$less@VCZString@Value@Json@@@std@@V?$allocator@U?$pair@$$CBVCZString@Value@Json@@V23@@std@@@5@$0A@@std@@@2@PAU342@@Z 10035890 f i json_vc71_libmt:json_value.obj
 0001:000348b0       ?_Min@?$_Tree@V?$_Tset_traits@V?$basic_string@DU?$char_traits@D@std@@V?$allocator@D@2@@std@@U?$less@V?$basic_string@DU?$char_traits@D@std@@V?$allocator@D@2@@std@@@2@V?$allocator@V?$basic_string@DU?$char_traits@D@std@@V?$allocator@D@2@@std@@@2@$0A@@std@@@std@@KAPAU_Node@?$_Tree_nod@V?$_Tset_traits@V?$basic_string@DU?$char_traits@D@std@@V?$allocator@D@2@@std@@U?$less@V?$basic_string@DU?$char_traits@D@std@@V?$allocator@D@2@@std@@@2@V?$allocator@V?$basic_string@DU?$char_traits@D@std@@V?$allocator@D@2@@std@@@2@$0A@@std@@@2@PAU342@@Z 100358b0 f i LogFileExplorer.obj
 0001:000348b0       ?_Min@?$_Tree@V?$_Tmap_traits@VCZString@Value@Json@@V23@U?$less@VCZString@Value@Json@@@std@@V?$allocator@U?$pair@$$CBVCZString@Value@Json@@V23@@std@@@5@$0A@@std@@@std@@KAPAU_Node@?$_Tree_nod@V?$_Tmap_traits@VCZString@Value@Json@@V23@U?$less@VCZString@Value@Json@@@std@@V?$allocator@U?$pair@$$CBVCZString@Value@Json@@V23@@std@@@5@$0A@@std@@@2@PAU342@@Z 100358b0 f i json_vc71_libmt:json_value.obj
 0001:000348d0       ?_Buynode@?$_Tree@V?$_Tset_traits@V?$basic_string@DU?$char_traits@D@std@@V?$allocator@D@2@@std@@U?$less@V?$basic_string@DU?$char_traits@D@std@@V?$allocator@D@2@@std@@@2@V?$allocator@V?$basic_string@DU?$char_traits@D@std@@V?$allocator@D@2@@std@@@2@$0A@@std@@@std@@IAEPAU_Node@?$_Tree_nod@V?$_Tset_traits@V?$basic_string@DU?$char_traits@D@std@@V?$allocator@D@2@@std@@U?$less@V?$basic_string@DU?$char_traits@D@std@@V?$allocator@D@2@@std@@@2@V?$allocator@V?$basic_string@DU?$char_traits@D@std@@V?$allocator@D@2@@std@@@2@$0A@@std@@@2@XZ 100358d0 f i LogFileExplorer.obj
 0001:00034910       ?_Erase@?$_Tree@V?$_Tset_traits@V?$basic_string@DU?$char_traits@D@std@@V?$allocator@D@2@@std@@U?$less@V?$basic_string@DU?$char_traits@D@std@@V?$allocator@D@2@@std@@@2@V?$allocator@V?$basic_string@DU?$char_traits@D@std@@V?$allocator@D@2@@std@@@2@$0A@@std@@@std@@IAEXPAU_Node@?$_Tree_nod@V?$_Tset_traits@V?$basic_string@DU?$char_traits@D@std@@V?$allocator@D@2@@std@@U?$less@V?$basic_string@DU?$char_traits@D@std@@V?$allocator@D@2@@std@@@2@V?$allocator@V?$basic_string@DU?$char_traits@D@std@@V?$allocator@D@2@@std@@@2@$0A@@std@@@2@@Z 10035910 f i LogFileExplorer.obj
 0001:00034970       ?_Lbound@?$_Tree@V?$_Tset_traits@V?$basic_string@DU?$char_traits@D@std@@V?$allocator@D@2@@std@@U?$less@V?$basic_string@DU?$char_traits@D@std@@V?$allocator@D@2@@std@@@2@V?$allocator@V?$basic_string@DU?$char_traits@D@std@@V?$allocator@D@2@@std@@@2@$0A@@std@@@std@@IBEPAU_Node@?$_Tree_nod@V?$_Tset_traits@V?$basic_string@DU?$char_traits@D@std@@V?$allocator@D@2@@std@@U?$less@V?$basic_string@DU?$char_traits@D@std@@V?$allocator@D@2@@std@@@2@V?$allocator@V?$basic_string@DU?$char_traits@D@std@@V?$allocator@D@2@@std@@@2@$0A@@std@@@2@ABV?$basic_string@DU?$char_traits@D@std@@V?$allocator@D@2@@2@@Z 10035970 f i LogFileExplorer.obj
 0001:00034a00       ?_Lrotate@?$_Tree@V?$_Tmap_traits@VCZString@Value@Json@@V23@U?$less@VCZString@Value@Json@@@std@@V?$allocator@U?$pair@$$CBVCZString@Value@Json@@V23@@std@@@5@$0A@@std@@@std@@IAEXPAU_Node@?$_Tree_nod@V?$_Tmap_traits@VCZString@Value@Json@@V23@U?$less@VCZString@Value@Json@@@std@@V?$allocator@U?$pair@$$CBVCZString@Value@Json@@V23@@std@@@5@$0A@@std@@@2@@Z 10035a00 f i json_vc71_libmt:json_value.obj
 0001:00034a00       ?_Lrotate@?$_Tree@V?$_Tset_traits@V?$basic_string@DU?$char_traits@D@std@@V?$allocator@D@2@@std@@U?$less@V?$basic_string@DU?$char_traits@D@std@@V?$allocator@D@2@@std@@@2@V?$allocator@V?$basic_string@DU?$char_traits@D@std@@V?$allocator@D@2@@std@@@2@$0A@@std@@@std@@IAEXPAU_Node@?$_Tree_nod@V?$_Tset_traits@V?$basic_string@DU?$char_traits@D@std@@V?$allocator@D@2@@std@@U?$less@V?$basic_string@DU?$char_traits@D@std@@V?$allocator@D@2@@std@@@2@V?$allocator@V?$basic_string@DU?$char_traits@D@std@@V?$allocator@D@2@@std@@@2@$0A@@std@@@2@@Z 10035a00 f i LogFileExplorer.obj
 0001:00034a50       ?_Ubound@?$_Tree@V?$_Tset_traits@V?$basic_string@DU?$char_traits@D@std@@V?$allocator@D@2@@std@@U?$less@V?$basic_string@DU?$char_traits@D@std@@V?$allocator@D@2@@std@@@2@V?$allocator@V?$basic_string@DU?$char_traits@D@std@@V?$allocator@D@2@@std@@@2@$0A@@std@@@std@@IBEPAU_Node@?$_Tree_nod@V?$_Tset_traits@V?$basic_string@DU?$char_traits@D@std@@V?$allocator@D@2@@std@@U?$less@V?$basic_string@DU?$char_traits@D@std@@V?$allocator@D@2@@std@@@2@V?$allocator@V?$basic_string@DU?$char_traits@D@std@@V?$allocator@D@2@@std@@@2@$0A@@std@@@2@ABV?$basic_string@DU?$char_traits@D@std@@V?$allocator@D@2@@2@@Z 10035a50 f i LogFileExplorer.obj
 0001:00034af0       ?_Buynode@?$_Tree@V?$_Tset_traits@V?$basic_string@DU?$char_traits@D@std@@V?$allocator@D@2@@std@@U?$less@V?$basic_string@DU?$char_traits@D@std@@V?$allocator@D@2@@std@@@2@V?$allocator@V?$basic_string@DU?$char_traits@D@std@@V?$allocator@D@2@@std@@@2@$0A@@std@@@std@@IAEPAU_Node@?$_Tree_nod@V?$_Tset_traits@V?$basic_string@DU?$char_traits@D@std@@V?$allocator@D@2@@std@@U?$less@V?$basic_string@DU?$char_traits@D@std@@V?$allocator@D@2@@std@@@2@V?$allocator@V?$basic_string@DU?$char_traits@D@std@@V?$allocator@D@2@@std@@@2@$0A@@std@@@2@PAU342@00ABV?$basic_string@DU?$char_traits@D@std@@V?$allocator@D@2@@2@D@Z 10035af0 f i LogFileExplorer.obj
 0001:00034ba0       ??$remove_copy_if@V?$_Iterator@$00@?$list@V?$basic_string@DU?$char_traits@D@std@@V?$allocator@D@2@@std@@V?$allocator@V?$basic_string@DU?$char_traits@D@std@@V?$allocator@D@2@@std@@@2@@std@@V?$back_insert_iterator@V?$list@V?$basic_string@DU?$char_traits@D@std@@V?$allocator@D@2@@std@@V?$allocator@V?$basic_string@DU?$char_traits@D@std@@V?$allocator@D@2@@std@@@2@@std@@@3@ULogFileFilter@@@std@@YA?AV?$back_insert_iterator@V?$list@V?$basic_string@DU?$char_traits@D@std@@V?$allocator@D@2@@std@@V?$allocator@V?$basic_string@DU?$char_traits@D@std@@V?$allocator@D@2@@std@@@2@@std@@@0@V?$_Iterator@$00@?$list@V?$basic_string@DU?$char_traits@D@std@@V?$allocator@D@2@@std@@V?$allocator@V?$basic_string@DU?$char_traits@D@std@@V?$allocator@D@2@@std@@@2@@0@0V10@ULogFileFilter@@@Z 10035ba0 f i LogFileExplorer.obj
 0001:00034c90       ??$_Remove_copy_if@V?$_Iterator@$0A@@?$list@V?$basic_string@DU?$char_traits@D@std@@V?$allocator@D@2@@std@@V?$allocator@V?$basic_string@DU?$char_traits@D@std@@V?$allocator@D@2@@std@@@2@@std@@V?$back_insert_iterator@V?$list@V?$basic_string@DU?$char_traits@D@std@@V?$allocator@D@2@@std@@V?$allocator@V?$basic_string@DU?$char_traits@D@std@@V?$allocator@D@2@@std@@@2@@std@@@3@ULogFileFilter@@@std@@YA?AV?$back_insert_iterator@V?$list@V?$basic_string@DU?$char_traits@D@std@@V?$allocator@D@2@@std@@V?$allocator@V?$basic_string@DU?$char_traits@D@std@@V?$allocator@D@2@@std@@@2@@std@@@0@V?$_Iterator@$0A@@?$list@V?$basic_string@DU?$char_traits@D@std@@V?$allocator@D@2@@std@@V?$allocator@V?$basic_string@DU?$char_traits@D@std@@V?$allocator@D@2@@std@@@2@@0@0V10@ULogFileFilter@@U_Range_checked_iterator_tag@0@@Z 10035c90 f i LogFileExplorer.obj
 0001:00034d80       ??1FilePieceAdapter@@QAE@XZ 10035d80 f i LogUploader.obj
 0001:00034da0       ??5@YAAAV?$basic_istream@DU?$char_traits@D@std@@@std@@AAV01@AAVFilePieceAdapter@@@Z 10035da0 f i LogUploader.obj
 0001:00034f90       ??0LogUploader@@QAE@XZ     10035f90 f   LogUploader.obj
 0001:00035060       ??0LaneCodePara@@QAE@XZ    10036060 f i LogUploader.obj
 0001:000350e0       ??1LaneCodePara@@QAE@XZ    100360e0 f i LogUploader.obj
 0001:00035200       ??1LogUploader@@QAE@XZ     10036200 f   LogUploader.obj
 0001:00035320       ?SetLaneCodeInfo@LogUploader@@QAEHABHABV?$basic_string@DU?$char_traits@D@std@@V?$allocator@D@2@@std@@111@Z 10036320 f   LogUploader.obj
 0001:00035380       ?UploadLog@LogUploader@@QAEXABV?$basic_string@DU?$char_traits@D@std@@V?$allocator@D@2@@std@@@Z 10036380 f   LogUploader.obj
 0001:00035400       ?AskCmdId@LogUploader@@AAEXXZ 10036400 f   LogUploader.obj
 0001:00035920       ?ParseTargetCmdId@LogUploader@@AAEXV?$basic_string@DU?$char_traits@D@std@@V?$allocator@D@2@@std@@@Z 10036920 f   LogUploader.obj
 0001:00035b10       ??1?$pair@V?$basic_string@DU?$char_traits@D@std@@V?$allocator@D@2@@std@@ULogCmdDetail@@@std@@QAE@XZ 10036b10 f i LogUploader.obj
 0001:00035b80       ??1LogCmdDetail@@QAE@XZ    10036b80 f i LogUploader.obj
 0001:00035bf0       ??1LogCmdParam@@QAE@XZ     10036bf0 f i LogUploader.obj
 0001:00035c80       ?UploadFile@LogUploader@@AAEXU?$pair@V?$basic_string@DU?$char_traits@D@std@@V?$allocator@D@2@@std@@ULogCmdDetail@@@std@@@Z 10036c80 f   LogUploader.obj
 0001:00036520       ??1?$istream_iterator@VFilePieceAdapter@@DU?$char_traits@D@std@@H@std@@QAE@XZ 10037520 f i LogUploader.obj
 0001:00036540       ??0?$istream_iterator@VFilePieceAdapter@@DU?$char_traits@D@std@@H@std@@QAE@ABV01@@Z 10037540 f i LogUploader.obj
 0001:00036580       ?UploadFilePiece@LogUploader@@AAEXVFilePieceAdapter@@@Z 10037580 f   LogUploader.obj
 0001:00036790       ?seekg@?$basic_istream@DU?$char_traits@D@std@@@std@@QAEAAV12@JH@Z 10037790 f i LogUploader.obj
 0001:00036800       ?tellg@?$basic_istream@DU?$char_traits@D@std@@@std@@QAE?AV?$fpos@H@2@XZ 10037800 f i LogUploader.obj
 0001:00036840       ??0sentry@?$basic_istream@DU?$char_traits@D@std@@@std@@QAE@AAV12@_N@Z 10037840 f i LogUploader.obj
 0001:000368b0       ?snextc@?$basic_streambuf@DU?$char_traits@D@std@@@std@@QAEHXZ 100378b0 f i LogUploader.obj
 0001:00036930       ??1?$list@U?$pair@V?$basic_string@DU?$char_traits@D@std@@V?$allocator@D@2@@std@@ULogCmdDetail@@@std@@V?$allocator@U?$pair@V?$basic_string@DU?$char_traits@D@std@@V?$allocator@D@2@@std@@ULogCmdDetail@@@std@@@2@@std@@QAE@XZ 10037930 f i LogUploader.obj
 0001:00036950       ?push_back@?$list@U?$pair@V?$basic_string@DU?$char_traits@D@std@@V?$allocator@D@2@@std@@ULogCmdDetail@@@std@@V?$allocator@U?$pair@V?$basic_string@DU?$char_traits@D@std@@V?$allocator@D@2@@std@@ULogCmdDetail@@@std@@@2@@std@@QAEXABU?$pair@V?$basic_string@DU?$char_traits@D@std@@V?$allocator@D@2@@std@@ULogCmdDetail@@@2@@Z 10037950 f i LogUploader.obj
 0001:00036980       ?clear@?$list@U?$pair@V?$basic_string@DU?$char_traits@D@std@@V?$allocator@D@2@@std@@ULogCmdDetail@@@std@@V?$allocator@U?$pair@V?$basic_string@DU?$char_traits@D@std@@V?$allocator@D@2@@std@@ULogCmdDetail@@@std@@@2@@std@@QAEXXZ 10037980 f i LogUploader.obj
 0001:000369c0       ??A?$map@KIU?$less@K@std@@V?$allocator@U?$pair@$$CBKI@std@@@2@@std@@QAEAAIABK@Z 100379c0 f i LogUploader.obj
 0001:00036a50       ??0?$istream_iterator@VFilePieceAdapter@@DU?$char_traits@D@std@@H@std@@QAE@AAV?$basic_istream@DU?$char_traits@D@std@@@1@@Z 10037a50 f i LogUploader.obj
 0001:00036ae0       ?_Ipfx@?$basic_istream@DU?$char_traits@D@std@@@std@@QAE_N_N@Z 10037ae0 f i LogUploader.obj
 0001:00036b70       ?_Read_s@?$basic_istream@DU?$char_traits@D@std@@@std@@QAEAAV12@PADIH@Z 10037b70 f i LogUploader.obj
 0001:00036c80       ?_Buynode@?$list@U?$pair@V?$basic_string@DU?$char_traits@D@std@@V?$allocator@D@2@@std@@ULogCmdDetail@@@std@@V?$allocator@U?$pair@V?$basic_string@DU?$char_traits@D@std@@V?$allocator@D@2@@std@@ULogCmdDetail@@@std@@@2@@std@@IAEPAU_Node@?$_List_nod@U?$pair@V?$basic_string@DU?$char_traits@D@std@@V?$allocator@D@2@@std@@ULogCmdDetail@@@std@@V?$allocator@U?$pair@V?$basic_string@DU?$char_traits@D@std@@V?$allocator@D@2@@std@@ULogCmdDetail@@@std@@@2@@2@XZ 10037c80 f i LogUploader.obj
 0001:00036ca0       ?insert@?$_Tree@V?$_Tmap_traits@KIU?$less@K@std@@V?$allocator@U?$pair@$$CBKI@std@@@2@$0A@@std@@@std@@QAE?AViterator@12@V312@ABU?$pair@$$CBKI@2@@Z 10037ca0 f i LogUploader.obj
 0001:00036e70       ?lower_bound@?$_Tree@V?$_Tmap_traits@KIU?$less@K@std@@V?$allocator@U?$pair@$$CBKI@std@@@2@$0A@@std@@@std@@QAE?AViterator@12@ABK@Z 10037e70 f i LogUploader.obj
 0001:00036eb0       ?_Buynode@?$list@U?$pair@V?$basic_string@DU?$char_traits@D@std@@V?$allocator@D@2@@std@@ULogCmdDetail@@@std@@V?$allocator@U?$pair@V?$basic_string@DU?$char_traits@D@std@@V?$allocator@D@2@@std@@ULogCmdDetail@@@std@@@2@@std@@IAEPAU_Node@?$_List_nod@U?$pair@V?$basic_string@DU?$char_traits@D@std@@V?$allocator@D@2@@std@@ULogCmdDetail@@@std@@V?$allocator@U?$pair@V?$basic_string@DU?$char_traits@D@std@@V?$allocator@D@2@@std@@ULogCmdDetail@@@std@@@2@@2@PAU342@0ABU?$pair@V?$basic_string@DU?$char_traits@D@std@@V?$allocator@D@2@@std@@ULogCmdDetail@@@2@@Z 10037eb0 f i LogUploader.obj
 0001:00036f50       ?_Incsize@?$list@U?$pair@V?$basic_string@DU?$char_traits@D@std@@V?$allocator@D@2@@std@@ULogCmdDetail@@@std@@V?$allocator@U?$pair@V?$basic_string@DU?$char_traits@D@std@@V?$allocator@D@2@@std@@ULogCmdDetail@@@std@@@2@@std@@IAEXI@Z 10037f50 f i LogUploader.obj
 0001:00036ff0       ?insert@?$_Tree@V?$_Tmap_traits@KIU?$less@K@std@@V?$allocator@U?$pair@$$CBKI@std@@@2@$0A@@std@@@std@@QAE?AU?$pair@Viterator@?$_Tree@V?$_Tmap_traits@KIU?$less@K@std@@V?$allocator@U?$pair@$$CBKI@std@@@2@$0A@@std@@@std@@_N@2@ABU?$pair@$$CBKI@2@@Z 10037ff0 f i LogUploader.obj
 0001:000370b0       ?erase@?$_Tree@V?$_Tmap_traits@KIU?$less@K@std@@V?$allocator@U?$pair@$$CBKI@std@@@2@$0A@@std@@@std@@QAE?AViterator@12@V312@0@Z 100380b0 f i LogUploader.obj
 0001:00037170       ?_Insert@?$_Tree@V?$_Tmap_traits@KIU?$less@K@std@@V?$allocator@U?$pair@$$CBKI@std@@@2@$0A@@std@@@std@@IAE?AViterator@12@_NPAU_Node@?$_Tree_nod@V?$_Tmap_traits@KIU?$less@K@std@@V?$allocator@U?$pair@$$CBKI@std@@@2@$0A@@std@@@2@ABU?$pair@$$CBKI@2@@Z 10038170 f i LogUploader.obj
 0001:00037390       ?erase@?$_Tree@V?$_Tmap_traits@KIU?$less@K@std@@V?$allocator@U?$pair@$$CBKI@std@@@2@$0A@@std@@@std@@QAE?AViterator@12@V312@@Z 10038390 f i LogUploader.obj
 0001:00037660       ?clear@?$_Tree@V?$_Tmap_traits@KIU?$less@K@std@@V?$allocator@U?$pair@$$CBKI@std@@@2@$0A@@std@@@std@@QAEXXZ 10038660 f i LogUploader.obj
 0001:000376a0       ?_Lrotate@?$_Tree@V?$_Tmap_traits@KIU?$less@K@std@@V?$allocator@U?$pair@$$CBKI@std@@@2@$0A@@std@@@std@@IAEXPAU_Node@?$_Tree_nod@V?$_Tmap_traits@KIU?$less@K@std@@V?$allocator@U?$pair@$$CBKI@std@@@2@$0A@@std@@@2@@Z 100386a0 f i LogUploader.obj
 0001:000376f0       ?_Rrotate@?$_Tree@V?$_Tmap_traits@KIU?$less@K@std@@V?$allocator@U?$pair@$$CBKI@std@@@2@$0A@@std@@@std@@IAEXPAU_Node@?$_Tree_nod@V?$_Tmap_traits@KIU?$less@K@std@@V?$allocator@U?$pair@$$CBKI@std@@@2@$0A@@std@@@2@@Z 100386f0 f i LogUploader.obj
 0001:00037740       ?_Buynode@?$_Tree@V?$_Tmap_traits@KIU?$less@K@std@@V?$allocator@U?$pair@$$CBKI@std@@@2@$0A@@std@@@std@@IAEPAU_Node@?$_Tree_nod@V?$_Tmap_traits@KIU?$less@K@std@@V?$allocator@U?$pair@$$CBKI@std@@@2@$0A@@std@@@2@PAU342@00ABU?$pair@$$CBKI@2@D@Z 10038740 f i LogUploader.obj
 0001:00037780       ?_Max@?$_Tree@V?$_Tmap_traits@KIU?$less@K@std@@V?$allocator@U?$pair@$$CBKI@std@@@2@$0A@@std@@@std@@KAPAU_Node@?$_Tree_nod@V?$_Tmap_traits@KIU?$less@K@std@@V?$allocator@U?$pair@$$CBKI@std@@@2@$0A@@std@@@2@PAU342@@Z 10038780 f i LogUploader.obj
 0001:00037780       ?_Max@?$_Tree@V?$_Tmap_traits@HHU?$less@H@std@@V?$allocator@U?$pair@$$CBHH@std@@@2@$0A@@std@@@std@@KAPAU_Node@?$_Tree_nod@V?$_Tmap_traits@HHU?$less@H@std@@V?$allocator@U?$pair@$$CBHH@std@@@2@$0A@@std@@@2@PAU342@@Z 10038780 f i PayHelper.obj
 0001:000377a0       ?_Dec@const_iterator@?$_Tree@V?$_Tmap_traits@HHU?$less@H@std@@V?$allocator@U?$pair@$$CBHH@std@@@2@$0A@@std@@@std@@QAEXXZ 100387a0 f i PayHelper.obj
 0001:000377a0       ?_Dec@const_iterator@?$_Tree@V?$_Tmap_traits@KIU?$less@K@std@@V?$allocator@U?$pair@$$CBKI@std@@@2@$0A@@std@@@std@@QAEXXZ 100387a0 f i LogUploader.obj
 0001:00037820       ?_Inc@const_iterator@?$_Tree@V?$_Tmap_traits@KIU?$less@K@std@@V?$allocator@U?$pair@$$CBKI@std@@@2@$0A@@std@@@std@@QAEXXZ 10038820 f i LogUploader.obj
 0001:00037820       ?_Inc@const_iterator@?$_Tree@V?$_Tmap_traits@PAUlws@@PAXU?$less@PAUlws@@@std@@V?$allocator@U?$pair@QAUlws@@PAX@std@@@3@$0A@@std@@@std@@QAEXXZ 10038820 f i WebSocketBase.obj
 0001:00037820       ?_Inc@const_iterator@?$_Tree@V?$_Tmap_traits@HHU?$less@H@std@@V?$allocator@U?$pair@$$CBHH@std@@@2@$0A@@std@@@std@@QAEXXZ 10038820 f i PayHelper.obj
 0001:00037890       ??$copy@V?$_Vector_iterator@V?$basic_string@DU?$char_traits@D@std@@V?$allocator@D@2@@std@@V?$allocator@V?$basic_string@DU?$char_traits@D@std@@V?$allocator@D@2@@std@@@2@@std@@V?$back_insert_iterator@V?$list@V?$basic_string@DU?$char_traits@D@std@@V?$allocator@D@2@@std@@V?$allocator@V?$basic_string@DU?$char_traits@D@std@@V?$allocator@D@2@@std@@@2@@std@@@2@@std@@YA?AV?$back_insert_iterator@V?$list@V?$basic_string@DU?$char_traits@D@std@@V?$allocator@D@2@@std@@V?$allocator@V?$basic_string@DU?$char_traits@D@std@@V?$allocator@D@2@@std@@@2@@std@@@0@V?$_Vector_iterator@V?$basic_string@DU?$char_traits@D@std@@V?$allocator@D@2@@std@@V?$allocator@V?$basic_string@DU?$char_traits@D@std@@V?$allocator@D@2@@std@@@2@@0@0V10@@Z 10038890 f i LogUploader.obj
 0001:000378d0       ??$for_each@V?$_Iterator@$00@?$list@V?$basic_string@DU?$char_traits@D@std@@V?$allocator@D@2@@std@@V?$allocator@V?$basic_string@DU?$char_traits@D@std@@V?$allocator@D@2@@std@@@2@@std@@V?$binder1st@V?$mem_fun1_t@XVLogUploader@@V?$basic_string@DU?$char_traits@D@std@@V?$allocator@D@2@@std@@@std@@@3@@std@@YA?AV?$binder1st@V?$mem_fun1_t@XVLogUploader@@V?$basic_string@DU?$char_traits@D@std@@V?$allocator@D@2@@std@@@std@@@0@V?$_Iterator@$00@?$list@V?$basic_string@DU?$char_traits@D@std@@V?$allocator@D@2@@std@@V?$allocator@V?$basic_string@DU?$char_traits@D@std@@V?$allocator@D@2@@std@@@2@@0@0V10@@Z 100388d0 f i LogUploader.obj
 0001:00037930       ??$for_each@V?$_Iterator@$00@?$list@U?$pair@V?$basic_string@DU?$char_traits@D@std@@V?$allocator@D@2@@std@@ULogCmdDetail@@@std@@V?$allocator@U?$pair@V?$basic_string@DU?$char_traits@D@std@@V?$allocator@D@2@@std@@ULogCmdDetail@@@std@@@2@@std@@V?$binder1st@V?$mem_fun1_t@XVLogUploader@@U?$pair@V?$basic_string@DU?$char_traits@D@std@@V?$allocator@D@2@@std@@ULogCmdDetail@@@std@@@std@@@3@@std@@YA?AV?$binder1st@V?$mem_fun1_t@XVLogUploader@@U?$pair@V?$basic_string@DU?$char_traits@D@std@@V?$allocator@D@2@@std@@ULogCmdDetail@@@std@@@std@@@0@V?$_Iterator@$00@?$list@U?$pair@V?$basic_string@DU?$char_traits@D@std@@V?$allocator@D@2@@std@@ULogCmdDetail@@@std@@V?$allocator@U?$pair@V?$basic_string@DU?$char_traits@D@std@@V?$allocator@D@2@@std@@ULogCmdDetail@@@std@@@2@@0@0V10@@Z 10038930 f i LogUploader.obj
 0001:00037990       ??$for_each@V?$istream_iterator@VFilePieceAdapter@@DU?$char_traits@D@std@@H@std@@V?$binder1st@V?$mem_fun1_t@XVLogUploader@@VFilePieceAdapter@@@std@@@2@@std@@YA?AV?$binder1st@V?$mem_fun1_t@XVLogUploader@@VFilePieceAdapter@@@std@@@0@V?$istream_iterator@VFilePieceAdapter@@DU?$char_traits@D@std@@H@0@0V10@@Z 10038990 f i LogUploader.obj
 0001:00037ae0       ??$_Allocate@U_Node@?$_List_nod@U?$pair@V?$basic_string@DU?$char_traits@D@std@@V?$allocator@D@2@@std@@ULogCmdDetail@@@std@@V?$allocator@U?$pair@V?$basic_string@DU?$char_traits@D@std@@V?$allocator@D@2@@std@@ULogCmdDetail@@@std@@@2@@std@@@std@@YAPAU_Node@?$_List_nod@U?$pair@V?$basic_string@DU?$char_traits@D@std@@V?$allocator@D@2@@std@@ULogCmdDetail@@@std@@V?$allocator@U?$pair@V?$basic_string@DU?$char_traits@D@std@@V?$allocator@D@2@@std@@ULogCmdDetail@@@std@@@2@@0@IPAU120@@Z 10038ae0 f i LogUploader.obj
 0001:00037b30       ??$_Construct@U?$pair@V?$basic_string@DU?$char_traits@D@std@@V?$allocator@D@2@@std@@ULogCmdDetail@@@std@@U12@@std@@YAXPAU?$pair@V?$basic_string@DU?$char_traits@D@std@@V?$allocator@D@2@@std@@ULogCmdDetail@@@0@ABU10@@Z 10038b30 f i LogUploader.obj
 0001:00037b90       ??0?$pair@V?$basic_string@DU?$char_traits@D@std@@V?$allocator@D@2@@std@@ULogCmdDetail@@@std@@QAE@ABU01@@Z 10038b90 f i LogUploader.obj
 0001:00037c00       ??0LogCmdDetail@@QAE@ABU0@@Z 10038c00 f i LogUploader.obj
 0001:00037c70       ??0LogCmdParam@@QAE@ABU0@@Z 10038c70 f i LogUploader.obj
 0001:00037d00       ??R?$mem_fun1_t@XVLogUploader@@V?$basic_string@DU?$char_traits@D@std@@V?$allocator@D@2@@std@@@std@@QBEXPAVLogUploader@@V?$basic_string@DU?$char_traits@D@std@@V?$allocator@D@2@@1@@Z 10038d00 f i LogUploader.obj
 0001:00037d80       ??R?$mem_fun1_t@XVLogUploader@@U?$pair@V?$basic_string@DU?$char_traits@D@std@@V?$allocator@D@2@@std@@ULogCmdDetail@@@std@@@std@@QBEXPAVLogUploader@@U?$pair@V?$basic_string@DU?$char_traits@D@std@@V?$allocator@D@2@@std@@ULogCmdDetail@@@1@@Z 10038d80 f i LogUploader.obj
 0001:00037e00       ??R?$mem_fun1_t@XVLogUploader@@VFilePieceAdapter@@@std@@QBEXPAVLogUploader@@VFilePieceAdapter@@@Z 10038e00 f i LogUploader.obj
 0001:00037e90       ??$_Checked_base@V?$istream_iterator@VFilePieceAdapter@@DU?$char_traits@D@std@@H@std@@@std@@YA?AV?$istream_iterator@VFilePieceAdapter@@DU?$char_traits@D@std@@H@0@AAV10@@Z 10038e90 f i LogUploader.obj
 0001:00037eb0       ??$_Checked_base@V?$istream_iterator@VFilePieceAdapter@@DU?$char_traits@D@std@@H@std@@@std@@YA?AV?$istream_iterator@VFilePieceAdapter@@DU?$char_traits@D@std@@H@0@AAV10@U_Unchanged_checked_iterator_base_type_tag@0@@Z 10038eb0 f i LogUploader.obj
 0001:00037f00       ??0ShareMemoryController@@QAE@ABV?$basic_string@DU?$char_traits@D@std@@V?$allocator@D@2@@std@@I@Z 10038f00 f   LPRInteractive.obj
 0001:00037f80       ??1ShareMemoryController@@QAE@XZ 10038f80 f   LPRInteractive.obj
 0001:00037fb0       ?ReadString@ShareMemoryController@@QAEHAAV?$basic_string@DU?$char_traits@D@std@@V?$allocator@D@2@@std@@@Z 10038fb0 f   LPRInteractive.obj
 0001:000380d0       ??0LPRInteractive@@QAE@XZ  100390d0 f   LPRInteractive.obj
 0001:000381f0       ??1LPRInteractive@@QAE@XZ  100391f0 f   LPRInteractive.obj
 0001:00038260       ?WriteInitPara@LPRInteractive@@QAEXABULPRInitData@@@Z 10039260 f   LPRInteractive.obj
 0001:00038540       ?QueryImageIDAndTaskID@LPRInteractive@@QAE_NAAV?$basic_string@DU?$char_traits@D@std@@V?$allocator@D@2@@std@@0@Z 10039540 f   LPRInteractive.obj
 0001:000388d0       ?WritePayAbstract@LPRInteractive@@QAEXABV?$basic_string@DU?$char_traits@D@std@@V?$allocator@D@2@@std@@00H@Z 100398d0 f   LPRInteractive.obj
 0001:00038b70       ??0CMarkup@@QAE@UMCD_CSTR@@@Z 10039b70 f i Markup.obj
 0001:00038c50       ?SetAttrib@CMarkup@@QAE_NUMCD_CSTR@@0H@Z 10039c50 f i Markup.obj
 0001:00038c70       ?SetAttrib@CMarkup@@QAE_NUMCD_CSTR@@HH@Z 10039c70 f i Markup.obj
 0001:00038cc0       ?x_StrInsertReplace@@YAXAAV?$CStringT@DV?$StrTraitMFC@DV?$ChTraitsCRT@D@ATL@@@@@ATL@@HHABV12@@Z 10039cc0 f   Markup.obj
 0001:00038db0       ?x_StrNCmp@@YAHPBD0HH@Z    10039db0 f   Markup.obj
 0001:00038e60       ?x_AddResult@@YAXAAV?$CStringT@DV?$StrTraitMFC@DV?$ChTraitsCRT@D@ATL@@@@@ATL@@UMCD_CSTR@@1HHH@Z 10039e60 f   Markup.obj
 0001:00038ff0       ??0TextEncoding@@QAE@UMCD_CSTR@@PBXH@Z 10039ff0 f i Markup.obj
 0001:000390d0       ?x_GetEncodingCodePage@@YAHUMCD_CSTR@@@Z 1003a0d0 f   Markup.obj
 0001:00039290       ?CanConvert@TextEncoding@@SA_NUMCD_CSTR@@0@Z 1003a290 f   Markup.obj
 0001:000392e0       ?x_NoDefaultChar@@YA_NH@Z  1003a2e0 f   Markup.obj
 0001:00039340       ?PerformConversion@TextEncoding@@QAEHPAXUMCD_CSTR@@@Z 1003a340 f   Markup.obj
 0001:00039630       ?FindRaggedEnd@TextEncoding@@QAE_NAAH@Z 1003a630 f   Markup.obj
 0001:00039b60       ?x_EndianSwapUTF16@@YAXPAGH@Z 1003ab60 f   Markup.obj
 0001:00039b80       ?Release@ElemPosTree@@QAEXXZ 1003ab80 f i Markup.obj
 0001:00039bd0       ?CopyElemPosTree@ElemPosTree@@QAEXPAU1@H@Z 1003abd0 f   Markup.obj
 0001:00039c80       ?GrowElemPosTree@ElemPosTree@@QAEXH@Z 1003ac80 f   Markup.obj
 0001:00039dd0       ??0NodePos@@QAE@XZ         1003add0 f i Markup.obj
 0001:00039e00       ??0NodePos@@QAE@H@Z        1003ae00 f i Markup.obj
 0001:00039e50       ??0TokenPos@@QAE@UMCD_CSTR@@HPAUFilePos@@@Z 1003ae50 f i Markup.obj
 0001:00039e80       ?GetTokenText@TokenPos@@QBE?AV?$CStringT@DV?$StrTraitMFC@DV?$ChTraitsCRT@D@ATL@@@@@ATL@@XZ 1003ae80 f i Markup.obj
 0001:00039eb0       ?FindAny@TokenPos@@QAE_NXZ 1003aeb0 f i Markup.obj
 0001:00039f00       ?FindName@TokenPos@@QAE_NXZ 1003af00 f i Markup.obj
 0001:00039f70       ?Match@TokenPos@@QAE_NUMCD_CSTR@@@Z 1003af70 f i Markup.obj
 0001:00039fd0       ?FindAttrib@TokenPos@@QAE_NPBDHPAV?$CStringT@DV?$StrTraitMFC@DV?$ChTraitsCRT@D@ATL@@@@@ATL@@@Z 1003afd0 f   Markup.obj
 0001:0003a210       ??0TagPos@@QAE@XZ          1003b210 f i Markup.obj
 0001:0003a260       ?SetTagName@TagPos@@QAEXPBDH@Z 1003b260 f i Markup.obj
 0001:0003a2d0       ??0ElemStack@@QAE@XZ       1003b2d0 f i Markup.obj
 0001:0003a330       ??1ElemStack@@QAE@XZ       1003b330 f i Markup.obj
 0001:0003a360       ?Push@ElemStack@@QAEXPBDH@Z 1003b360 f i Markup.obj
 0001:0003a3b0       ?Pop@ElemStack@@QAEXXZ     1003b3b0 f i Markup.obj
 0001:0003a420       ?Alloc@ElemStack@@IAEXH@Z  1003b420 f i Markup.obj
 0001:0003a4c0       ?Copy@ElemStack@@IAEXPAUTagPos@@@Z 1003b4c0 f i Markup.obj
 0001:0003a570       ?CalcSlot@ElemStack@@SAHPBDH_N@Z 1003b570 f   Markup.obj
 0001:0003a5c0       ?PushTagAndCount@ElemStack@@QAEXAAUTokenPos@@@Z 1003b5c0 f   Markup.obj
 0001:0003a860       ?FileErrorAddResult@FilePos@@QAE_NXZ 1003b860 f   Markup.obj
 0001:0003a9f0       ?FileRead@FilePos@@QAE_NPAX@Z 1003b9f0 f   Markup.obj
 0001:0003ab60       ?FileCheckRaggedEnd@FilePos@@QAE_NPAX@Z 1003bb60 f   Markup.obj
 0001:0003ad00       ??1TextEncoding@@QAE@XZ    1003bd00 f i Markup.obj
 0001:0003ad40       ?FileReadText@FilePos@@QAE_NAAV?$CStringT@DV?$StrTraitMFC@DV?$ChTraitsCRT@D@ATL@@@@@ATL@@@Z 1003bd40 f   Markup.obj
 0001:0003b2d0       ?FileWrite@FilePos@@QAE_NPAXPBX@Z 1003c2d0 f   Markup.obj
 0001:0003b3e0       ?FileWriteText@FilePos@@QAE_NABV?$CStringT@DV?$StrTraitMFC@DV?$ChTraitsCRT@D@ATL@@@@@ATL@@H@Z 1003c3e0 f   Markup.obj
 0001:0003b640       ?FileReadNextBuffer@FilePos@@QAE_NXZ 1003c640 f   Markup.obj
 0001:0003b860       ?FileFlush@FilePos@@QAE_NAAV?$CStringT@DV?$StrTraitMFC@DV?$ChTraitsCRT@D@ATL@@@@@ATL@@H_N@Z 1003c860 f   Markup.obj
 0001:0003b9b0       ?GetNumAndInc@PathPos@@QAEHXZ 1003c9b0 f i Markup.obj
 0001:0003b9f0       ?GetValAndInc@PathPos@@QAEPBDXZ 1003c9f0 f i Markup.obj
 0001:0003ba40       ?IncWord@PathPos@@QAEXXZ   1003ca40 f i Markup.obj
 0001:0003ba90       ?IncWord@PathPos@@QAEXD@Z  1003ca90 f i Markup.obj
 0001:0003bad0       ?ParsePath@PathPos@@AAE_NXZ 1003cad0 f   Markup.obj
 0001:0003bbf0       ??0SavedPos@@QAE@XZ        1003cbf0 f i Markup.obj
 0001:0003bc30       ??1SavedPosMap@@QAE@XZ     1003cc30 f i Markup.obj
 0001:0003bc90       ??1?$CSimpleStringT@D$0A@@ATL@@QAE@XZ 1003cc90 f i AesECB.obj
 0001:0003bc90       ??1TagPos@@QAE@XZ          1003cc90 f i Markup.obj
 0001:0003bc90       ??1SavedPos@@QAE@XZ        1003cc90 f i Markup.obj
 0001:0003bc90       ??1?$CStringT@DV?$StrTraitMFC@DV?$ChTraitsCRT@D@ATL@@@@@ATL@@QAE@XZ 1003cc90 f i AesECB.obj
 0001:0003bcb0       ?ReleaseMaps@SavedPosMapArray@@QAEXXZ 1003ccb0 f i Markup.obj
 0001:0003bcf0       ?GetMap@SavedPosMapArray@@QAE_NAAPAUSavedPosMap@@HH@Z 1003ccf0 f   Markup.obj
 0001:0003be50       ?CopySavedPosMaps@SavedPosMapArray@@QAEXPAU1@@Z 1003ce50 f   Markup.obj
 0001:0003c000       ?ParseNode@TokenPos@@QAEHAAUNodePos@@@Z 1003d000 f   Markup.obj
 0001:0003c7e0       ??1CMarkup@@QAE@XZ         1003d7e0 f   Markup.obj
 0001:0003c850       ??4CMarkup@@QAEXABV0@@Z    1003d850 f   Markup.obj
 0001:0003c8d0       ?SetDoc@CMarkup@@QAE_NPBD@Z 1003d8d0 f   Markup.obj
 0001:0003c9d0       ?IsWellFormed@CMarkup@@QAE_NXZ 1003d9d0 f   Markup.obj
 0001:0003ca30       ?FindElem@CMarkup@@QAE_NUMCD_CSTR@@@Z 1003da30 f   Markup.obj
 0001:0003cae0       ?FindChildElem@CMarkup@@QAE_NUMCD_CSTR@@@Z 1003dae0 f   Markup.obj
 0001:0003cbb0       ?EscapeText@CMarkup@@SA?AV?$CStringT@DV?$StrTraitMFC@DV?$ChTraitsCRT@D@ATL@@@@@ATL@@UMCD_CSTR@@H@Z 1003dbb0 f   Markup.obj
 0001:0003ce90       ?UnescapeText@CMarkup@@SA?AV?$CStringT@DV?$StrTraitMFC@DV?$ChTraitsCRT@D@ATL@@@@@ATL@@UMCD_CSTR@@HH@Z 1003de90 f   Markup.obj
 0001:0003d280       ?DetectUTF8@CMarkup@@SA_NPBDHPAHPA_N@Z 1003e280 f   Markup.obj
 0001:0003d300       ?DecodeCharUTF8@CMarkup@@SAHAAPBDPBD@Z 1003e300 f   Markup.obj
 0001:0003d360       ?EncodeCharUTF16@CMarkup@@SAXHPAGAAH@Z 1003e360 f   Markup.obj
 0001:0003d3c0       ?DecodeCharUTF16@CMarkup@@SAHAAPBGPBG@Z 1003e3c0 f   Markup.obj
 0001:0003d410       ?EncodeCharUTF8@CMarkup@@SAXHPADAAH@Z 1003e410 f   Markup.obj
 0001:0003d4e0       ?GetDeclaredEncoding@CMarkup@@SA?AV?$CStringT@DV?$StrTraitMFC@DV?$ChTraitsCRT@D@ATL@@@@@ATL@@UMCD_CSTR@@@Z 1003e4e0 f   Markup.obj
 0001:0003d870       ??1NodePos@@QAE@XZ         1003e870 f i Markup.obj
 0001:0003d890       ?GetTagName@CMarkup@@QBE?AV?$CStringT@DV?$StrTraitMFC@DV?$ChTraitsCRT@D@ATL@@@@@ATL@@XZ 1003e890 f   Markup.obj
 0001:0003db40       ?IntoElem@CMarkup@@QAE_NXZ 1003eb40 f   Markup.obj
 0001:0003db80       ?OutOfElem@CMarkup@@QAE_NXZ 1003eb80 f   Markup.obj
 0001:0003dbe0       ?x_ParseDoc@CMarkup@@IAE_NXZ 1003ebe0 f   Markup.obj
 0001:0003dd20       ?x_ParseElem@CMarkup@@IAEHHAAUTokenPos@@@Z 1003ed20 f   Markup.obj
 0001:0003e3a0       ?x_FindElem@CMarkup@@IBEHHHAAUPathPos@@@Z 1003f3a0 f   Markup.obj
 0001:0003e4c0       ?x_GetTagName@CMarkup@@IBE?AV?$CStringT@DV?$StrTraitMFC@DV?$ChTraitsCRT@D@ATL@@@@@ATL@@H@Z 1003f4c0 f   Markup.obj
 0001:0003e550       ?x_SetAttrib@CMarkup@@IAE_NHPBD0H@Z 1003f550 f   Markup.obj
 0001:0003e8d0       ?x_EncodeCDATASection@CMarkup@@KA?AV?$CStringT@DV?$StrTraitMFC@DV?$ChTraitsCRT@D@ATL@@@@@ATL@@PBD@Z 1003f8d0 f   Markup.obj
 0001:0003ea60       ?x_GetData@CMarkup@@IAE?AV?$CStringT@DV?$StrTraitMFC@DV?$ChTraitsCRT@D@ATL@@@@@ATL@@H@Z 1003fa60 f   Markup.obj
 0001:0003f000       ?x_Adjust@CMarkup@@IAEXHH_N@Z 10040000 f   Markup.obj
 0001:0003f0f0       ?x_InsertNew@CMarkup@@IAEHHAAHAAUNodePos@@@Z 100400f0 f   Markup.obj
 0001:0003f770       ?x_AddElem@CMarkup@@IAE_NPBD0H@Z 10040770 f   Markup.obj
 0001:0003fba0       ?x_LinkElem@CMarkup@@IAEXHHH@Z 10040ba0 f   Markup.obj
 0001:0003fdd0       ?x_UnlinkPrevElem@CMarkup@@IAEHHHH@Z 10040dd0 f   Markup.obj
 0001:0003fea0       ?x_ReleasePos@CMarkup@@IAEHH@Z 10040ea0 f   Markup.obj
 0001:0003fee0       ?x_AdjustForNode@CMarkup@@IAEXHHH@Z 10040ee0 f   Markup.obj
 0001:0003ff50       ?Mid@?$CStringT@DV?$StrTraitMFC@DV?$ChTraitsCRT@D@ATL@@@@@ATL@@QBE?AV12@HH@Z 10040f50 f i Markup.obj
 0001:00040000       ??HATL@@YA?AV?$CStringT@DV?$StrTraitMFC@DV?$ChTraitsCRT@D@ATL@@@@@0@PBDABV10@@Z 10041000 f i Markup.obj
 0001:000400e0       ??9ATL@@YA_NABV?$CStringT@DV?$StrTraitMFC@DV?$ChTraitsCRT@D@ATL@@@@@0@0@Z 100410e0 f i Markup.obj
 0001:00040110       ??0?$CStringT@DV?$StrTraitMFC@DV?$ChTraitsCRT@D@ATL@@@@@ATL@@QAE@PBDH@Z 10041110 f i Markup.obj
 0001:00040130       ??0CMD5@@QAE@ABV?$basic_string@DU?$char_traits@D@std@@V?$allocator@D@2@@std@@@Z 10041130 f   md5.obj
 0001:00040190       ?decode@CMD5@@CAXQAIQBEI@Z 10041190 f   md5.obj
 0001:000401d0       ?transform@CMD5@@AAEXQBE@Z 100411d0 f   md5.obj
 0001:00040880       ?update@CMD5@@IAEXPBEI@Z   10041880 f   md5.obj
 0001:00040920       ?finalize@CMD5@@IAEAAV1@XZ 10041920 f   md5.obj
 0001:00040a10       ?hexdigest@CMD5@@QBE?AV?$basic_string@DU?$char_traits@D@std@@V?$allocator@D@2@@std@@XZ 10041a10 f   md5.obj
 0001:00040ac0       ?md5@@YA?AV?$basic_string@DU?$char_traits@D@std@@V?$allocator@D@2@@std@@ABV12@@Z 10041ac0 f   md5.obj
 0001:00040b00       ?file_md5@@YAXAAV?$basic_istream@DU?$char_traits@D@std@@@std@@AAV?$basic_string@DU?$char_traits@D@std@@V?$allocator@D@2@@2@@Z 10041b00 f   md5.obj
 0001:00040bb0       ?scramble_block@md5_stuff@dlib@@YAXAAI000PAI@Z 10041bb0 f   md5_kernel_1.obj
 0001:00041450       ?md5@dlib@@YAXAAV?$basic_istream@DU?$char_traits@D@std@@@std@@PAE@Z 10042450 f   md5_kernel_1.obj
 0001:000417b0       ??1CMediaManage@@QAE@XZ    100427b0 f   MediaManage.obj
 0001:000417c0       ?Destroy@CMediaManage@@QAEHXZ 100427c0 f   MediaManage.obj
 0001:00041880       ?Init@CMediaManage@@QAEHXZ 10042880 f   MediaManage.obj
 0001:000419f0       ?EventDealStart@CMediaManage@@QAEHXZ 100429f0 f   MediaManage.obj
 0001:00041a80       ?EventDealStop@CMediaManage@@QAEHXZ 10042a80 f   MediaManage.obj
 0001:00041b10       ??0CMediaUnit@@QAE@XZ      10042b10 f   MediaUnit.obj
 0001:00041c50       ??_GCMediaUnit@@UAEPAXI@Z  10042c50 f i MediaUnit.obj
 0001:00041c50       ??_ECMediaUnit@@UAEPAXI@Z  10042c50 f i  CIL library: CIL module
 0001:00041c70       ??1CMediaUnit@@UAE@XZ      10042c70 f   MediaUnit.obj
 0001:00041d40       ?RunBody@CMediaUnit@@UAEXXZ 10042d40 f   MediaUnit.obj
 0001:00041ef0       ?EventDealStart@CMediaUnit@@QAEHXZ 10042ef0 f   MediaUnit.obj
 0001:00042480       ?EventDealStop@CMediaUnit@@QAEHXZ 10043480 f   MediaUnit.obj
 0001:000429d0       ?ExecuteMediaStart@CMediaUnit@@AAEHAAV?$basic_string@DU?$char_traits@D@std@@V?$allocator@D@2@@std@@@Z 100439d0 f   MediaUnit.obj
 0001:00042d00       ?ExecuteMediaStop@CMediaUnit@@AAEHAAV?$basic_string@DU?$char_traits@D@std@@V?$allocator@D@2@@std@@@Z 10043d00 f   MediaUnit.obj
 0001:00043030       ?PackMonitorBeat@@YA?AV?$basic_string@DU?$char_traits@D@std@@V?$allocator@D@2@@std@@ABULaneCodePara@@@Z 10044030 f   MonitorPackageHelper.obj
 0001:00043170       ?PackMonitorCmdParse@@YA?AV?$basic_string@DU?$char_traits@D@std@@V?$allocator@D@2@@std@@ABV12@ABULaneCodePara@@@Z 10044170 f   MonitorPackageHelper.obj
 0001:000432b0       ?PackMonitorLogInfo@@YA?AV?$basic_string@DU?$char_traits@D@std@@V?$allocator@D@2@@std@@ABV12@ABH01ABULaneCodePara@@@Z 100442b0 f   MonitorPackageHelper.obj
 0001:00043670       ?PackMonitorFilePiece@@YA?AV?$basic_string@DU?$char_traits@D@std@@V?$allocator@D@2@@std@@ABV12@ABH0ABULaneCodePara@@@Z 10044670 f   MonitorPackageHelper.obj
 0001:000438d0       ?PackMonitorConfirm@@YA?AV?$basic_string@DU?$char_traits@D@std@@V?$allocator@D@2@@std@@ABV12@ABULaneCodePara@@00@Z 100448d0 f   MonitorPackageHelper.obj
 0001:00043b30       ?UnPackBeatResponse@@YA?AV?$vector@V?$basic_string@DU?$char_traits@D@std@@V?$allocator@D@2@@std@@V?$allocator@V?$basic_string@DU?$char_traits@D@std@@V?$allocator@D@2@@std@@@2@@std@@ABV?$basic_string@DU?$char_traits@D@std@@V?$allocator@D@2@@2@@Z 10044b30 f   MonitorPackageHelper.obj
 0001:00043d60       ?UnPackCmdParseResponse@@YA?AU?$pair@V?$basic_string@DU?$char_traits@D@std@@V?$allocator@D@2@@std@@ULogCmdDetail@@@std@@ABV?$basic_string@DU?$char_traits@D@std@@V?$allocator@D@2@@2@0@Z 10044d60 f   MonitorPackageHelper.obj
 0001:00044100       ??0LogCmdParam@@QAE@XZ     10045100 f i MonitorPackageHelper.obj
 0001:00044180       ?UnPackLogInfoResponse@@YAHABV?$basic_string@DU?$char_traits@D@std@@V?$allocator@D@2@@std@@@Z 10045180 f   MonitorPackageHelper.obj
 0001:00044350       ?UnPackPieceInfoResponse@@YA_NABV?$basic_string@DU?$char_traits@D@std@@V?$allocator@D@2@@std@@@Z 10045350 f   MonitorPackageHelper.obj
 0001:000443e0       ?LoadMonitorResponsePackage@@YA_NABV?$basic_string@DU?$char_traits@D@std@@V?$allocator@D@2@@std@@AAVValue@Json@@@Z 100453e0 f   MonitorPackageHelper.obj
 0001:000445e0       ?PackSimilarlyContent@@YA_NAAVValue@Json@@ABULaneCodePara@@@Z 100455e0 f   MonitorPackageHelper.obj
 0001:00044d10       ?ParseLogCmdPara@@YA_NABV?$basic_string@DU?$char_traits@D@std@@V?$allocator@D@2@@std@@AAULogCmdParam@@@Z 10045d10 f   MonitorPackageHelper.obj
 0001:000452c0       ??0?$vector@V?$basic_string@DU?$char_traits@D@std@@V?$allocator@D@2@@std@@V?$allocator@V?$basic_string@DU?$char_traits@D@std@@V?$allocator@D@2@@std@@@2@@std@@QAE@ABV01@@Z 100462c0 f i MonitorPackageHelper.obj
 0001:000453d0       ??0?$pair@V?$basic_string@DU?$char_traits@D@std@@V?$allocator@D@2@@std@@ULogCmdDetail@@@std@@QAE@XZ 100463d0 f i MonitorPackageHelper.obj
 0001:00045430       ??0LogCmdDetail@@QAE@XZ    10046430 f i MonitorPackageHelper.obj
 0001:00045490       ??$copy@V?$_Vector_iterator@V?$basic_string@DU?$char_traits@D@std@@V?$allocator@D@2@@std@@V?$allocator@V?$basic_string@DU?$char_traits@D@std@@V?$allocator@D@2@@std@@@2@@std@@V?$insert_iterator@V?$set@V?$basic_string@DU?$char_traits@D@std@@V?$allocator@D@2@@std@@U?$less@V?$basic_string@DU?$char_traits@D@std@@V?$allocator@D@2@@std@@@2@V?$allocator@V?$basic_string@DU?$char_traits@D@std@@V?$allocator@D@2@@std@@@2@@std@@@2@@std@@YA?AV?$insert_iterator@V?$set@V?$basic_string@DU?$char_traits@D@std@@V?$allocator@D@2@@std@@U?$less@V?$basic_string@DU?$char_traits@D@std@@V?$allocator@D@2@@std@@@2@V?$allocator@V?$basic_string@DU?$char_traits@D@std@@V?$allocator@D@2@@std@@@2@@std@@@0@V?$_Vector_iterator@V?$basic_string@DU?$char_traits@D@std@@V?$allocator@D@2@@std@@V?$allocator@V?$basic_string@DU?$char_traits@D@std@@V?$allocator@D@2@@std@@@2@@0@0V10@@Z 10046490 f i MonitorPackageHelper.obj
 0001:000454e0       ??$_Copy_opt@PAV?$basic_string@DU?$char_traits@D@std@@V?$allocator@D@2@@std@@V?$insert_iterator@V?$set@V?$basic_string@DU?$char_traits@D@std@@V?$allocator@D@2@@std@@U?$less@V?$basic_string@DU?$char_traits@D@std@@V?$allocator@D@2@@std@@@2@V?$allocator@V?$basic_string@DU?$char_traits@D@std@@V?$allocator@D@2@@std@@@2@@std@@@2@Uforward_iterator_tag@2@@std@@YA?AV?$insert_iterator@V?$set@V?$basic_string@DU?$char_traits@D@std@@V?$allocator@D@2@@std@@U?$less@V?$basic_string@DU?$char_traits@D@std@@V?$allocator@D@2@@std@@@2@V?$allocator@V?$basic_string@DU?$char_traits@D@std@@V?$allocator@D@2@@std@@@2@@std@@@0@PAV?$basic_string@DU?$char_traits@D@std@@V?$allocator@D@2@@0@0V10@Uforward_iterator_tag@0@U_Nonscalar_ptr_iterator_tag@0@U_Range_checked_iterator_tag@0@@Z 100464e0 f i MonitorPackageHelper.obj
 0001:00045550       ?insert@?$_Tree@V?$_Tset_traits@V?$basic_string@DU?$char_traits@D@std@@V?$allocator@D@2@@std@@U?$less@V?$basic_string@DU?$char_traits@D@std@@V?$allocator@D@2@@std@@@2@V?$allocator@V?$basic_string@DU?$char_traits@D@std@@V?$allocator@D@2@@std@@@2@$0A@@std@@@std@@QAE?AViterator@12@V312@ABV?$basic_string@DU?$char_traits@D@std@@V?$allocator@D@2@@2@@Z 10046550 f i MonitorPackageHelper.obj
 0001:00045780       ?insert@?$_Tree@V?$_Tset_traits@V?$basic_string@DU?$char_traits@D@std@@V?$allocator@D@2@@std@@U?$less@V?$basic_string@DU?$char_traits@D@std@@V?$allocator@D@2@@std@@@2@V?$allocator@V?$basic_string@DU?$char_traits@D@std@@V?$allocator@D@2@@std@@@2@$0A@@std@@@std@@QAE?AU?$pair@Viterator@?$_Tree@V?$_Tset_traits@V?$basic_string@DU?$char_traits@D@std@@V?$allocator@D@2@@std@@U?$less@V?$basic_string@DU?$char_traits@D@std@@V?$allocator@D@2@@std@@@2@V?$allocator@V?$basic_string@DU?$char_traits@D@std@@V?$allocator@D@2@@std@@@2@$0A@@std@@@std@@_N@2@ABV?$basic_string@DU?$char_traits@D@std@@V?$allocator@D@2@@2@@Z 10046780 f i MonitorPackageHelper.obj
 0001:000458e0       ?_Insert@?$_Tree@V?$_Tset_traits@V?$basic_string@DU?$char_traits@D@std@@V?$allocator@D@2@@std@@U?$less@V?$basic_string@DU?$char_traits@D@std@@V?$allocator@D@2@@std@@@2@V?$allocator@V?$basic_string@DU?$char_traits@D@std@@V?$allocator@D@2@@std@@@2@$0A@@std@@@std@@IAE?AViterator@12@_NPAU_Node@?$_Tree_nod@V?$_Tset_traits@V?$basic_string@DU?$char_traits@D@std@@V?$allocator@D@2@@std@@U?$less@V?$basic_string@DU?$char_traits@D@std@@V?$allocator@D@2@@std@@@2@V?$allocator@V?$basic_string@DU?$char_traits@D@std@@V?$allocator@D@2@@std@@@2@$0A@@std@@@2@ABV?$basic_string@DU?$char_traits@D@std@@V?$allocator@D@2@@2@@Z 100468e0 f i MonitorPackageHelper.obj
 0001:00045ad0       ??$_Uninit_copy@PBV?$basic_string@DU?$char_traits@D@std@@V?$allocator@D@2@@std@@PAV12@V?$allocator@V?$basic_string@DU?$char_traits@D@std@@V?$allocator@D@2@@std@@@2@@std@@YAPAV?$basic_string@DU?$char_traits@D@std@@V?$allocator@D@2@@0@PBV10@0PAV10@AAV?$allocator@V?$basic_string@DU?$char_traits@D@std@@V?$allocator@D@2@@std@@@0@U_Nonscalar_ptr_iterator_tag@0@U_Range_checked_iterator_tag@0@@Z 10046ad0 f i MonitorPackageHelper.obj
 0001:00045b80       ??0CNFCProtocol@@QAE@XZ    10046b80 f   NFCProtocol.obj
 0001:00045c60       ??1CNFCProtocol@@QAE@XZ    10046c60 f   NFCProtocol.obj
 0001:00045cf0       ?Analyze@CNFCProtocol@@QAE?BHABV?$CStringT@DV?$StrTraitMFC@DV?$ChTraitsCRT@D@ATL@@@@@ATL@@@Z 10046cf0 f   NFCProtocol.obj
 0001:00046570       ?ConstructStopExecuteCmd@CNFCProtocol@@QAE?BV?$CStringT@DV?$StrTraitMFC@DV?$ChTraitsCRT@D@ATL@@@@@ATL@@XZ 10047570 f   NFCProtocol.obj
 0001:00046620       ?ConstructTestLinkCmd@CNFCProtocol@@QAE?BV?$CStringT@DV?$StrTraitMFC@DV?$ChTraitsCRT@D@ATL@@@@@ATL@@XZ 10047620 f   NFCProtocol.obj
 0001:000466d0       ?ConstructParaQueryCmd@CNFCProtocol@@QAE?BV?$CStringT@DV?$StrTraitMFC@DV?$ChTraitsCRT@D@ATL@@@@@ATL@@XZ 100476d0 f   NFCProtocol.obj
 0001:00046780       ?ConstructSoftVerQueryCmd@CNFCProtocol@@QAE?BV?$CStringT@DV?$StrTraitMFC@DV?$ChTraitsCRT@D@ATL@@@@@ATL@@XZ 10047780 f   NFCProtocol.obj
 0001:00046830       ?ConstructStartSignInCmd@CNFCProtocol@@QAE?BV?$CStringT@DV?$StrTraitMFC@DV?$ChTraitsCRT@D@ATL@@@@@ATL@@XZ 10047830 f   NFCProtocol.obj
 0001:00046a90       ?ConstructSignDataFromHttpCmd@CNFCProtocol@@QAE?BV?$CStringT@DV?$StrTraitMFC@DV?$ChTraitsCRT@D@ATL@@@@@ATL@@ABV23@@Z 10047a90 f   NFCProtocol.obj
 0001:00046d70       ?ConstructStartConsumeCmd@CNFCProtocol@@QAE?BV?$CStringT@DV?$StrTraitMFC@DV?$ChTraitsCRT@D@ATL@@@@@ATL@@ABH@Z 10047d70 f   NFCProtocol.obj
 0001:00047170       ?ConstructExecuteConsumeCmd@CNFCProtocol@@QAE?BV?$CStringT@DV?$StrTraitMFC@DV?$ChTraitsCRT@D@ATL@@@@@ATL@@ABH@Z 10048170 f   NFCProtocol.obj
 0001:00047440       ?ConstructCorrectCmd@CNFCProtocol@@QAE?BV?$CStringT@DV?$StrTraitMFC@DV?$ChTraitsCRT@D@ATL@@@@@ATL@@XZ 10048440 f   NFCProtocol.obj
 0001:00047660       ?Replace@?$CStringT@DV?$StrTraitMFC@DV?$ChTraitsCRT@D@ATL@@@@@ATL@@QAEHPBD0@Z 10048660 f i NFCProtocol.obj
 0001:00047860       ??A?$vector@V?$vector@EV?$allocator@E@std@@@std@@V?$allocator@V?$vector@EV?$allocator@E@std@@@std@@@2@@std@@QAEAAV?$vector@EV?$allocator@E@std@@@1@I@Z 10048860 f i NFCProtocol.obj
 0001:00047890       ?begin@?$vector@EV?$allocator@E@std@@@std@@QAE?AV?$_Vector_iterator@EV?$allocator@E@std@@@2@XZ 10048890 f i NFCProtocol.obj
 0001:000478b0       ?end@?$vector@EV?$allocator@E@std@@@std@@QAE?AV?$_Vector_iterator@EV?$allocator@E@std@@@2@XZ 100488b0 f i NFCProtocol.obj
 0001:000478d0       ?empty@?$vector@EV?$allocator@E@std@@@std@@QBE_NXZ 100488d0 f i NFCProtocol.obj
 0001:000478f0       ??1?$vector@V?$vector@EV?$allocator@E@std@@@std@@V?$allocator@V?$vector@EV?$allocator@E@std@@@std@@@2@@std@@QAE@XZ 100488f0 f i NFCProtocol.obj
 0001:000478f0       ?_Tidy@?$vector@V?$vector@EV?$allocator@E@std@@@std@@V?$allocator@V?$vector@EV?$allocator@E@std@@@std@@@2@@std@@IAEXXZ 100488f0 f i NFCProtocol.obj
 0001:00047930       ??$copy@V?$_Vector_iterator@EV?$allocator@E@std@@@std@@D$0GE@@std@@YAPADV?$_Vector_iterator@EV?$allocator@E@std@@@0@0AAY0GE@D@Z 10048930 f i NFCProtocol.obj
 0001:00047990       ??$_Destroy_range@V?$vector@EV?$allocator@E@std@@@std@@V?$allocator@V?$vector@EV?$allocator@E@std@@@std@@@2@@std@@YAXPAV?$vector@EV?$allocator@E@std@@@0@0AAV?$allocator@V?$vector@EV?$allocator@E@std@@@std@@@0@U_Nonscalar_ptr_iterator_tag@0@@Z 10048990 f i NFCProtocol.obj
 0001:000479d0       ??1?$vector@EV?$allocator@E@std@@@std@@QAE@XZ 100489d0 f i NFCProtocol.obj
 0001:000479d0       ?destroy@?$allocator@V?$vector@EV?$allocator@E@std@@@std@@@std@@QAEXPAV?$vector@EV?$allocator@E@std@@@2@@Z 100489d0 f i NFCProtocol.obj
 0001:00047a00       ??$_Copy_opt@PAEV?$checked_array_iterator@PAD@stdext@@@std@@YA?AV?$checked_array_iterator@PAD@stdext@@PAE0V12@Urandom_access_iterator_tag@0@U_Nonscalar_ptr_iterator_tag@0@U_Range_checked_iterator_tag@0@@Z 10048a00 f i NFCProtocol.obj
 0001:00047a70       ?ParseDebitParaFromJson@@YA_NABV?$basic_string@DU?$char_traits@D@std@@V?$allocator@D@2@@std@@AAUDebitParameter@@@Z 10048a70 f   PayHelper.obj
 0001:00049310       ?ParseDebitParaFromXML@@YA_NABV?$basic_string@DU?$char_traits@D@std@@V?$allocator@D@2@@std@@AAUDebitParameter@@@Z 1004a310 f   PayHelper.obj
 0001:0004a800       ?ParseDebitCancleParaFromJson@@YA_NABV?$basic_string@DU?$char_traits@D@std@@V?$allocator@D@2@@std@@AAUDebitCancleParameter@@@Z 1004b800 f   PayHelper.obj
 0001:0004ad50       ?ParseDebitCancleParaFromXML@@YA_NABV?$basic_string@DU?$char_traits@D@std@@V?$allocator@D@2@@std@@AAUDebitCancleParameter@@@Z 1004bd50 f   PayHelper.obj
 0001:0004b0a0       ?PackDebitResult2XML@@YAHABUDebitResultParameter@@AAV?$basic_string@DU?$char_traits@D@std@@V?$allocator@D@2@@std@@@Z 1004c0a0 f   PayHelper.obj
 0001:0004b6d0       ?PackDebitResult2Json@@YAHABUDebitResultParameter@@AAV?$basic_string@DU?$char_traits@D@std@@V?$allocator@D@2@@std@@@Z 1004c6d0 f   PayHelper.obj
 0001:0004c010       ?PackDebitAgencyXML@@YAHABUDebitParameter@@AAV?$basic_string@DU?$char_traits@D@std@@V?$allocator@D@2@@std@@@Z 1004d010 f   PayHelper.obj
 0001:0004c780       ?ParseDebitAgencyETCDataFromXML@@YA_NABV?$basic_string@DU?$char_traits@D@std@@V?$allocator@D@2@@std@@AAUDebitResultParameter@@0@Z 1004d780 f   PayHelper.obj
 0001:0004d0f0       ?ParseDebitAgencyResultFromXML@@YA_NABV?$basic_string@DU?$char_traits@D@std@@V?$allocator@D@2@@std@@AAUDebitResultParameter@@@Z 1004e0f0 f   PayHelper.obj
 0001:0004d790       ?PackDebitHttpJson@@YAHABUDebitParameter@@AAV?$basic_string@DU?$char_traits@D@std@@V?$allocator@D@2@@std@@@Z 1004e790 f   PayHelper.obj
 0001:0004eec0       ?ParseDebitResultFromJson@@YA_NABV?$basic_string@DU?$char_traits@D@std@@V?$allocator@D@2@@std@@AAUDebitResultParameter@@@Z 1004fec0 f   PayHelper.obj
 0001:0004f5d0       ?ServerPayCodeCheckList@@YA?AV?$map@HHU?$less@H@std@@V?$allocator@U?$pair@$$CBHH@std@@@2@@std@@XZ 100505d0 f   PayHelper.obj
 0001:0004f7b0       ??1?$map@HHU?$less@H@std@@V?$allocator@U?$pair@$$CBHH@std@@@2@@std@@QAE@XZ 100507b0 f i PayHelper.obj
 0001:0004f7c0       ?ServerPayCode2LocalCode@@YAHH@Z 100507c0 f   PayHelper.obj
 0001:0004f890       ?ServerPayCodeToFailHintCode@@YA?AV?$map@HHU?$less@H@std@@V?$allocator@U?$pair@$$CBHH@std@@@2@@std@@XZ 10050890 f   PayHelper.obj
 0001:0004fa20       ?GetPayFailHintCodeAccordingToServerPayCode@@YAHH@Z 10050a20 f   PayHelper.obj
 0001:0004fb00       ?GetNetPayRecordMatchCode@@YA?BV?$basic_string@DU?$char_traits@D@std@@V?$allocator@D@2@@std@@ABUDebitParameter@@@Z 10050b00 f   PayHelper.obj
 0001:00050a10       ?PackDebitCancleHttpJson@@YAHABUDebitCancleParameter@@AAV?$basic_string@DU?$char_traits@D@std@@V?$allocator@D@2@@std@@@Z 10051a10 f   PayHelper.obj
 0001:00050ed0       ?ParseDebitCancleResultFromServer@@YA_NV?$basic_string@DU?$char_traits@D@std@@V?$allocator@D@2@@std@@AAUDebitCancleResultParameter@@@Z 10051ed0 f   PayHelper.obj
 0001:000513b0       ?PackDebitCheckHttpJson@@YAHABUDebitParameter@@AAV?$basic_string@DU?$char_traits@D@std@@V?$allocator@D@2@@std@@@Z 100523b0 f   PayHelper.obj
 0001:000517b0       ?PackInvoiceHttpJson@@YAHABUInvoiceParameter@@AAV?$basic_string@DU?$char_traits@D@std@@V?$allocator@D@2@@std@@@Z 100527b0 f   PayHelper.obj
 0001:00052370       ?PackInvoiceCancelHttpJson@@YAHABUInvoiceCancelParameter@@AAV?$basic_string@DU?$char_traits@D@std@@V?$allocator@D@2@@std@@@Z 10053370 f   PayHelper.obj
 0001:000525a0       ?ParseInvoiceResultFromJson@@YA_NABV?$basic_string@DU?$char_traits@D@std@@V?$allocator@D@2@@std@@AAUInvoiceResultParameter@@@Z 100535a0 f   PayHelper.obj
 0001:00052950       ?ParseInvoiceCancleResultFromServer@@YA_NABV?$basic_string@DU?$char_traits@D@std@@V?$allocator@D@2@@std@@AAUInvoiceCancelResultParameter@@@Z 10053950 f   PayHelper.obj
 0001:00052d80       ??A?$map@HHU?$less@H@std@@V?$allocator@U?$pair@$$CBHH@std@@@2@@std@@QAEAAHABH@Z 10053d80 f i PayHelper.obj
 0001:00052e00       ?find@?$_Tree@V?$_Tmap_traits@HHU?$less@H@std@@V?$allocator@U?$pair@$$CBHH@std@@@2@$0A@@std@@@std@@QAE?AViterator@12@ABH@Z 10053e00 f i PayHelper.obj
 0001:00052e70       ?insert@?$_Tree@V?$_Tmap_traits@HHU?$less@H@std@@V?$allocator@U?$pair@$$CBHH@std@@@2@$0A@@std@@@std@@QAE?AViterator@12@V312@ABU?$pair@$$CBHH@2@@Z 10053e70 f i PayHelper.obj
 0001:00053030       ?_Tidy@?$_Tree@V?$_Tmap_traits@HHU?$less@H@std@@V?$allocator@U?$pair@$$CBHH@std@@@2@$0A@@std@@@std@@IAEXXZ 10054030 f i PayHelper.obj
 0001:00053070       ?insert@?$_Tree@V?$_Tmap_traits@HHU?$less@H@std@@V?$allocator@U?$pair@$$CBHH@std@@@2@$0A@@std@@@std@@QAE?AU?$pair@Viterator@?$_Tree@V?$_Tmap_traits@HHU?$less@H@std@@V?$allocator@U?$pair@$$CBHH@std@@@2@$0A@@std@@@std@@_N@2@ABU?$pair@$$CBHH@2@@Z 10054070 f i PayHelper.obj
 0001:00053150       ?erase@?$_Tree@V?$_Tmap_traits@HHU?$less@H@std@@V?$allocator@U?$pair@$$CBHH@std@@@2@$0A@@std@@@std@@QAE?AViterator@12@V312@0@Z 10054150 f i PayHelper.obj
 0001:00053220       ?_Insert@?$_Tree@V?$_Tmap_traits@HHU?$less@H@std@@V?$allocator@U?$pair@$$CBHH@std@@@2@$0A@@std@@@std@@IAE?AViterator@12@_NPAU_Node@?$_Tree_nod@V?$_Tmap_traits@HHU?$less@H@std@@V?$allocator@U?$pair@$$CBHH@std@@@2@$0A@@std@@@2@ABU?$pair@$$CBHH@2@@Z 10054220 f i PayHelper.obj
 0001:00053410       ?_Min@?$_Tree@V?$_Tmap_traits@HHU?$less@H@std@@V?$allocator@U?$pair@$$CBHH@std@@@2@$0A@@std@@@std@@KAPAU_Node@?$_Tree_nod@V?$_Tmap_traits@HHU?$less@H@std@@V?$allocator@U?$pair@$$CBHH@std@@@2@$0A@@std@@@2@PAU342@@Z 10054410 f i PayHelper.obj
 0001:00053430       ?erase@?$_Tree@V?$_Tmap_traits@HHU?$less@H@std@@V?$allocator@U?$pair@$$CBHH@std@@@2@$0A@@std@@@std@@QAE?AViterator@12@V312@@Z 10054430 f i PayHelper.obj
 0001:000536f0       ?_Lrotate@?$_Tree@V?$_Tmap_traits@HHU?$less@H@std@@V?$allocator@U?$pair@$$CBHH@std@@@2@$0A@@std@@@std@@IAEXPAU_Node@?$_Tree_nod@V?$_Tmap_traits@HHU?$less@H@std@@V?$allocator@U?$pair@$$CBHH@std@@@2@$0A@@std@@@2@@Z 100546f0 f i PayHelper.obj
 0001:00053740       ?_Rrotate@?$_Tree@V?$_Tmap_traits@HHU?$less@H@std@@V?$allocator@U?$pair@$$CBHH@std@@@2@$0A@@std@@@std@@IAEXPAU_Node@?$_Tree_nod@V?$_Tmap_traits@HHU?$less@H@std@@V?$allocator@U?$pair@$$CBHH@std@@@2@$0A@@std@@@2@@Z 10054740 f i PayHelper.obj
 0001:00053790       ?_Buynode@?$_Tree@V?$_Tmap_traits@HHU?$less@H@std@@V?$allocator@U?$pair@$$CBHH@std@@@2@$0A@@std@@@std@@IAEPAU_Node@?$_Tree_nod@V?$_Tmap_traits@HHU?$less@H@std@@V?$allocator@U?$pair@$$CBHH@std@@@2@$0A@@std@@@2@PAU342@00ABU?$pair@$$CBHH@2@D@Z 10054790 f i PayHelper.obj
 0001:000537d0       ??0PayHttpSync@@QAE@XZ     100547d0 f   PayHttpSync.obj
 0001:000538f0       ??_GPayHttpSync@@UAEPAXI@Z 100548f0 f i PayHttpSync.obj
 0001:000538f0       ??_EPayHttpSync@@UAEPAXI@Z 100548f0 f i  CIL library: CIL module
 0001:00053910       ??1PayHttpSync@@UAE@XZ     10054910 f   PayHttpSync.obj
 0001:000539b0       ?SetPayState@PayHttpSync@@AAEHH@Z 100549b0 f   PayHttpSync.obj
 0001:000539e0       ?RunBody@PayHttpSync@@UAEXXZ 100549e0 f   PayHttpSync.obj
 0001:00053b60       ?ExecuteOnePay@PayHttpSync@@AAEHAAUDebitParameter@@@Z 10054b60 f   PayHttpSync.obj
 0001:00054740       ?StartPay@PayHttpSync@@QAEHAAUDebitParameter@@@Z 10055740 f   PayHttpSync.obj
 0001:000547d0       ?TransmitState@InvoiceHttpSync@@QAEHAAV?$basic_string@DU?$char_traits@D@std@@V?$allocator@D@2@@std@@@Z 100557d0 f   InvoiceHttpSync.obj
 0001:000547d0       ?PayState@PayHttpSync@@QAEHAAV?$basic_string@DU?$char_traits@D@std@@V?$allocator@D@2@@std@@@Z 100557d0 f   PayHttpSync.obj
 0001:00054850       ?_Buynode@?$list@UDebitParameter@@V?$allocator@UDebitParameter@@@std@@@std@@IAEPAU_Node@?$_List_nod@UDebitParameter@@V?$allocator@UDebitParameter@@@std@@@2@XZ 10055850 f i PayHttpSync.obj
 0001:00054870       ?clear@?$list@UDebitParameter@@V?$allocator@UDebitParameter@@@std@@@std@@QAEXXZ 10055870 f i PayHttpSync.obj
 0001:000548b0       ?_Buynode@?$list@UDebitParameter@@V?$allocator@UDebitParameter@@@std@@@std@@IAEPAU_Node@?$_List_nod@UDebitParameter@@V?$allocator@UDebitParameter@@@std@@@2@PAU342@0ABUDebitParameter@@@Z 100558b0 f i PayHttpSync.obj
 0001:00054900       ?_Incsize@?$list@UDebitParameter@@V?$allocator@UDebitParameter@@@std@@@std@@IAEXI@Z 10055900 f i PayHttpSync.obj
 0001:000549a0       ??$_Allocate@U_Node@?$_List_nod@UDebitParameter@@V?$allocator@UDebitParameter@@@std@@@std@@@std@@YAPAU_Node@?$_List_nod@UDebitParameter@@V?$allocator@UDebitParameter@@@std@@@0@IPAU120@@Z 100559a0 f i PayHttpSync.obj
 0001:000549f0       ??0CPayKeyItems@@QAE@XZ    100559f0 f   PayKeyItems.obj
 0001:00054c60       ??1CPayKeyItems@@QAE@XZ    10055c60 f   PayKeyItems.obj
 0001:00054ec0       ??1CPayManage@@QAE@XZ      10055ec0 f   PayManage.obj
 0001:00054ed0       ?Destroy@CPayManage@@QAEHXZ 10055ed0 f   PayManage.obj
 0001:00055040       ?Init@CPayManage@@QAEHXZ   10056040 f   PayManage.obj
 0001:00055330       ?StartNewPay@CPayManage@@QAEHABUDebitParameter@@@Z 10056330 f   PayManage.obj
 0001:000553d0       ?CancelTargetPay@CPayManage@@QAEHABUDebitCancleParameter@@@Z 100563d0 f   PayManage.obj
 0001:00055470       ?GetCurrentDebitResult@CPayManage@@QAEHAAUDebitResultParameter@@@Z 10056470 f   PayManage.obj
 0001:00055510       ?QueryVirtualCardDebit@CPayManage@@QAE_NPBDABH1AAHPAD@Z 10056510 f   PayManage.obj
 0001:000555c0       ?AgencyDebitQuery@CPayManage@@QAE_NPBDABH1AAH@Z 100565c0 f   PayManage.obj
 0001:00055670       ?SetCertificate@CPayManage@@QAEHABV?$basic_string@DU?$char_traits@D@std@@V?$allocator@D@2@@std@@00@Z 10056670 f   PayManage.obj
 0001:00055930       ?SetCertificateError@CPayManage@@QAEHH@Z 10056930 f   PayManage.obj
 0001:00055a20       ?StartNewCashInvoiceTransmit@CPayManage@@QAEHAAUInvoiceParameter@@@Z 10056a20 f   PayManage.obj
 0001:00055ab0       ?StartCashInvoiceCancel@CPayManage@@QAEHAAUInvoiceCancelParameter@@@Z 10056ab0 f   PayManage.obj
 0001:00055b50       ??0CPayUnit@@QAE@XZ        10056b50 f   PayUnit.obj
 0001:00055cf0       ??_ECPayUnit@@UAEPAXI@Z    10056cf0 f i  CIL library: CIL module
 0001:00055cf0       ??_GCPayUnit@@UAEPAXI@Z    10056cf0 f i PayUnit.obj
 0001:00055d10       ??1CPayUnit@@UAE@XZ        10056d10 f   PayUnit.obj
 0001:00056020       ?RunBody@CPayUnit@@UAEXXZ  10057020 f   PayUnit.obj
 0001:00056070       ?StartNewPay@CPayUnit@@QAEHABUDebitParameter@@@Z 10057070 f   PayUnit.obj
 0001:00056180       ?CancelTargetPay@CPayUnit@@QAEHABUDebitCancleParameter@@@Z 10057180 f   PayUnit.obj
 0001:000565e0       ?GetCurrentDebitResult@CPayUnit@@QAEHAAUDebitResultParameter@@@Z 100575e0 f   PayUnit.obj
 0001:000566d0       ?ExecuteOnePay@CPayUnit@@AAEXXZ 100576d0 f   PayUnit.obj
 0001:00056d10       ?ExecutePlatePay@CPayUnit@@AAEHABUDebitParameter@@AAUDebitResultParameter@@@Z 10057d10 f   PayUnit.obj
 0001:00057050       ?ExecuteCodePay@CPayUnit@@AAEHAAUDebitParameter@@AAUDebitResultParameter@@@Z 10058050 f   PayUnit.obj
 0001:00057c30       ?ClearAbandonPay@CPayUnit@@AAEHXZ 10058c30 f   PayUnit.obj
 0001:00057f00       ?SetCertificate@CPayUnit@@QAEHABV?$basic_string@DU?$char_traits@D@std@@V?$allocator@D@2@@std@@@Z 10058f00 f   PayUnit.obj
 0001:00057f80       ?QueryCertificate@CPayUnit@@AAEHAAV?$basic_string@DU?$char_traits@D@std@@V?$allocator@D@2@@std@@@Z 10058f80 f   PayUnit.obj
 0001:00058030       ?GetCertificate@CPayUnit@@AAEHAAUDebitParameter@@@Z 10059030 f   PayUnit.obj
 0001:000587e0       ?NotifyResult@CPayUnit@@AAEHHH@Z 100597e0 f   PayUnit.obj
 0001:00058910       ?HintPayResult@CPayUnit@@AAEHHH@Z 10059910 f   PayUnit.obj
 0001:00058a50       ?AdjustPayPlatformType@CPayUnit@@AAEXAAUDebitResultParameter@@@Z 10059a50 f   PayUnit.obj
 0001:00058bd0       ?OpenCertificateScanner@CPayUnit@@AAEHABUDebitParameter@@@Z 10059bd0 f   PayUnit.obj
 0001:00058f20       ?SetFeeDisplay@CPayUnit@@AAEHABUDebitParameter@@@Z 10059f20 f   PayUnit.obj
 0001:00059350       ?SetPayResultDisplay@CPayUnit@@AAEHABV?$basic_string@DU?$char_traits@D@std@@V?$allocator@D@2@@std@@HV23@@Z 1005a350 f   PayUnit.obj
 0001:000597a0       ?QueryVirtualCardDebit@CPayUnit@@QAE_NPBDABH1AAHPAD@Z 1005a7a0 f   PayUnit.obj
 0001:00059800       ?AgencyDebitQuery@CPayUnit@@QAE_NPBDABH1AAH@Z 1005a800 f   PayUnit.obj
 0001:00059850       ?IsTargetPayCancled@CPayUnit@@AAE_NABV?$basic_string@DU?$char_traits@D@std@@V?$allocator@D@2@@std@@@Z 1005a850 f   PayUnit.obj
 0001:00059900       ?NotifyPayStatus@CPayUnit@@AAEHHH@Z 1005a900 f   PayUnit.obj
 0001:000599c0       ?NewPayResult@CPayUnit@@AAEHABUDebitResultParameter@@@Z 1005a9c0 f   PayUnit.obj
 0001:00059a80       ?push_back@?$list@PAVPayHttpSync@@V?$allocator@PAVPayHttpSync@@@std@@@std@@QAEXABQAVPayHttpSync@@@Z 1005aa80 f i PayUnit.obj
 0001:00059ab0       ??9?$_Const_iterator@$00@?$list@UAdsFilePiece@@V?$allocator@UAdsFilePiece@@@std@@@std@@QBE_NABV012@@Z 1005aab0 f i ProtocolHelper.obj
 0001:00059ab0       ??9?$_Const_iterator@$00@?$list@URemoteAdsUpdateCmd@@V?$allocator@URemoteAdsUpdateCmd@@@std@@@std@@QBE_NABV012@@Z 1005aab0 f i ProtocolHelper.obj
 0001:00059ab0       ??9?$_Const_iterator@$00@?$list@PAVPayHttpSync@@V?$allocator@PAVPayHttpSync@@@std@@@std@@QBE_NABV012@@Z 1005aab0 f i PayUnit.obj
 0001:00059ab0       ??9?$_Const_iterator@$00@?$list@PAVInvoiceHttpSync@@V?$allocator@PAVInvoiceHttpSync@@@std@@@std@@QBE_NABV012@@Z 1005aab0 f i InvoiceUnit.obj
 0001:00059ab0       ??9?$_Const_iterator@$00@?$list@UAdsFileInfo@@V?$allocator@UAdsFileInfo@@@std@@@std@@QBE_NABV012@@Z 1005aab0 f i ProtocolHelper.obj
 0001:00059ab0       ??9?$_Const_iterator@$00@?$list@V?$basic_string@DU?$char_traits@D@std@@V?$allocator@D@2@@std@@V?$allocator@V?$basic_string@DU?$char_traits@D@std@@V?$allocator@D@2@@std@@@2@@std@@QBE_NABV012@@Z 1005aab0 f i ETCPayUnit.obj
 0001:00059ad0       ?_Buynode@?$list@UDebitResultParameter@@V?$allocator@UDebitResultParameter@@@std@@@std@@IAEPAU_Node@?$_List_nod@UDebitResultParameter@@V?$allocator@UDebitResultParameter@@@std@@@2@XZ 1005aad0 f i PayUnit.obj
 0001:00059af0       ?_Buynode@?$list@UDebitResultParameter@@V?$allocator@UDebitResultParameter@@@std@@@std@@IAEPAU_Node@?$_List_nod@UDebitResultParameter@@V?$allocator@UDebitResultParameter@@@std@@@2@PAU342@0ABUDebitResultParameter@@@Z 1005aaf0 f i PayUnit.obj
 0001:00059b30       ?_Incsize@?$list@UDebitResultParameter@@V?$allocator@UDebitResultParameter@@@std@@@std@@IAEXI@Z 1005ab30 f i PayUnit.obj
 0001:00059bd0       ??$_Allocate@U_Node@?$_List_nod@UDebitResultParameter@@V?$allocator@UDebitResultParameter@@@std@@@std@@@std@@YAPAU_Node@?$_List_nod@UDebitResultParameter@@V?$allocator@UDebitResultParameter@@@std@@@0@IPAU120@@Z 1005abd0 f i PayUnit.obj
 0001:00059c20       ?PackAdsBeat@@YA?AV?$basic_string@DU?$char_traits@D@std@@V?$allocator@D@2@@std@@ABULaneCodePara@@@Z 1005ac20 f   ProtocolHelper.obj
 0001:00059d20       ?PackAdsQuery@@YA?AV?$basic_string@DU?$char_traits@D@std@@V?$allocator@D@2@@std@@ABULaneCodePara@@@Z 1005ad20 f   ProtocolHelper.obj
 0001:00059d40       ?PackAdsFilePieceDownload@@YA?AV?$basic_string@DU?$char_traits@D@std@@V?$allocator@D@2@@std@@ABV12@HABULaneCodePara@@@Z 1005ad40 f   ProtocolHelper.obj
 0001:00059f50       ?PackAdsConfirm@@YA?AV?$basic_string@DU?$char_traits@D@std@@V?$allocator@D@2@@std@@ABURemoteAdsUpdateCmd@@ABULaneCodePara@@@Z 1005af50 f   ProtocolHelper.obj
 0001:0005a100       ?UnPackAdsQueryResult@@YA?AV?$list@URemoteAdsUpdateCmd@@V?$allocator@URemoteAdsUpdateCmd@@@std@@@std@@ABV?$basic_string@DU?$char_traits@D@std@@V?$allocator@D@2@@2@@Z 1005b100 f   ProtocolHelper.obj
 0001:0005aa60       ??0RemoteAdsUpdateCmd@@QAE@XZ 1005ba60 f i ProtocolHelper.obj
 0001:0005aad0       ??1RemoteAdsUpdateCmd@@QAE@XZ 1005bad0 f i ProtocolHelper.obj
 0001:0005ab30       ??1AdsFileInfo@@QAE@XZ     1005bb30 f i ProtocolHelper.obj
 0001:0005abb0       ?UnPackAdsFilePiece@@YA?AV?$list@UAdsFilePiece@@V?$allocator@UAdsFilePiece@@@std@@@std@@ABV?$basic_string@DU?$char_traits@D@std@@V?$allocator@D@2@@2@0@Z 1005bbb0 f   ProtocolHelper.obj
 0001:0005afe0       ??1AdsFilePiece@@QAE@XZ    1005bfe0 f i ProtocolHelper.obj
 0001:0005b050       ?PackSimilarlyContent_Upgrade@@YA_NAAVValue@Json@@ABULaneCodePara@@@Z 1005c050 f   ProtocolHelper.obj
 0001:0005bcb0       ?LoadAdsResponsePackage@@YA_NABV?$basic_string@DU?$char_traits@D@std@@V?$allocator@D@2@@std@@AAVValue@Json@@@Z 1005ccb0 f   ProtocolHelper.obj
 0001:0005beb0       ?ReadJsonStr@@YA_NAAVValue@Json@@ABV?$basic_string@DU?$char_traits@D@std@@V?$allocator@D@2@@std@@AAV34@@Z 1005ceb0 f   ProtocolHelper.obj
 0001:0005bfa0       ?ReadJsonInt@@YA_NAAVValue@Json@@ABV?$basic_string@DU?$char_traits@D@std@@V?$allocator@D@2@@std@@AAH@Z 1005cfa0 f   ProtocolHelper.obj
 0001:0005c050       ?ExtractUpgradePara@@YA_NABV?$basic_string@DU?$char_traits@D@std@@V?$allocator@D@2@@std@@AAV12@111@Z 1005d050 f   ProtocolHelper.obj
 0001:0005c450       ??0?$list@URemoteAdsUpdateCmd@@V?$allocator@URemoteAdsUpdateCmd@@@std@@@std@@QAE@ABV01@@Z 1005d450 f i ProtocolHelper.obj
 0001:0005c4e0       ??1?$list@URemoteAdsUpdateCmd@@V?$allocator@URemoteAdsUpdateCmd@@@std@@@std@@QAE@XZ 1005d4e0 f i ProtocolHelper.obj
 0001:0005c4e0       ?_Tidy@?$list@URemoteAdsUpdateCmd@@V?$allocator@URemoteAdsUpdateCmd@@@std@@@std@@IAEXXZ 1005d4e0 f i ProtocolHelper.obj
 0001:0005c500       ??0?$list@UAdsFilePiece@@V?$allocator@UAdsFilePiece@@@std@@@std@@QAE@ABV01@@Z 1005d500 f i ProtocolHelper.obj
 0001:0005c590       ?_Buynode@?$list@UAdsFileInfo@@V?$allocator@UAdsFileInfo@@@std@@@std@@IAEPAU_Node@?$_List_nod@UAdsFileInfo@@V?$allocator@UAdsFileInfo@@@std@@@2@XZ 1005d590 f i ProtocolHelper.obj
 0001:0005c5b0       ?_Tidy@?$list@UAdsFileInfo@@V?$allocator@UAdsFileInfo@@@std@@@std@@IAEXXZ 1005d5b0 f i ProtocolHelper.obj
 0001:0005c5b0       ??1?$list@UAdsFileInfo@@V?$allocator@UAdsFileInfo@@@std@@@std@@QAE@XZ 1005d5b0 f i ProtocolHelper.obj
 0001:0005c5d0       ?_Buynode@?$list@URemoteAdsUpdateCmd@@V?$allocator@URemoteAdsUpdateCmd@@@std@@@std@@IAEPAU_Node@?$_List_nod@URemoteAdsUpdateCmd@@V?$allocator@URemoteAdsUpdateCmd@@@std@@@2@XZ 1005d5d0 f i ProtocolHelper.obj
 0001:0005c5f0       ?_Buynode@?$list@UAdsFilePiece@@V?$allocator@UAdsFilePiece@@@std@@@std@@IAEPAU_Node@?$_List_nod@UAdsFilePiece@@V?$allocator@UAdsFilePiece@@@std@@@2@XZ 1005d5f0 f i ProtocolHelper.obj
 0001:0005c610       ??1?$list@UAdsFilePiece@@V?$allocator@UAdsFilePiece@@@std@@@std@@QAE@XZ 1005d610 f i ProtocolHelper.obj
 0001:0005c610       ?_Tidy@?$list@UAdsFilePiece@@V?$allocator@UAdsFilePiece@@@std@@@std@@IAEXXZ 1005d610 f i ProtocolHelper.obj
 0001:0005c630       ?clear@?$list@UAdsFileInfo@@V?$allocator@UAdsFileInfo@@@std@@@std@@QAEXXZ 1005d630 f i ProtocolHelper.obj
 0001:0005c670       ?_Buynode@?$list@UAdsFileInfo@@V?$allocator@UAdsFileInfo@@@std@@@std@@IAEPAU_Node@?$_List_nod@UAdsFileInfo@@V?$allocator@UAdsFileInfo@@@std@@@2@PAU342@0ABUAdsFileInfo@@@Z 1005d670 f i ProtocolHelper.obj
 0001:0005c710       ?_Incsize@?$list@UAdsFileInfo@@V?$allocator@UAdsFileInfo@@@std@@@std@@IAEXI@Z 1005d710 f i ProtocolHelper.obj
 0001:0005c7b0       ?clear@?$list@URemoteAdsUpdateCmd@@V?$allocator@URemoteAdsUpdateCmd@@@std@@@std@@QAEXXZ 1005d7b0 f i ProtocolHelper.obj
 0001:0005c880       ?_Buynode@?$list@URemoteAdsUpdateCmd@@V?$allocator@URemoteAdsUpdateCmd@@@std@@@std@@IAEPAU_Node@?$_List_nod@URemoteAdsUpdateCmd@@V?$allocator@URemoteAdsUpdateCmd@@@std@@@2@PAU342@0ABURemoteAdsUpdateCmd@@@Z 1005d880 f i ProtocolHelper.obj
 0001:0005c920       ?_Incsize@?$list@URemoteAdsUpdateCmd@@V?$allocator@URemoteAdsUpdateCmd@@@std@@@std@@IAEXI@Z 1005d920 f i ProtocolHelper.obj
 0001:0005c9c0       ?clear@?$list@UAdsFilePiece@@V?$allocator@UAdsFilePiece@@@std@@@std@@QAEXXZ 1005d9c0 f i ProtocolHelper.obj
 0001:0005ca60       ?_Buynode@?$list@UAdsFilePiece@@V?$allocator@UAdsFilePiece@@@std@@@std@@IAEPAU_Node@?$_List_nod@UAdsFilePiece@@V?$allocator@UAdsFilePiece@@@std@@@2@PAU342@0ABUAdsFilePiece@@@Z 1005da60 f i ProtocolHelper.obj
 0001:0005cb00       ?_Incsize@?$list@UAdsFilePiece@@V?$allocator@UAdsFilePiece@@@std@@@std@@IAEXI@Z 1005db00 f i ProtocolHelper.obj
 0001:0005cba0       ??$_Allocate@U_Node@?$_List_nod@UAdsFileInfo@@V?$allocator@UAdsFileInfo@@@std@@@std@@@std@@YAPAU_Node@?$_List_nod@UAdsFileInfo@@V?$allocator@UAdsFileInfo@@@std@@@0@IPAU120@@Z 1005dba0 f i ProtocolHelper.obj
 0001:0005cbf0       ??$_Allocate@U_Node@?$_List_nod@URemoteAdsUpdateCmd@@V?$allocator@URemoteAdsUpdateCmd@@@std@@@std@@@std@@YAPAU_Node@?$_List_nod@URemoteAdsUpdateCmd@@V?$allocator@URemoteAdsUpdateCmd@@@std@@@0@IPAU120@@Z 1005dbf0 f i ProtocolHelper.obj
 0001:0005cc40       ??$_Allocate@U_Node@?$_List_nod@UAdsFilePiece@@V?$allocator@UAdsFilePiece@@@std@@@std@@@std@@YAPAU_Node@?$_List_nod@UAdsFilePiece@@V?$allocator@UAdsFilePiece@@@std@@@0@IPAU120@@Z 1005dc40 f i ProtocolHelper.obj
 0001:0005cc90       ??$_Construct@UAdsFileInfo@@U1@@std@@YAXPAUAdsFileInfo@@ABU1@@Z 1005dc90 f i ProtocolHelper.obj
 0001:0005cce0       ??$_Construct@URemoteAdsUpdateCmd@@U1@@std@@YAXPAURemoteAdsUpdateCmd@@ABU1@@Z 1005dce0 f i ProtocolHelper.obj
 0001:0005cd40       ??$_Construct@UAdsFilePiece@@U1@@std@@YAXPAUAdsFilePiece@@ABU1@@Z 1005dd40 f i ProtocolHelper.obj
 0001:0005cd90       ??0AdsFileInfo@@QAE@ABU0@@Z 1005dd90 f i ProtocolHelper.obj
 0001:0005ce50       ??0RemoteAdsUpdateCmd@@QAE@ABU0@@Z 1005de50 f i ProtocolHelper.obj
 0001:0005cef0       ??0AdsFilePiece@@QAE@ABU0@@Z 1005def0 f i ProtocolHelper.obj
 0001:0005cf90       ??0?$list@UAdsFileInfo@@V?$allocator@UAdsFileInfo@@@std@@@std@@QAE@ABV01@@Z 1005df90 f i ProtocolHelper.obj
 0001:0005d020       ??$_Insert@V?$_Const_iterator@$00@?$list@URemoteAdsUpdateCmd@@V?$allocator@URemoteAdsUpdateCmd@@@std@@@std@@@?$list@URemoteAdsUpdateCmd@@V?$allocator@URemoteAdsUpdateCmd@@@std@@@std@@QAEXV?$_Iterator@$00@01@V?$_Const_iterator@$00@01@1Uforward_iterator_tag@1@@Z 1005e020 f i ProtocolHelper.obj
 0001:0005d140       ??$_Insert@V?$_Const_iterator@$00@?$list@UAdsFilePiece@@V?$allocator@UAdsFilePiece@@@std@@@std@@@?$list@UAdsFilePiece@@V?$allocator@UAdsFilePiece@@@std@@@std@@QAEXV?$_Iterator@$00@01@V?$_Const_iterator@$00@01@1Uforward_iterator_tag@1@@Z 1005e140 f i ProtocolHelper.obj
 0001:0005d260       ?erase@?$list@URemoteAdsUpdateCmd@@V?$allocator@URemoteAdsUpdateCmd@@@std@@@std@@QAE?AV?$_Iterator@$00@12@V312@@Z 1005e260 f i ProtocolHelper.obj
 0001:0005d2d0       ?erase@?$list@UAdsFilePiece@@V?$allocator@UAdsFilePiece@@@std@@@std@@QAE?AV?$_Iterator@$00@12@V312@@Z 1005e2d0 f i ProtocolHelper.obj
 0001:0005d340       ??$_Insert@V?$_Const_iterator@$00@?$list@UAdsFileInfo@@V?$allocator@UAdsFileInfo@@@std@@@std@@@?$list@UAdsFileInfo@@V?$allocator@UAdsFileInfo@@@std@@@std@@QAEXV?$_Iterator@$00@01@V?$_Const_iterator@$00@01@1Uforward_iterator_tag@1@@Z 1005e340 f i ProtocolHelper.obj
 0001:0005d460       ?erase@?$list@UAdsFileInfo@@V?$allocator@UAdsFileInfo@@@std@@@std@@QAE?AV?$_Iterator@$00@12@V312@@Z 1005e460 f i ProtocolHelper.obj
 0001:0005d4d0       ?split_whitespace@?A0x8c46ad7d@pystring@@YAXABV?$basic_string@DU?$char_traits@D@std@@V?$allocator@D@2@@std@@AAV?$vector@V?$basic_string@DU?$char_traits@D@std@@V?$allocator@D@2@@std@@V?$allocator@V?$basic_string@DU?$char_traits@D@std@@V?$allocator@D@2@@std@@@2@@4@H@Z 1005e4d0 f   pystring.obj
 0001:0005d660       ?split@pystring@@YAXABV?$basic_string@DU?$char_traits@D@std@@V?$allocator@D@2@@std@@AAV?$vector@V?$basic_string@DU?$char_traits@D@std@@V?$allocator@D@2@@std@@V?$allocator@V?$basic_string@DU?$char_traits@D@std@@V?$allocator@D@2@@std@@@2@@3@0H@Z 1005e660 f   pystring.obj
 0001:0005d8a0       ?_string_tailmatch@?A0x8c46ad7d@pystring@@YAHABV?$basic_string@DU?$char_traits@D@std@@V?$allocator@D@2@@std@@0HHH@Z 1005e8a0 f   pystring.obj
 0001:0005d9b0       ?slice@pystring@@YA?AV?$basic_string@DU?$char_traits@D@std@@V?$allocator@D@2@@std@@ABV23@HH@Z 1005e9b0 f   pystring.obj
 0001:0005da20       ?replace@pystring@@YA?AV?$basic_string@DU?$char_traits@D@std@@V?$allocator@D@2@@std@@ABV23@00H@Z 1005ea20 f   pystring.obj
 0001:0005db60       ??_D?$basic_ostringstream@DU?$char_traits@D@std@@V?$allocator@D@2@@std@@QAEXXZ 1005eb60 f i pystring.obj
 0001:0005db80       ?splitdrive_nt@path@os@pystring@@YAXAAV?$basic_string@DU?$char_traits@D@std@@V?$allocator@D@2@@std@@0ABV45@@Z 1005eb80 f   pystring.obj
 0001:0005dd10       ?isabs_nt@path@os@pystring@@YA_NABV?$basic_string@DU?$char_traits@D@std@@V?$allocator@D@2@@std@@@Z 1005ed10 f   pystring.obj
 0001:0005de40       ?join_nt@path@os@pystring@@YA?AV?$basic_string@DU?$char_traits@D@std@@V?$allocator@D@2@@std@@ABV?$vector@V?$basic_string@DU?$char_traits@D@std@@V?$allocator@D@2@@std@@V?$allocator@V?$basic_string@DU?$char_traits@D@std@@V?$allocator@D@2@@std@@@2@@5@@Z 1005ee40 f   pystring.obj
 0001:0005e600       ?join_nt@path@os@pystring@@YA?AV?$basic_string@DU?$char_traits@D@std@@V?$allocator@D@2@@std@@ABV45@0@Z 1005f600 f   pystring.obj
 0001:0005e6f0       ?join@path@os@pystring@@YA?AV?$basic_string@DU?$char_traits@D@std@@V?$allocator@D@2@@std@@ABV45@0@Z 1005f6f0 f   pystring.obj
 0001:0005e710       ?split_nt@path@os@pystring@@YAXAAV?$basic_string@DU?$char_traits@D@std@@V?$allocator@D@2@@std@@0ABV45@@Z 1005f710 f   pystring.obj
 0001:0005eb20       ?basename_nt@path@os@pystring@@YA?AV?$basic_string@DU?$char_traits@D@std@@V?$allocator@D@2@@std@@ABV45@@Z 1005fb20 f   pystring.obj
 0001:0005ebd0       ?basename@path@os@pystring@@YA?AV?$basic_string@DU?$char_traits@D@std@@V?$allocator@D@2@@std@@ABV45@@Z 1005fbd0 f   pystring.obj
 0001:0005ebf0       ?dirname_nt@path@os@pystring@@YA?AV?$basic_string@DU?$char_traits@D@std@@V?$allocator@D@2@@std@@ABV45@@Z 1005fbf0 f   pystring.obj
 0001:0005ec90       ?dirname@path@os@pystring@@YA?AV?$basic_string@DU?$char_traits@D@std@@V?$allocator@D@2@@std@@ABV45@@Z 1005fc90 f   pystring.obj
 0001:0005ecb0       ??0?$vector@V?$basic_string@DU?$char_traits@D@std@@V?$allocator@D@2@@std@@V?$allocator@V?$basic_string@DU?$char_traits@D@std@@V?$allocator@D@2@@std@@@2@@std@@QAE@I@Z 1005fcb0 f i pystring.obj
 0001:0005ed20       ?erase@?$vector@V?$basic_string@DU?$char_traits@D@std@@V?$allocator@D@2@@std@@V?$allocator@V?$basic_string@DU?$char_traits@D@std@@V?$allocator@D@2@@std@@@2@@std@@QAE?AV?$_Vector_iterator@V?$basic_string@DU?$char_traits@D@std@@V?$allocator@D@2@@std@@V?$allocator@V?$basic_string@DU?$char_traits@D@std@@V?$allocator@D@2@@std@@@2@@2@V32@0@Z 1005fd20 f i pystring.obj
 0001:0005ed90       ??0?$basic_ostringstream@DU?$char_traits@D@std@@V?$allocator@D@2@@std@@QAE@H@Z 1005fd90 f i pystring.obj
 0001:0005ee20       ??1?$basic_ostringstream@DU?$char_traits@D@std@@V?$allocator@D@2@@std@@UAE@XZ 1005fe20 f i pystring.obj
 0001:0005eeb0       ?str@?$basic_ostringstream@DU?$char_traits@D@std@@V?$allocator@D@2@@std@@QBE?AV?$basic_string@DU?$char_traits@D@std@@V?$allocator@D@2@@2@XZ 1005feb0 f i pystring.obj
 0001:0005eed0       ??_G?$basic_ostringstream@DU?$char_traits@D@std@@V?$allocator@D@2@@std@@UAEPAXI@Z 1005fed0 f i pystring.obj
 0001:0005eed0       ??_E?$basic_ostringstream@DU?$char_traits@D@std@@V?$allocator@D@2@@std@@UAEPAXI@Z 1005fed0 f i  CIL library: CIL module
 0001:0005ef10       ?replace@?$basic_string@DU?$char_traits@D@std@@V?$allocator@D@2@@std@@QAEAAV12@IIABV12@II@Z 1005ff10 f i pystring.obj
 0001:0005f130       ??0?$basic_ostream@DU?$char_traits@D@std@@@std@@QAE@PAV?$basic_streambuf@DU?$char_traits@D@std@@@1@_N@Z 10060130 f i pystring.obj
 0001:0005f1c0       ?_Construct_n@?$vector@V?$basic_string@DU?$char_traits@D@std@@V?$allocator@D@2@@std@@V?$allocator@V?$basic_string@DU?$char_traits@D@std@@V?$allocator@D@2@@std@@@2@@std@@QAEXIABV?$basic_string@DU?$char_traits@D@std@@V?$allocator@D@2@@2@@Z 100601c0 f i pystring.obj
 0001:0005f260       ??$_Copy_opt@PAV?$basic_string@DU?$char_traits@D@std@@V?$allocator@D@2@@std@@PAV12@@std@@YAPAV?$basic_string@DU?$char_traits@D@std@@V?$allocator@D@2@@0@PAV10@00Urandom_access_iterator_tag@0@U_Nonscalar_ptr_iterator_tag@0@U_Range_checked_iterator_tag@0@@Z 10060260 f i pystring.obj
 0001:0005f2b0       ?WriteLog@@YAXABV?$basic_string@DU?$char_traits@D@std@@V?$allocator@D@2@@std@@@Z 100602b0 f   RemoteAccessCore.obj
 0001:0005f3b0       ?GetDevSerialNo@@YA?AV?$basic_string@DU?$char_traits@D@std@@V?$allocator@D@2@@std@@XZ 100603b0 f   RemoteAccessCore.obj
 0001:0005f450       ?GetDeviceFlag@@YA?AV?$basic_string@DU?$char_traits@D@std@@V?$allocator@D@2@@std@@XZ 10060450 f   RemoteAccessCore.obj
 0001:0005f750       ?GetSoftFlag@@YA?AV?$basic_string@DU?$char_traits@D@std@@V?$allocator@D@2@@std@@XZ 10060750 f   RemoteAccessCore.obj
 0001:0005f7f0       ??0RemoteAccessCore@@QAE@XZ 100607f0 f   RemoteAccessCore.obj
 0001:0005fa30       ??1?$map@V?$basic_string@DU?$char_traits@D@std@@V?$allocator@D@2@@std@@V?$set@V?$basic_string@DU?$char_traits@D@std@@V?$allocator@D@2@@std@@U?$less@V?$basic_string@DU?$char_traits@D@std@@V?$allocator@D@2@@std@@@2@V?$allocator@V?$basic_string@DU?$char_traits@D@std@@V?$allocator@D@2@@std@@@2@@2@U?$less@V?$basic_string@DU?$char_traits@D@std@@V?$allocator@D@2@@std@@@2@V?$allocator@U?$pair@$$CBV?$basic_string@DU?$char_traits@D@std@@V?$allocator@D@2@@std@@V?$set@V?$basic_string@DU?$char_traits@D@std@@V?$allocator@D@2@@std@@U?$less@V?$basic_string@DU?$char_traits@D@std@@V?$allocator@D@2@@std@@@2@V?$allocator@V?$basic_string@DU?$char_traits@D@std@@V?$allocator@D@2@@std@@@2@@2@@std@@@2@@std@@QAE@XZ 10060a30 f i RemoteAccessCore.obj
 0001:0005fa40       ??1RemoteAccessCore@@QAE@XZ 10060a40 f   RemoteAccessCore.obj
 0001:0005fc90       ?SetLaneCodeInfo@RemoteAccessCore@@QAEHABHABV?$basic_string@DU?$char_traits@D@std@@V?$allocator@D@2@@std@@111@Z 10060c90 f   RemoteAccessCore.obj
 0001:0005fd80       ?RemoteInfo@RemoteAccessCore@@QAEXABV?$basic_string@DU?$char_traits@D@std@@V?$allocator@D@2@@std@@H@Z 10060d80 f   RemoteAccessCore.obj
 0001:0005fdf0       ?UpgradeFirmware@RemoteAccessCore@@QAEXXZ 10060df0 f   RemoteAccessCore.obj
 0001:0005fe90       ?ParseQueryResult@RemoteAccessCore@@AAEXABV?$basic_string@DU?$char_traits@D@std@@V?$allocator@D@2@@std@@@Z 10060e90 f   RemoteAccessCore.obj
 0001:00060020       ?Query@RemoteAccessCore@@AAEXXZ 10061020 f   RemoteAccessCore.obj
 0001:000606b0       ?Download@RemoteAccessCore@@AAEXXZ 100616b0 f   RemoteAccessCore.obj
 0001:00060700       ?Confirm@RemoteAccessCore@@AAEXXZ 10061700 f   RemoteAccessCore.obj
 0001:00060820       ?Confirm_Core@RemoteAccessCore@@AAEXAAURemoteAdsUpdateCmd@@ABV?$basic_string@DU?$char_traits@D@std@@V?$allocator@D@2@@std@@@Z 10061820 f   RemoteAccessCore.obj
 0001:00060940       ?DownloadFiles@RemoteAccessCore@@AAEXAAURemoteAdsUpdateCmd@@@Z 10061940 f   RemoteAccessCore.obj
 0001:00060ab0       ?DownloadFile@RemoteAccessCore@@AAE_NAAUAdsFileInfo@@@Z 10061ab0 f   RemoteAccessCore.obj
 0001:00061960       ??_D?$basic_ofstream@DU?$char_traits@D@std@@@std@@QAEXXZ 10062960 f i RemoteAccessCore.obj
 0001:00061980       ?TakeUpgradePara@RemoteAccessCore@@QAE?AV?$list@V?$basic_string@DU?$char_traits@D@std@@V?$allocator@D@2@@std@@V?$allocator@V?$basic_string@DU?$char_traits@D@std@@V?$allocator@D@2@@std@@@2@@std@@XZ 10062980 f   RemoteAccessCore.obj
 0001:00061b90       ?MakeUpdParaStr@RemoteAccessCore@@AAEXAAURemoteAdsUpdateCmd@@@Z 10062b90 f   RemoteAccessCore.obj
 0001:000621b0       ?NewIssueId@RemoteAccessCore@@AAEXABV?$basic_string@DU?$char_traits@D@std@@V?$allocator@D@2@@std@@0@Z 100631b0 f   RemoteAccessCore.obj
 0001:00062390       ?TellUpgradeResult@RemoteAccessCore@@QAEXI@Z 10063390 f   RemoteAccessCore.obj
 0001:000627a0       ?ChooseDownloadPath@RemoteAccessCore@@AAE?AV?$basic_string@DU?$char_traits@D@std@@V?$allocator@D@2@@std@@ABV23@@Z 100637a0 f   RemoteAccessCore.obj
 0001:00062830       ?ChooseConfirmPath@RemoteAccessCore@@AAE?AV?$basic_string@DU?$char_traits@D@std@@V?$allocator@D@2@@std@@V23@@Z 10063830 f   RemoteAccessCore.obj
 0001:00062910       ?SatisfyConfirmCondition@RemoteAccessCore@@AAE_NABURemoteAdsUpdateCmd@@ABV?$basic_string@DU?$char_traits@D@std@@V?$allocator@D@2@@std@@@Z 10063910 f   RemoteAccessCore.obj
 0001:00062a80       ?find@?$basic_string@DU?$char_traits@D@std@@V?$allocator@D@2@@std@@QBEIPBDI@Z 10063a80 f i RemoteAccessCore.obj
 0001:00062ab0       ?write@?$basic_ostream@DU?$char_traits@D@std@@@std@@QAEAAV12@PBDH@Z 10063ab0 f i RemoteAccessCore.obj
 0001:00062bb0       ?erase@?$_Tree@V?$_Tset_traits@V?$basic_string@DU?$char_traits@D@std@@V?$allocator@D@2@@std@@U?$less@V?$basic_string@DU?$char_traits@D@std@@V?$allocator@D@2@@std@@@2@V?$allocator@V?$basic_string@DU?$char_traits@D@std@@V?$allocator@D@2@@std@@@2@$0A@@std@@@std@@QAEIABV?$basic_string@DU?$char_traits@D@std@@V?$allocator@D@2@@2@@Z 10063bb0 f i RemoteAccessCore.obj
 0001:00062c20       ??A?$map@V?$basic_string@DU?$char_traits@D@std@@V?$allocator@D@2@@std@@V?$set@V?$basic_string@DU?$char_traits@D@std@@V?$allocator@D@2@@std@@U?$less@V?$basic_string@DU?$char_traits@D@std@@V?$allocator@D@2@@std@@@2@V?$allocator@V?$basic_string@DU?$char_traits@D@std@@V?$allocator@D@2@@std@@@2@@2@U?$less@V?$basic_string@DU?$char_traits@D@std@@V?$allocator@D@2@@std@@@2@V?$allocator@U?$pair@$$CBV?$basic_string@DU?$char_traits@D@std@@V?$allocator@D@2@@std@@V?$set@V?$basic_string@DU?$char_traits@D@std@@V?$allocator@D@2@@std@@U?$less@V?$basic_string@DU?$char_traits@D@std@@V?$allocator@D@2@@std@@@2@V?$allocator@V?$basic_string@DU?$char_traits@D@std@@V?$allocator@D@2@@std@@@2@@2@@std@@@2@@std@@QAEAAV?$set@V?$basic_string@DU?$char_traits@D@std@@V?$allocator@D@2@@std@@U?$less@V?$basic_string@DU?$char_traits@D@std@@V?$allocator@D@2@@std@@@2@V?$allocator@V?$basic_string@DU?$char_traits@D@std@@V?$allocator@D@2@@std@@@2@@1@ABV?$basic_string@DU?$char_traits@D@std@@V?$allocator@D@2@@1@@Z 10063c20 f i RemoteAccessCore.obj
 0001:00062d30       ?find@?$_Tree@V?$_Tmap_traits@V?$basic_string@DU?$char_traits@D@std@@V?$allocator@D@2@@std@@V?$set@V?$basic_string@DU?$char_traits@D@std@@V?$allocator@D@2@@std@@U?$less@V?$basic_string@DU?$char_traits@D@std@@V?$allocator@D@2@@std@@@2@V?$allocator@V?$basic_string@DU?$char_traits@D@std@@V?$allocator@D@2@@std@@@2@@2@U?$less@V?$basic_string@DU?$char_traits@D@std@@V?$allocator@D@2@@std@@@2@V?$allocator@U?$pair@$$CBV?$basic_string@DU?$char_traits@D@std@@V?$allocator@D@2@@std@@V?$set@V?$basic_string@DU?$char_traits@D@std@@V?$allocator@D@2@@std@@U?$less@V?$basic_string@DU?$char_traits@D@std@@V?$allocator@D@2@@std@@@2@V?$allocator@V?$basic_string@DU?$char_traits@D@std@@V?$allocator@D@2@@std@@@2@@2@@std@@@2@$0A@@std@@@std@@QAE?AViterator@12@ABV?$basic_string@DU?$char_traits@D@std@@V?$allocator@D@2@@2@@Z 10063d30 f i RemoteAccessCore.obj
 0001:00062db0       ??0?$basic_ofstream@DU?$char_traits@D@std@@@std@@QAE@XZ 10063db0 f i RemoteAccessCore.obj
 0001:00062e60       ??1?$basic_ofstream@DU?$char_traits@D@std@@@std@@UAE@XZ 10063e60 f i RemoteAccessCore.obj
 0001:00062ed0       ?open@?$basic_ofstream@DU?$char_traits@D@std@@@std@@QAEXPBDHH@Z 10063ed0 f i RemoteAccessCore.obj
 0001:00062f10       ?close@?$basic_ofstream@DU?$char_traits@D@std@@@std@@QAEXXZ 10063f10 f i RemoteAccessCore.obj
 0001:00062f40       ??1?$pair@$$CBV?$basic_string@DU?$char_traits@D@std@@V?$allocator@D@2@@std@@V?$set@V?$basic_string@DU?$char_traits@D@std@@V?$allocator@D@2@@std@@U?$less@V?$basic_string@DU?$char_traits@D@std@@V?$allocator@D@2@@std@@@2@V?$allocator@V?$basic_string@DU?$char_traits@D@std@@V?$allocator@D@2@@std@@@2@@2@@std@@QAE@XZ 10063f40 f i RemoteAccessCore.obj
 0001:00062fb0       ??_E?$basic_ofstream@DU?$char_traits@D@std@@@std@@UAEPAXI@Z 10063fb0 f i  CIL library: CIL module
 0001:00062fb0       ??_G?$basic_ofstream@DU?$char_traits@D@std@@@std@@UAEPAXI@Z 10063fb0 f i RemoteAccessCore.obj
 0001:00062ff0       ?find_first_of@?$basic_string@DU?$char_traits@D@std@@V?$allocator@D@2@@std@@QBEIPBDII@Z 10063ff0 f i RemoteAccessCore.obj
 0001:00063070       ?insert@?$_Tree@V?$_Tmap_traits@V?$basic_string@DU?$char_traits@D@std@@V?$allocator@D@2@@std@@V?$set@V?$basic_string@DU?$char_traits@D@std@@V?$allocator@D@2@@std@@U?$less@V?$basic_string@DU?$char_traits@D@std@@V?$allocator@D@2@@std@@@2@V?$allocator@V?$basic_string@DU?$char_traits@D@std@@V?$allocator@D@2@@std@@@2@@2@U?$less@V?$basic_string@DU?$char_traits@D@std@@V?$allocator@D@2@@std@@@2@V?$allocator@U?$pair@$$CBV?$basic_string@DU?$char_traits@D@std@@V?$allocator@D@2@@std@@V?$set@V?$basic_string@DU?$char_traits@D@std@@V?$allocator@D@2@@std@@U?$less@V?$basic_string@DU?$char_traits@D@std@@V?$allocator@D@2@@std@@@2@V?$allocator@V?$basic_string@DU?$char_traits@D@std@@V?$allocator@D@2@@std@@@2@@2@@std@@@2@$0A@@std@@@std@@QAE?AViterator@12@V312@ABU?$pair@$$CBV?$basic_string@DU?$char_traits@D@std@@V?$allocator@D@2@@std@@V?$set@V?$basic_string@DU?$char_traits@D@std@@V?$allocator@D@2@@std@@U?$less@V?$basic_string@DU?$char_traits@D@std@@V?$allocator@D@2@@std@@@2@V?$allocator@V?$basic_string@DU?$char_traits@D@std@@V?$allocator@D@2@@std@@@2@@2@@2@@Z 10064070 f i RemoteAccessCore.obj
 0001:000632a0       ?erase@?$_Tree@V?$_Tmap_traits@V?$basic_string@DU?$char_traits@D@std@@V?$allocator@D@2@@std@@V?$set@V?$basic_string@DU?$char_traits@D@std@@V?$allocator@D@2@@std@@U?$less@V?$basic_string@DU?$char_traits@D@std@@V?$allocator@D@2@@std@@@2@V?$allocator@V?$basic_string@DU?$char_traits@D@std@@V?$allocator@D@2@@std@@@2@@2@U?$less@V?$basic_string@DU?$char_traits@D@std@@V?$allocator@D@2@@std@@@2@V?$allocator@U?$pair@$$CBV?$basic_string@DU?$char_traits@D@std@@V?$allocator@D@2@@std@@V?$set@V?$basic_string@DU?$char_traits@D@std@@V?$allocator@D@2@@std@@U?$less@V?$basic_string@DU?$char_traits@D@std@@V?$allocator@D@2@@std@@@2@V?$allocator@V?$basic_string@DU?$char_traits@D@std@@V?$allocator@D@2@@std@@@2@@2@@std@@@2@$0A@@std@@@std@@QAE?AViterator@12@V312@0@Z 100642a0 f i RemoteAccessCore.obj
 0001:00063370       ?_Tidy@?$_Tree@V?$_Tmap_traits@V?$basic_string@DU?$char_traits@D@std@@V?$allocator@D@2@@std@@V?$set@V?$basic_string@DU?$char_traits@D@std@@V?$allocator@D@2@@std@@U?$less@V?$basic_string@DU?$char_traits@D@std@@V?$allocator@D@2@@std@@@2@V?$allocator@V?$basic_string@DU?$char_traits@D@std@@V?$allocator@D@2@@std@@@2@@2@U?$less@V?$basic_string@DU?$char_traits@D@std@@V?$allocator@D@2@@std@@@2@V?$allocator@U?$pair@$$CBV?$basic_string@DU?$char_traits@D@std@@V?$allocator@D@2@@std@@V?$set@V?$basic_string@DU?$char_traits@D@std@@V?$allocator@D@2@@std@@U?$less@V?$basic_string@DU?$char_traits@D@std@@V?$allocator@D@2@@std@@@2@V?$allocator@V?$basic_string@DU?$char_traits@D@std@@V?$allocator@D@2@@std@@@2@@2@@std@@@2@$0A@@std@@@std@@IAEXXZ 10064370 f i RemoteAccessCore.obj
 0001:000633b0       ??0?$pair@$$CBV?$basic_string@DU?$char_traits@D@std@@V?$allocator@D@2@@std@@V?$set@V?$basic_string@DU?$char_traits@D@std@@V?$allocator@D@2@@std@@U?$less@V?$basic_string@DU?$char_traits@D@std@@V?$allocator@D@2@@std@@@2@V?$allocator@V?$basic_string@DU?$char_traits@D@std@@V?$allocator@D@2@@std@@@2@@2@@std@@QAE@ABV?$basic_string@DU?$char_traits@D@std@@V?$allocator@D@2@@1@ABV?$set@V?$basic_string@DU?$char_traits@D@std@@V?$allocator@D@2@@std@@U?$less@V?$basic_string@DU?$char_traits@D@std@@V?$allocator@D@2@@std@@@2@V?$allocator@V?$basic_string@DU?$char_traits@D@std@@V?$allocator@D@2@@std@@@2@@1@@Z 100643b0 f i RemoteAccessCore.obj
 0001:00063430       ?insert@?$_Tree@V?$_Tmap_traits@V?$basic_string@DU?$char_traits@D@std@@V?$allocator@D@2@@std@@V?$set@V?$basic_string@DU?$char_traits@D@std@@V?$allocator@D@2@@std@@U?$less@V?$basic_string@DU?$char_traits@D@std@@V?$allocator@D@2@@std@@@2@V?$allocator@V?$basic_string@DU?$char_traits@D@std@@V?$allocator@D@2@@std@@@2@@2@U?$less@V?$basic_string@DU?$char_traits@D@std@@V?$allocator@D@2@@std@@@2@V?$allocator@U?$pair@$$CBV?$basic_string@DU?$char_traits@D@std@@V?$allocator@D@2@@std@@V?$set@V?$basic_string@DU?$char_traits@D@std@@V?$allocator@D@2@@std@@U?$less@V?$basic_string@DU?$char_traits@D@std@@V?$allocator@D@2@@std@@@2@V?$allocator@V?$basic_string@DU?$char_traits@D@std@@V?$allocator@D@2@@std@@@2@@2@@std@@@2@$0A@@std@@@std@@QAE?AU?$pair@Viterator@?$_Tree@V?$_Tmap_traits@V?$basic_string@DU?$char_traits@D@std@@V?$allocator@D@2@@std@@V?$set@V?$basic_string@DU?$char_traits@D@std@@V?$allocator@D@2@@std@@U?$less@V?$basic_string@DU?$char_traits@D@std@@V?$allocator@D@2@@std@@@2@V?$allocator@V?$basic_string@DU?$char_traits@D@std@@V?$allocator@D@2@@std@@@2@@2@U?$less@V?$basic_string@DU?$char_traits@D@std@@V?$allocator@D@2@@std@@@2@V?$allocator@U?$pair@$$CBV?$basic_string@DU?$char_traits@D@std@@V?$allocator@D@2@@std@@V?$set@V?$basic_string@DU?$char_traits@D@std@@V?$allocator@D@2@@std@@U?$less@V?$basic_string@DU?$char_traits@D@std@@V?$allocator@D@2@@std@@@2@V?$allocator@V?$basic_string@DU?$char_traits@D@std@@V?$allocator@D@2@@std@@@2@@2@@std@@@2@$0A@@std@@@std@@_N@2@ABU?$pair@$$CBV?$basic_string@DU?$char_traits@D@std@@V?$allocator@D@2@@std@@V?$set@V?$basic_string@DU?$char_traits@D@std@@V?$allocator@D@2@@std@@U?$less@V?$basic_string@DU?$char_traits@D@std@@V?$allocator@D@2@@std@@@2@V?$allocator@V?$basic_string@DU?$char_traits@D@std@@V?$allocator@D@2@@std@@@2@@2@@2@@Z 10064430 f i RemoteAccessCore.obj
 0001:00063590       ?erase@?$_Tree@V?$_Tmap_traits@V?$basic_string@DU?$char_traits@D@std@@V?$allocator@D@2@@std@@V?$set@V?$basic_string@DU?$char_traits@D@std@@V?$allocator@D@2@@std@@U?$less@V?$basic_string@DU?$char_traits@D@std@@V?$allocator@D@2@@std@@@2@V?$allocator@V?$basic_string@DU?$char_traits@D@std@@V?$allocator@D@2@@std@@@2@@2@U?$less@V?$basic_string@DU?$char_traits@D@std@@V?$allocator@D@2@@std@@@2@V?$allocator@U?$pair@$$CBV?$basic_string@DU?$char_traits@D@std@@V?$allocator@D@2@@std@@V?$set@V?$basic_string@DU?$char_traits@D@std@@V?$allocator@D@2@@std@@U?$less@V?$basic_string@DU?$char_traits@D@std@@V?$allocator@D@2@@std@@@2@V?$allocator@V?$basic_string@DU?$char_traits@D@std@@V?$allocator@D@2@@std@@@2@@2@@std@@@2@$0A@@std@@@std@@QAE?AViterator@12@V312@@Z 10064590 f i RemoteAccessCore.obj
 0001:00063890       ?_Insert@?$_Tree@V?$_Tmap_traits@V?$basic_string@DU?$char_traits@D@std@@V?$allocator@D@2@@std@@V?$set@V?$basic_string@DU?$char_traits@D@std@@V?$allocator@D@2@@std@@U?$less@V?$basic_string@DU?$char_traits@D@std@@V?$allocator@D@2@@std@@@2@V?$allocator@V?$basic_string@DU?$char_traits@D@std@@V?$allocator@D@2@@std@@@2@@2@U?$less@V?$basic_string@DU?$char_traits@D@std@@V?$allocator@D@2@@std@@@2@V?$allocator@U?$pair@$$CBV?$basic_string@DU?$char_traits@D@std@@V?$allocator@D@2@@std@@V?$set@V?$basic_string@DU?$char_traits@D@std@@V?$allocator@D@2@@std@@U?$less@V?$basic_string@DU?$char_traits@D@std@@V?$allocator@D@2@@std@@@2@V?$allocator@V?$basic_string@DU?$char_traits@D@std@@V?$allocator@D@2@@std@@@2@@2@@std@@@2@$0A@@std@@@std@@IAE?AViterator@12@_NPAU_Node@?$_Tree_nod@V?$_Tmap_traits@V?$basic_string@DU?$char_traits@D@std@@V?$allocator@D@2@@std@@V?$set@V?$basic_string@DU?$char_traits@D@std@@V?$allocator@D@2@@std@@U?$less@V?$basic_string@DU?$char_traits@D@std@@V?$allocator@D@2@@std@@@2@V?$allocator@V?$basic_string@DU?$char_traits@D@std@@V?$allocator@D@2@@std@@@2@@2@U?$less@V?$basic_string@DU?$char_traits@D@std@@V?$allocator@D@2@@std@@@2@V?$allocator@U?$pair@$$CBV?$basic_string@DU?$char_traits@D@std@@V?$allocator@D@2@@std@@V?$set@V?$basic_string@DU?$char_traits@D@std@@V?$allocator@D@2@@std@@U?$less@V?$basic_string@DU?$char_traits@D@std@@V?$allocator@D@2@@std@@@2@V?$allocator@V?$basic_string@DU?$char_traits@D@std@@V?$allocator@D@2@@std@@@2@@2@@std@@@2@$0A@@std@@@2@ABU?$pair@$$CBV?$basic_string@DU?$char_traits@D@std@@V?$allocator@D@2@@std@@V?$set@V?$basic_string@DU?$char_traits@D@std@@V?$allocator@D@2@@std@@U?$less@V?$basic_string@DU?$char_traits@D@std@@V?$allocator@D@2@@std@@@2@V?$allocator@V?$basic_string@DU?$char_traits@D@std@@V?$allocator@D@2@@std@@@2@@2@@2@@Z 10064890 f i RemoteAccessCore.obj
 0001:00063a80       ?_Lbound@?$_Tree@V?$_Tmap_traits@V?$basic_string@DU?$char_traits@D@std@@V?$allocator@D@2@@std@@V?$set@V?$basic_string@DU?$char_traits@D@std@@V?$allocator@D@2@@std@@U?$less@V?$basic_string@DU?$char_traits@D@std@@V?$allocator@D@2@@std@@@2@V?$allocator@V?$basic_string@DU?$char_traits@D@std@@V?$allocator@D@2@@std@@@2@@2@U?$less@V?$basic_string@DU?$char_traits@D@std@@V?$allocator@D@2@@std@@@2@V?$allocator@U?$pair@$$CBV?$basic_string@DU?$char_traits@D@std@@V?$allocator@D@2@@std@@V?$set@V?$basic_string@DU?$char_traits@D@std@@V?$allocator@D@2@@std@@U?$less@V?$basic_string@DU?$char_traits@D@std@@V?$allocator@D@2@@std@@@2@V?$allocator@V?$basic_string@DU?$char_traits@D@std@@V?$allocator@D@2@@std@@@2@@2@@std@@@2@$0A@@std@@@std@@IBEPAU_Node@?$_Tree_nod@V?$_Tmap_traits@V?$basic_string@DU?$char_traits@D@std@@V?$allocator@D@2@@std@@V?$set@V?$basic_string@DU?$char_traits@D@std@@V?$allocator@D@2@@std@@U?$less@V?$basic_string@DU?$char_traits@D@std@@V?$allocator@D@2@@std@@@2@V?$allocator@V?$basic_string@DU?$char_traits@D@std@@V?$allocator@D@2@@std@@@2@@2@U?$less@V?$basic_string@DU?$char_traits@D@std@@V?$allocator@D@2@@std@@@2@V?$allocator@U?$pair@$$CBV?$basic_string@DU?$char_traits@D@std@@V?$allocator@D@2@@std@@V?$set@V?$basic_string@DU?$char_traits@D@std@@V?$allocator@D@2@@std@@U?$less@V?$basic_string@DU?$char_traits@D@std@@V?$allocator@D@2@@std@@@2@V?$allocator@V?$basic_string@DU?$char_traits@D@std@@V?$allocator@D@2@@std@@@2@@2@@std@@@2@$0A@@std@@@2@ABV?$basic_string@DU?$char_traits@D@std@@V?$allocator@D@2@@2@@Z 10064a80 f i RemoteAccessCore.obj
 0001:00063b10       ?_Erase@?$_Tree@V?$_Tmap_traits@V?$basic_string@DU?$char_traits@D@std@@V?$allocator@D@2@@std@@V?$set@V?$basic_string@DU?$char_traits@D@std@@V?$allocator@D@2@@std@@U?$less@V?$basic_string@DU?$char_traits@D@std@@V?$allocator@D@2@@std@@@2@V?$allocator@V?$basic_string@DU?$char_traits@D@std@@V?$allocator@D@2@@std@@@2@@2@U?$less@V?$basic_string@DU?$char_traits@D@std@@V?$allocator@D@2@@std@@@2@V?$allocator@U?$pair@$$CBV?$basic_string@DU?$char_traits@D@std@@V?$allocator@D@2@@std@@V?$set@V?$basic_string@DU?$char_traits@D@std@@V?$allocator@D@2@@std@@U?$less@V?$basic_string@DU?$char_traits@D@std@@V?$allocator@D@2@@std@@@2@V?$allocator@V?$basic_string@DU?$char_traits@D@std@@V?$allocator@D@2@@std@@@2@@2@@std@@@2@$0A@@std@@@std@@IAEXPAU_Node@?$_Tree_nod@V?$_Tmap_traits@V?$basic_string@DU?$char_traits@D@std@@V?$allocator@D@2@@std@@V?$set@V?$basic_string@DU?$char_traits@D@std@@V?$allocator@D@2@@std@@U?$less@V?$basic_string@DU?$char_traits@D@std@@V?$allocator@D@2@@std@@@2@V?$allocator@V?$basic_string@DU?$char_traits@D@std@@V?$allocator@D@2@@std@@@2@@2@U?$less@V?$basic_string@DU?$char_traits@D@std@@V?$allocator@D@2@@std@@@2@V?$allocator@U?$pair@$$CBV?$basic_string@DU?$char_traits@D@std@@V?$allocator@D@2@@std@@V?$set@V?$basic_string@DU?$char_traits@D@std@@V?$allocator@D@2@@std@@U?$less@V?$basic_string@DU?$char_traits@D@std@@V?$allocator@D@2@@std@@@2@V?$allocator@V?$basic_string@DU?$char_traits@D@std@@V?$allocator@D@2@@std@@@2@@2@@std@@@2@$0A@@std@@@2@@Z 10064b10 f i RemoteAccessCore.obj
 0001:00063b50       ?_Lrotate@?$_Tree@V?$_Tmap_traits@V?$basic_string@DU?$char_traits@D@std@@V?$allocator@D@2@@std@@V?$set@V?$basic_string@DU?$char_traits@D@std@@V?$allocator@D@2@@std@@U?$less@V?$basic_string@DU?$char_traits@D@std@@V?$allocator@D@2@@std@@@2@V?$allocator@V?$basic_string@DU?$char_traits@D@std@@V?$allocator@D@2@@std@@@2@@2@U?$less@V?$basic_string@DU?$char_traits@D@std@@V?$allocator@D@2@@std@@@2@V?$allocator@U?$pair@$$CBV?$basic_string@DU?$char_traits@D@std@@V?$allocator@D@2@@std@@V?$set@V?$basic_string@DU?$char_traits@D@std@@V?$allocator@D@2@@std@@U?$less@V?$basic_string@DU?$char_traits@D@std@@V?$allocator@D@2@@std@@@2@V?$allocator@V?$basic_string@DU?$char_traits@D@std@@V?$allocator@D@2@@std@@@2@@2@@std@@@2@$0A@@std@@@std@@IAEXPAU_Node@?$_Tree_nod@V?$_Tmap_traits@V?$basic_string@DU?$char_traits@D@std@@V?$allocator@D@2@@std@@V?$set@V?$basic_string@DU?$char_traits@D@std@@V?$allocator@D@2@@std@@U?$less@V?$basic_string@DU?$char_traits@D@std@@V?$allocator@D@2@@std@@@2@V?$allocator@V?$basic_string@DU?$char_traits@D@std@@V?$allocator@D@2@@std@@@2@@2@U?$less@V?$basic_string@DU?$char_traits@D@std@@V?$allocator@D@2@@std@@@2@V?$allocator@U?$pair@$$CBV?$basic_string@DU?$char_traits@D@std@@V?$allocator@D@2@@std@@V?$set@V?$basic_string@DU?$char_traits@D@std@@V?$allocator@D@2@@std@@U?$less@V?$basic_string@DU?$char_traits@D@std@@V?$allocator@D@2@@std@@@2@V?$allocator@V?$basic_string@DU?$char_traits@D@std@@V?$allocator@D@2@@std@@@2@@2@@std@@@2@$0A@@std@@@2@@Z 10064b50 f i RemoteAccessCore.obj
 0001:00063ba0       ?_Max@?$_Tree@V?$_Tmap_traits@V?$basic_string@DU?$char_traits@D@std@@V?$allocator@D@2@@std@@V?$set@V?$basic_string@DU?$char_traits@D@std@@V?$allocator@D@2@@std@@U?$less@V?$basic_string@DU?$char_traits@D@std@@V?$allocator@D@2@@std@@@2@V?$allocator@V?$basic_string@DU?$char_traits@D@std@@V?$allocator@D@2@@std@@@2@@2@U?$less@V?$basic_string@DU?$char_traits@D@std@@V?$allocator@D@2@@std@@@2@V?$allocator@U?$pair@$$CBV?$basic_string@DU?$char_traits@D@std@@V?$allocator@D@2@@std@@V?$set@V?$basic_string@DU?$char_traits@D@std@@V?$allocator@D@2@@std@@U?$less@V?$basic_string@DU?$char_traits@D@std@@V?$allocator@D@2@@std@@@2@V?$allocator@V?$basic_string@DU?$char_traits@D@std@@V?$allocator@D@2@@std@@@2@@2@@std@@@2@$0A@@std@@@std@@KAPAU_Node@?$_Tree_nod@V?$_Tmap_traits@V?$basic_string@DU?$char_traits@D@std@@V?$allocator@D@2@@std@@V?$set@V?$basic_string@DU?$char_traits@D@std@@V?$allocator@D@2@@std@@U?$less@V?$basic_string@DU?$char_traits@D@std@@V?$allocator@D@2@@std@@@2@V?$allocator@V?$basic_string@DU?$char_traits@D@std@@V?$allocator@D@2@@std@@@2@@2@U?$less@V?$basic_string@DU?$char_traits@D@std@@V?$allocator@D@2@@std@@@2@V?$allocator@U?$pair@$$CBV?$basic_string@DU?$char_traits@D@std@@V?$allocator@D@2@@std@@V?$set@V?$basic_string@DU?$char_traits@D@std@@V?$allocator@D@2@@std@@U?$less@V?$basic_string@DU?$char_traits@D@std@@V?$allocator@D@2@@std@@@2@V?$allocator@V?$basic_string@DU?$char_traits@D@std@@V?$allocator@D@2@@std@@@2@@2@@std@@@2@$0A@@std@@@2@PAU342@@Z 10064ba0 f i RemoteAccessCore.obj
 0001:00063bc0       ?_Rrotate@?$_Tree@V?$_Tmap_traits@V?$basic_string@DU?$char_traits@D@std@@V?$allocator@D@2@@std@@V?$set@V?$basic_string@DU?$char_traits@D@std@@V?$allocator@D@2@@std@@U?$less@V?$basic_string@DU?$char_traits@D@std@@V?$allocator@D@2@@std@@@2@V?$allocator@V?$basic_string@DU?$char_traits@D@std@@V?$allocator@D@2@@std@@@2@@2@U?$less@V?$basic_string@DU?$char_traits@D@std@@V?$allocator@D@2@@std@@@2@V?$allocator@U?$pair@$$CBV?$basic_string@DU?$char_traits@D@std@@V?$allocator@D@2@@std@@V?$set@V?$basic_string@DU?$char_traits@D@std@@V?$allocator@D@2@@std@@U?$less@V?$basic_string@DU?$char_traits@D@std@@V?$allocator@D@2@@std@@@2@V?$allocator@V?$basic_string@DU?$char_traits@D@std@@V?$allocator@D@2@@std@@@2@@2@@std@@@2@$0A@@std@@@std@@IAEXPAU_Node@?$_Tree_nod@V?$_Tmap_traits@V?$basic_string@DU?$char_traits@D@std@@V?$allocator@D@2@@std@@V?$set@V?$basic_string@DU?$char_traits@D@std@@V?$allocator@D@2@@std@@U?$less@V?$basic_string@DU?$char_traits@D@std@@V?$allocator@D@2@@std@@@2@V?$allocator@V?$basic_string@DU?$char_traits@D@std@@V?$allocator@D@2@@std@@@2@@2@U?$less@V?$basic_string@DU?$char_traits@D@std@@V?$allocator@D@2@@std@@@2@V?$allocator@U?$pair@$$CBV?$basic_string@DU?$char_traits@D@std@@V?$allocator@D@2@@std@@V?$set@V?$basic_string@DU?$char_traits@D@std@@V?$allocator@D@2@@std@@U?$less@V?$basic_string@DU?$char_traits@D@std@@V?$allocator@D@2@@std@@@2@V?$allocator@V?$basic_string@DU?$char_traits@D@std@@V?$allocator@D@2@@std@@@2@@2@@std@@@2@$0A@@std@@@2@@Z 10064bc0 f i RemoteAccessCore.obj
 0001:00063c10       ?_Ubound@?$_Tree@V?$_Tmap_traits@V?$basic_string@DU?$char_traits@D@std@@V?$allocator@D@2@@std@@V?$set@V?$basic_string@DU?$char_traits@D@std@@V?$allocator@D@2@@std@@U?$less@V?$basic_string@DU?$char_traits@D@std@@V?$allocator@D@2@@std@@@2@V?$allocator@V?$basic_string@DU?$char_traits@D@std@@V?$allocator@D@2@@std@@@2@@2@U?$less@V?$basic_string@DU?$char_traits@D@std@@V?$allocator@D@2@@std@@@2@V?$allocator@U?$pair@$$CBV?$basic_string@DU?$char_traits@D@std@@V?$allocator@D@2@@std@@V?$set@V?$basic_string@DU?$char_traits@D@std@@V?$allocator@D@2@@std@@U?$less@V?$basic_string@DU?$char_traits@D@std@@V?$allocator@D@2@@std@@@2@V?$allocator@V?$basic_string@DU?$char_traits@D@std@@V?$allocator@D@2@@std@@@2@@2@@std@@@2@$0A@@std@@@std@@IBEPAU_Node@?$_Tree_nod@V?$_Tmap_traits@V?$basic_string@DU?$char_traits@D@std@@V?$allocator@D@2@@std@@V?$set@V?$basic_string@DU?$char_traits@D@std@@V?$allocator@D@2@@std@@U?$less@V?$basic_string@DU?$char_traits@D@std@@V?$allocator@D@2@@std@@@2@V?$allocator@V?$basic_string@DU?$char_traits@D@std@@V?$allocator@D@2@@std@@@2@@2@U?$less@V?$basic_string@DU?$char_traits@D@std@@V?$allocator@D@2@@std@@@2@V?$allocator@U?$pair@$$CBV?$basic_string@DU?$char_traits@D@std@@V?$allocator@D@2@@std@@V?$set@V?$basic_string@DU?$char_traits@D@std@@V?$allocator@D@2@@std@@U?$less@V?$basic_string@DU?$char_traits@D@std@@V?$allocator@D@2@@std@@@2@V?$allocator@V?$basic_string@DU?$char_traits@D@std@@V?$allocator@D@2@@std@@@2@@2@@std@@@2@$0A@@std@@@2@ABV?$basic_string@DU?$char_traits@D@std@@V?$allocator@D@2@@2@@Z 10064c10 f i RemoteAccessCore.obj
 0001:00063cb0       ?_Buynode@?$_Tree@V?$_Tmap_traits@V?$basic_string@DU?$char_traits@D@std@@V?$allocator@D@2@@std@@V?$set@V?$basic_string@DU?$char_traits@D@std@@V?$allocator@D@2@@std@@U?$less@V?$basic_string@DU?$char_traits@D@std@@V?$allocator@D@2@@std@@@2@V?$allocator@V?$basic_string@DU?$char_traits@D@std@@V?$allocator@D@2@@std@@@2@@2@U?$less@V?$basic_string@DU?$char_traits@D@std@@V?$allocator@D@2@@std@@@2@V?$allocator@U?$pair@$$CBV?$basic_string@DU?$char_traits@D@std@@V?$allocator@D@2@@std@@V?$set@V?$basic_string@DU?$char_traits@D@std@@V?$allocator@D@2@@std@@U?$less@V?$basic_string@DU?$char_traits@D@std@@V?$allocator@D@2@@std@@@2@V?$allocator@V?$basic_string@DU?$char_traits@D@std@@V?$allocator@D@2@@std@@@2@@2@@std@@@2@$0A@@std@@@std@@IAEPAU_Node@?$_Tree_nod@V?$_Tmap_traits@V?$basic_string@DU?$char_traits@D@std@@V?$allocator@D@2@@std@@V?$set@V?$basic_string@DU?$char_traits@D@std@@V?$allocator@D@2@@std@@U?$less@V?$basic_string@DU?$char_traits@D@std@@V?$allocator@D@2@@std@@@2@V?$allocator@V?$basic_string@DU?$char_traits@D@std@@V?$allocator@D@2@@std@@@2@@2@U?$less@V?$basic_string@DU?$char_traits@D@std@@V?$allocator@D@2@@std@@@2@V?$allocator@U?$pair@$$CBV?$basic_string@DU?$char_traits@D@std@@V?$allocator@D@2@@std@@V?$set@V?$basic_string@DU?$char_traits@D@std@@V?$allocator@D@2@@std@@U?$less@V?$basic_string@DU?$char_traits@D@std@@V?$allocator@D@2@@std@@@2@V?$allocator@V?$basic_string@DU?$char_traits@D@std@@V?$allocator@D@2@@std@@@2@@2@@std@@@2@$0A@@std@@@2@XZ 10064cb0 f i RemoteAccessCore.obj
 0001:00063cf0       ?_Buynode@?$_Tree@V?$_Tmap_traits@V?$basic_string@DU?$char_traits@D@std@@V?$allocator@D@2@@std@@V?$set@V?$basic_string@DU?$char_traits@D@std@@V?$allocator@D@2@@std@@U?$less@V?$basic_string@DU?$char_traits@D@std@@V?$allocator@D@2@@std@@@2@V?$allocator@V?$basic_string@DU?$char_traits@D@std@@V?$allocator@D@2@@std@@@2@@2@U?$less@V?$basic_string@DU?$char_traits@D@std@@V?$allocator@D@2@@std@@@2@V?$allocator@U?$pair@$$CBV?$basic_string@DU?$char_traits@D@std@@V?$allocator@D@2@@std@@V?$set@V?$basic_string@DU?$char_traits@D@std@@V?$allocator@D@2@@std@@U?$less@V?$basic_string@DU?$char_traits@D@std@@V?$allocator@D@2@@std@@@2@V?$allocator@V?$basic_string@DU?$char_traits@D@std@@V?$allocator@D@2@@std@@@2@@2@@std@@@2@$0A@@std@@@std@@IAEPAU_Node@?$_Tree_nod@V?$_Tmap_traits@V?$basic_string@DU?$char_traits@D@std@@V?$allocator@D@2@@std@@V?$set@V?$basic_string@DU?$char_traits@D@std@@V?$allocator@D@2@@std@@U?$less@V?$basic_string@DU?$char_traits@D@std@@V?$allocator@D@2@@std@@@2@V?$allocator@V?$basic_string@DU?$char_traits@D@std@@V?$allocator@D@2@@std@@@2@@2@U?$less@V?$basic_string@DU?$char_traits@D@std@@V?$allocator@D@2@@std@@@2@V?$allocator@U?$pair@$$CBV?$basic_string@DU?$char_traits@D@std@@V?$allocator@D@2@@std@@V?$set@V?$basic_string@DU?$char_traits@D@std@@V?$allocator@D@2@@std@@U?$less@V?$basic_string@DU?$char_traits@D@std@@V?$allocator@D@2@@std@@@2@V?$allocator@V?$basic_string@DU?$char_traits@D@std@@V?$allocator@D@2@@std@@@2@@2@@std@@@2@$0A@@std@@@2@PAU342@00ABU?$pair@$$CBV?$basic_string@DU?$char_traits@D@std@@V?$allocator@D@2@@std@@V?$set@V?$basic_string@DU?$char_traits@D@std@@V?$allocator@D@2@@std@@U?$less@V?$basic_string@DU?$char_traits@D@std@@V?$allocator@D@2@@std@@@2@V?$allocator@V?$basic_string@DU?$char_traits@D@std@@V?$allocator@D@2@@std@@@2@@2@@2@D@Z 10064cf0 f i RemoteAccessCore.obj
 0001:00063d90       ?_Dec@const_iterator@?$_Tree@V?$_Tmap_traits@V?$basic_string@DU?$char_traits@D@std@@V?$allocator@D@2@@std@@V?$set@V?$basic_string@DU?$char_traits@D@std@@V?$allocator@D@2@@std@@U?$less@V?$basic_string@DU?$char_traits@D@std@@V?$allocator@D@2@@std@@@2@V?$allocator@V?$basic_string@DU?$char_traits@D@std@@V?$allocator@D@2@@std@@@2@@2@U?$less@V?$basic_string@DU?$char_traits@D@std@@V?$allocator@D@2@@std@@@2@V?$allocator@U?$pair@$$CBV?$basic_string@DU?$char_traits@D@std@@V?$allocator@D@2@@std@@V?$set@V?$basic_string@DU?$char_traits@D@std@@V?$allocator@D@2@@std@@U?$less@V?$basic_string@DU?$char_traits@D@std@@V?$allocator@D@2@@std@@@2@V?$allocator@V?$basic_string@DU?$char_traits@D@std@@V?$allocator@D@2@@std@@@2@@2@@std@@@2@$0A@@std@@@std@@QAEXXZ 10064d90 f i RemoteAccessCore.obj
 0001:00063e10       ?_Inc@const_iterator@?$_Tree@V?$_Tmap_traits@V?$basic_string@DU?$char_traits@D@std@@V?$allocator@D@2@@std@@V?$set@V?$basic_string@DU?$char_traits@D@std@@V?$allocator@D@2@@std@@U?$less@V?$basic_string@DU?$char_traits@D@std@@V?$allocator@D@2@@std@@@2@V?$allocator@V?$basic_string@DU?$char_traits@D@std@@V?$allocator@D@2@@std@@@2@@2@U?$less@V?$basic_string@DU?$char_traits@D@std@@V?$allocator@D@2@@std@@@2@V?$allocator@U?$pair@$$CBV?$basic_string@DU?$char_traits@D@std@@V?$allocator@D@2@@std@@V?$set@V?$basic_string@DU?$char_traits@D@std@@V?$allocator@D@2@@std@@U?$less@V?$basic_string@DU?$char_traits@D@std@@V?$allocator@D@2@@std@@@2@V?$allocator@V?$basic_string@DU?$char_traits@D@std@@V?$allocator@D@2@@std@@@2@@2@@std@@@2@$0A@@std@@@std@@QAEXXZ 10064e10 f i RemoteAccessCore.obj
 0001:00063e80       ??0?$pair@$$CBV?$basic_string@DU?$char_traits@D@std@@V?$allocator@D@2@@std@@V?$set@V?$basic_string@DU?$char_traits@D@std@@V?$allocator@D@2@@std@@U?$less@V?$basic_string@DU?$char_traits@D@std@@V?$allocator@D@2@@std@@@2@V?$allocator@V?$basic_string@DU?$char_traits@D@std@@V?$allocator@D@2@@std@@@2@@2@@std@@QAE@ABU01@@Z 10064e80 f i RemoteAccessCore.obj
 0001:00063f00       ??$_Allocate@U_Node@?$_Tree_nod@V?$_Tmap_traits@V?$basic_string@DU?$char_traits@D@std@@V?$allocator@D@2@@std@@V?$set@V?$basic_string@DU?$char_traits@D@std@@V?$allocator@D@2@@std@@U?$less@V?$basic_string@DU?$char_traits@D@std@@V?$allocator@D@2@@std@@@2@V?$allocator@V?$basic_string@DU?$char_traits@D@std@@V?$allocator@D@2@@std@@@2@@2@U?$less@V?$basic_string@DU?$char_traits@D@std@@V?$allocator@D@2@@std@@@2@V?$allocator@U?$pair@$$CBV?$basic_string@DU?$char_traits@D@std@@V?$allocator@D@2@@std@@V?$set@V?$basic_string@DU?$char_traits@D@std@@V?$allocator@D@2@@std@@U?$less@V?$basic_string@DU?$char_traits@D@std@@V?$allocator@D@2@@std@@@2@V?$allocator@V?$basic_string@DU?$char_traits@D@std@@V?$allocator@D@2@@std@@@2@@2@@std@@@2@$0A@@std@@@std@@@std@@YAPAU_Node@?$_Tree_nod@V?$_Tmap_traits@V?$basic_string@DU?$char_traits@D@std@@V?$allocator@D@2@@std@@V?$set@V?$basic_string@DU?$char_traits@D@std@@V?$allocator@D@2@@std@@U?$less@V?$basic_string@DU?$char_traits@D@std@@V?$allocator@D@2@@std@@@2@V?$allocator@V?$basic_string@DU?$char_traits@D@std@@V?$allocator@D@2@@std@@@2@@2@U?$less@V?$basic_string@DU?$char_traits@D@std@@V?$allocator@D@2@@std@@@2@V?$allocator@U?$pair@$$CBV?$basic_string@DU?$char_traits@D@std@@V?$allocator@D@2@@std@@V?$set@V?$basic_string@DU?$char_traits@D@std@@V?$allocator@D@2@@std@@U?$less@V?$basic_string@DU?$char_traits@D@std@@V?$allocator@D@2@@std@@@2@V?$allocator@V?$basic_string@DU?$char_traits@D@std@@V?$allocator@D@2@@std@@@2@@2@@std@@@2@$0A@@std@@@0@IPAU120@@Z 10064f00 f i RemoteAccessCore.obj
 0001:00063f60       ??$_Distance2@Vconst_iterator@?$_Tree@V?$_Tset_traits@V?$basic_string@DU?$char_traits@D@std@@V?$allocator@D@2@@std@@U?$less@V?$basic_string@DU?$char_traits@D@std@@V?$allocator@D@2@@std@@@2@V?$allocator@V?$basic_string@DU?$char_traits@D@std@@V?$allocator@D@2@@std@@@2@$0A@@std@@@std@@I@std@@YAXVconst_iterator@?$_Tree@V?$_Tset_traits@V?$basic_string@DU?$char_traits@D@std@@V?$allocator@D@2@@std@@U?$less@V?$basic_string@DU?$char_traits@D@std@@V?$allocator@D@2@@std@@@2@V?$allocator@V?$basic_string@DU?$char_traits@D@std@@V?$allocator@D@2@@std@@@2@$0A@@std@@@0@0AAIUbidirectional_iterator_tag@0@@Z 10064f60 f i LogFileExplorer.obj
 0001:00063f60       ??$_Distance2@Viterator@?$_Tree@V?$_Tset_traits@V?$basic_string@DU?$char_traits@D@std@@V?$allocator@D@2@@std@@U?$less@V?$basic_string@DU?$char_traits@D@std@@V?$allocator@D@2@@std@@@2@V?$allocator@V?$basic_string@DU?$char_traits@D@std@@V?$allocator@D@2@@std@@@2@$0A@@std@@@std@@I@std@@YAXViterator@?$_Tree@V?$_Tset_traits@V?$basic_string@DU?$char_traits@D@std@@V?$allocator@D@2@@std@@U?$less@V?$basic_string@DU?$char_traits@D@std@@V?$allocator@D@2@@std@@@2@V?$allocator@V?$basic_string@DU?$char_traits@D@std@@V?$allocator@D@2@@std@@@2@$0A@@std@@@0@0AAIUbidirectional_iterator_tag@0@@Z 10064f60 f i RemoteAccessCore.obj
 0001:00063fa0       ??$_Distance2@Viterator@?$_Tree@V?$_Tmap_traits@V?$basic_string@DU?$char_traits@D@std@@V?$allocator@D@2@@std@@V?$set@V?$basic_string@DU?$char_traits@D@std@@V?$allocator@D@2@@std@@U?$less@V?$basic_string@DU?$char_traits@D@std@@V?$allocator@D@2@@std@@@2@V?$allocator@V?$basic_string@DU?$char_traits@D@std@@V?$allocator@D@2@@std@@@2@@2@U?$less@V?$basic_string@DU?$char_traits@D@std@@V?$allocator@D@2@@std@@@2@V?$allocator@U?$pair@$$CBV?$basic_string@DU?$char_traits@D@std@@V?$allocator@D@2@@std@@V?$set@V?$basic_string@DU?$char_traits@D@std@@V?$allocator@D@2@@std@@U?$less@V?$basic_string@DU?$char_traits@D@std@@V?$allocator@D@2@@std@@@2@V?$allocator@V?$basic_string@DU?$char_traits@D@std@@V?$allocator@D@2@@std@@@2@@2@@std@@@2@$0A@@std@@@std@@I@std@@YAXViterator@?$_Tree@V?$_Tmap_traits@V?$basic_string@DU?$char_traits@D@std@@V?$allocator@D@2@@std@@V?$set@V?$basic_string@DU?$char_traits@D@std@@V?$allocator@D@2@@std@@U?$less@V?$basic_string@DU?$char_traits@D@std@@V?$allocator@D@2@@std@@@2@V?$allocator@V?$basic_string@DU?$char_traits@D@std@@V?$allocator@D@2@@std@@@2@@2@U?$less@V?$basic_string@DU?$char_traits@D@std@@V?$allocator@D@2@@std@@@2@V?$allocator@U?$pair@$$CBV?$basic_string@DU?$char_traits@D@std@@V?$allocator@D@2@@std@@V?$set@V?$basic_string@DU?$char_traits@D@std@@V?$allocator@D@2@@std@@U?$less@V?$basic_string@DU?$char_traits@D@std@@V?$allocator@D@2@@std@@@2@V?$allocator@V?$basic_string@DU?$char_traits@D@std@@V?$allocator@D@2@@std@@@2@@2@@std@@@2@$0A@@std@@@0@0AAIUbidirectional_iterator_tag@0@@Z 10064fa0 f i RemoteAccessCore.obj
 0001:00063fe0       ?GetNetPayConfigPath@@YA?AV?$basic_string@DU?$char_traits@D@std@@V?$allocator@D@2@@std@@XZ 10064fe0 f   RunParameter.obj
 0001:000640f0       ?GetSelfModulePath@@YA?AV?$basic_string@DU?$char_traits@D@std@@V?$allocator@D@2@@std@@XZ 100650f0 f   RunParameter.obj
 0001:000641b0       ?GetDllDir@@YA?AV?$basic_string@DU?$char_traits@D@std@@V?$allocator@D@2@@std@@XZ 100651b0 f   RunParameter.obj
 0001:00064230       ?GetDebitRequestCachePath@@YA?AV?$basic_string@DU?$char_traits@D@std@@V?$allocator@D@2@@std@@XZ 10065230 f   RunParameter.obj
 0001:000642f0       ?GetDebitParaTMPCachePath@@YA?AV?$basic_string@DU?$char_traits@D@std@@V?$allocator@D@2@@std@@XZ 100652f0 f   RunParameter.obj
 0001:000643b0       ?GetDebitRecordArchiveDir@@YA?AV?$basic_string@DU?$char_traits@D@std@@V?$allocator@D@2@@std@@XZ 100653b0 f   RunParameter.obj
 0001:00064470       ?GetETCPayURL@@YA?AV?$basic_string@DU?$char_traits@D@std@@V?$allocator@D@2@@std@@XZ 10065470 f   RunParameter.obj
 0001:000644a0       ?GetETCPayPort@@YAHXZ      100654a0 f   RunParameter.obj
 0001:000645e0       ?GetETCIP@@YA?AV?$basic_string@DU?$char_traits@D@std@@V?$allocator@D@2@@std@@XZ 100655e0 f   RunParameter.obj
 0001:000647b0       ?GetETCAuthURL@@YA?AV?$basic_string@DU?$char_traits@D@std@@V?$allocator@D@2@@std@@XZ 100657b0 f   RunParameter.obj
 0001:000647e0       ?ReadIniStr@@YA?AV?$basic_string@DU?$char_traits@D@std@@V?$allocator@D@2@@std@@ABV12@000@Z 100657e0 f   RunParameter.obj
 0001:000648d0       ?GetDebitCancleCachePath@@YA?AV?$basic_string@DU?$char_traits@D@std@@V?$allocator@D@2@@std@@XZ 100658d0 f   RunParameter.obj
 0001:00064990       ?GetInvoiceCancleCachePath@@YA?AV?$basic_string@DU?$char_traits@D@std@@V?$allocator@D@2@@std@@XZ 10065990 f   RunParameter.obj
 0001:00064a50       ?GetInvoiceCachePath@@YA?AV?$basic_string@DU?$char_traits@D@std@@V?$allocator@D@2@@std@@XZ 10065a50 f   RunParameter.obj
 0001:00064b10       ?GetSecondPayIP@@YA?AV?$basic_string@DU?$char_traits@D@std@@V?$allocator@D@2@@std@@XZ 10065b10 f   RunParameter.obj
 0001:00064ce0       ?GetPayIP@@YA?AV?$basic_string@DU?$char_traits@D@std@@V?$allocator@D@2@@std@@XZ 10065ce0 f   RunParameter.obj
 0001:00064eb0       ?GetUpdatePort@@YAHXZ      10065eb0 f   RunParameter.obj
 0001:00064ff0       ?GetPayPort@@YAHXZ         10065ff0 f   RunParameter.obj
 0001:00065130       ?GetMediaIP@@YA?AV?$basic_string@DU?$char_traits@D@std@@V?$allocator@D@2@@std@@XZ 10066130 f   RunParameter.obj
 0001:00065300       ?GetMediaPort@@YAHXZ       10066300 f   RunParameter.obj
 0001:00065440       ?GetInvoicePlateformIP@@YA?AV?$basic_string@DU?$char_traits@D@std@@V?$allocator@D@2@@std@@XZ 10066440 f   RunParameter.obj
 0001:00065610       ?GetInvoicePlateformSecondIP@@YA?AV?$basic_string@DU?$char_traits@D@std@@V?$allocator@D@2@@std@@XZ 10066610 f   RunParameter.obj
 0001:000657c0       ?GetInvoicePlateformPort@@YAHXZ 100667c0 f   RunParameter.obj
 0001:00065900       ?GetInvoiceUrlPrefix@@YA?AV?$basic_string@DU?$char_traits@D@std@@V?$allocator@D@2@@std@@XZ 10066900 f   RunParameter.obj
 0001:00065ad0       ?GetNetPayDllVersion@@YA?AV?$basic_string@DU?$char_traits@D@std@@V?$allocator@D@2@@std@@XZ 10066ad0 f   RunParameter.obj
 0001:00065b10       ?GetDeviceDllVersion@@YA?AV?$basic_string@DU?$char_traits@D@std@@V?$allocator@D@2@@std@@XZ 10066b10 f   RunParameter.obj
 0001:00065b50       ?GetTWProductSerialNo@@YA?AV?$basic_string@DU?$char_traits@D@std@@V?$allocator@D@2@@std@@XZ 10066b50 f   RunParameter.obj
 0001:00065b90       ?GetNFCTerminal@@YA?AV?$basic_string@DU?$char_traits@D@std@@V?$allocator@D@2@@std@@XZ 10066b90 f   RunParameter.obj
 0001:00065c60       ?GetNFCSerialNo@@YA?AV?$basic_string@DU?$char_traits@D@std@@V?$allocator@D@2@@std@@XZ 10066c60 f   RunParameter.obj
 0001:00065d30       ?IsUseAgencyDll@@YA_NXZ    10066d30 f   RunParameter.obj
 0001:00065e70       ?IsUseUnifyPayChannelCode@@YA_NXZ 10066e70 f   RunParameter.obj
 0001:00065fb0       ?IsUseExternMMI@@YA_NXZ    10066fb0 f   RunParameter.obj
 0001:000660f0       ?GetDuplicateDebitShortestMinutes@@YAHXZ 100670f0 f   RunParameter.obj
 0001:00066230       ?Over@CountDown@Util@@QAE_NXZ 10067230 f   SimpleUtil.obj
 0001:00066290       ?LoadSqlite@sqlite3_agent@@SAXPBD@Z 10067290 f   sqlite3_agent.obj
 0001:00066490       ?UnloadSqlite@sqlite3_agent@@SAXXZ 10067490 f   sqlite3_agent.obj
 0001:00066540       ?sqlite3_errmsg_fun@sqlite3_agent@@SAPBDPAUsqlite3@@@Z 10067540 f   sqlite3_agent.obj
 0001:00066560       ??0CSQLite3@@QAE@XZ        10067560 f   SQLite3Base.obj
 0001:000665f0       ??1CSQLite3@@QAE@XZ        100675f0 f   SQLite3Base.obj
 0001:000666a0       ?ExecuteSQL@CSQLite3@@QAE?BHABV?$CStringT@DV?$StrTraitMFC@DV?$ChTraitsCRT@D@ATL@@@@@ATL@@ABH@Z 100676a0 f   SQLite3Base.obj
 0001:00066a50       ?TMP_MbcsToUtf8@@YAPADPBD@Z 10067a50 f   SQLite3Base.obj
 0001:00066c00       ?OpenConnection@CSQLite3@@QAE?BHABH@Z 10067c00 f   SQLite3Base.obj
 0001:00066df0       ?CloseConnection@CSQLite3@@QAE?BHXZ 10067df0 f   SQLite3Base.obj
 0001:00066e20       ?CloseConnection_noexcept@CSQLite3@@AAE?BHXZ 10067e20 f   SQLite3Base.obj
 0001:00066f30       ?CloseRecordSet@CSQLite3@@QAE?BHXZ 10067f30 f   SQLite3Base.obj
 0001:00066f50       ?CloseRecordSet_noexcept@CSQLite3@@AAE?BHXZ 10067f50 f   SQLite3Base.obj
 0001:00067080       ?CheckTableExists@CSQLite3@@QAE?BHABV?$CStringT@DV?$StrTraitMFC@DV?$ChTraitsCRT@D@ATL@@@@@ATL@@@Z 10068080 f   SQLite3Base.obj
 0001:00067300       ?EffectRows@CSQLite3@@QAE?BHABV?$CStringT@DV?$StrTraitMFC@DV?$ChTraitsCRT@D@ATL@@@@@ATL@@@Z 10068300 f   SQLite3Base.obj
 0001:00067680       ?IsEOF@CSQLite3@@QAE?BHXZ  10068680 f   SQLite3Base.obj
 0001:000676b0       ?GetColumnValue@CSQLite3@@QAE?BHABV?$CStringT@DV?$StrTraitMFC@DV?$ChTraitsCRT@D@ATL@@@@@ATL@@AAV23@@Z 100686b0 f   SQLite3Base.obj
 0001:00067830       ?GetColumnValue@CSQLite3@@QAE?BHABV?$CStringT@DV?$StrTraitMFC@DV?$ChTraitsCRT@D@ATL@@@@@ATL@@AAH@Z 10068830 f   SQLite3Base.obj
 0001:000679a0       ?GetColumnValue@CSQLite3@@QAE?BHABV?$CStringT@DV?$StrTraitMFC@DV?$ChTraitsCRT@D@ATL@@@@@ATL@@AAVCTime@3@@Z 100689a0 f   SQLite3Base.obj
 0001:00067c10       ?AutoShrinkageDatabase@CSQLite3@@AAE?BHXZ 10068c10 f   SQLite3Base.obj
 0001:00067ca0       ?Find@?$CStringT@DV?$StrTraitMFC@DV?$ChTraitsCRT@D@ATL@@@@@ATL@@QBEHPBDH@Z 10068ca0 f i SQLite3Base.obj
 0001:00067cd0       ??GCOleDateTime@ATL@@QBE?AVCOleDateTimeSpan@1@ABV01@@Z 10068cd0 f i SQLite3Base.obj
 0001:00067d80       ??4COleDateTime@ATL@@QAEAAV01@AB_J@Z 10068d80 f i SQLite3Base.obj
 0001:00067de0       ?GetAsSystemTime@CTime@ATL@@QBE_NAAU_SYSTEMTIME@@@Z 10068de0 f i SQLite3Base.obj
 0001:00067e50       ?AtlConvertSystemTimeToVariantTime@ATL@@YAHABU_SYSTEMTIME@@PAN@Z 10068e50 f i SQLite3Base.obj
 0001:00067f00       ?ParseDateTime@COleDateTime@ATL@@QAE_NPBDKK@Z 10068f00 f i SQLite3Base.obj
 0001:00068040       ?ThreadProc@CStandTask@trawe@@SGKPAX@Z 10069040 f   StandTask.obj
 0001:00068050       ??_ECStandTask@trawe@@UAEPAXI@Z 10069050 f i  CIL library: CIL module
 0001:00068050       ??_GCStandTask@trawe@@UAEPAXI@Z 10069050 f i StandTask.obj
 0001:00068070       ??1CStandTask@trawe@@UAE@XZ 10069070 f   StandTask.obj
 0001:000680d0       ?RunBody@CStandTask@trawe@@UAEXXZ 100690d0 f   StandTask.obj
 0001:000680e0       ?Execute@CStandTask@trawe@@QAEXXZ 100690e0 f   StandTask.obj
 0001:00068180       ?Resume@CStandTask@trawe@@QAEXXZ 10069180 f   StandTask.obj
 0001:000681b0       ?Stop@CStandTask@trawe@@QAE_NXZ 100691b0 f   StandTask.obj
 0001:00068220       ?_Copy_s@?$char_traits@_W@std@@SAPA_WPA_WIPB_WI@Z 10069220 f i string_func.obj
 0001:00068250       ?_Move_s@?$char_traits@_W@std@@SAPA_WPA_WIPB_WI@Z 10069250 f i string_func.obj
 0001:00068280       ?Int2str@@YA?AV?$basic_string@DU?$char_traits@D@std@@V?$allocator@D@2@@std@@H@Z 10069280 f   string_func.obj
 0001:00068300       ?Split_str@@YA?AV?$list@V?$basic_string@DU?$char_traits@D@std@@V?$allocator@D@2@@std@@V?$allocator@V?$basic_string@DU?$char_traits@D@std@@V?$allocator@D@2@@std@@@2@@std@@AAV?$basic_string@DU?$char_traits@D@std@@V?$allocator@D@2@@2@D@Z 10069300 f   string_func.obj
 0001:000684b0       ?Filt_target_char@@YA?AV?$basic_string@DU?$char_traits@D@std@@V?$allocator@D@2@@std@@V12@D@Z 100694b0 f   string_func.obj
 0001:00068560       ??0?$basic_string@_WU?$char_traits@_W@std@@V?$allocator@_W@2@@std@@QAE@PB_W@Z 10069560 f i string_func.obj
 0001:000685a0       ??1?$basic_string@_WU?$char_traits@_W@std@@V?$allocator@_W@2@@std@@QAE@XZ 100695a0 f i string_func.obj
 0001:000685d0       ?_Tidy@?$basic_string@_WU?$char_traits@_W@std@@V?$allocator@_W@2@@std@@IAEX_NI@Z 100695d0 f i string_func.obj
 0001:00068620       ?assign@?$basic_string@_WU?$char_traits@_W@std@@V?$allocator@_W@2@@std@@QAEAAV12@PB_WI@Z 10069620 f i string_func.obj
 0001:00068700       ?_Eos@?$basic_string@_WU?$char_traits@_W@std@@V?$allocator@_W@2@@std@@IAEXI@Z 10069700 f i string_func.obj
 0001:00068730       ?assign@?$basic_string@_WU?$char_traits@_W@std@@V?$allocator@_W@2@@std@@QAEAAV12@ABV12@II@Z 10069730 f i string_func.obj
 0001:00068820       ?_Grow@?$basic_string@_WU?$char_traits@_W@std@@V?$allocator@_W@2@@std@@IAE_NI_N@Z 10069820 f i string_func.obj
 0001:000688f0       ?erase@?$basic_string@_WU?$char_traits@_W@std@@V?$allocator@_W@2@@std@@QAEAAV12@II@Z 100698f0 f i string_func.obj
 0001:00068990       ?_Copy@?$basic_string@_WU?$char_traits@_W@std@@V?$allocator@_W@2@@std@@IAEXII@Z 10069990 f i string_func.obj
 0001:00068ae0       ??$_Allocate@_W@std@@YAPA_WIPA_W@Z 10069ae0 f i string_func.obj
 0001:00068b40       _wmemmove_s                10069b40 f i string_func.obj
 0001:00068b60       _wmemcpy_s                 10069b60 f i string_func.obj
 0001:00068b80       ?Init@CSuperLog@@SAHABV?$CStringT@DV?$StrTraitMFC@DV?$ChTraitsCRT@D@ATL@@@@@ATL@@00@Z 10069b80 f   SuperLog.obj
 0001:00068eb0       ?Quit@CSuperLog@@SAXXZ     10069eb0 f   SuperLog.obj
 0001:00068f30       ?WriteLog@CSuperLog@@SAHABV?$CStringT@DV?$StrTraitMFC@DV?$ChTraitsCRT@D@ATL@@@@@ATL@@ABHAB_N@Z 10069f30 f   SuperLog.obj
 0001:00069310       ?WriteLogToFile@CSuperLog@@CA?BHXZ 1006a310 f   SuperLog.obj
 0001:00069400       ?OpenLogFile@CSuperLog@@CA?AW4enLogStatus@1@XZ 1006a400 f   SuperLog.obj
 0001:00069560       ?OperateConfigInfo@CSuperLog@@CAHABH@Z 1006a560 f   SuperLog.obj
 0001:00069880       ?GetLogFilePath@CSuperLog@@CA?AV?$CStringT@DV?$StrTraitMFC@DV?$ChTraitsCRT@D@ATL@@@@@ATL@@XZ 1006a880 f   SuperLog.obj
 0001:00069950       ?GetCurTimeStr@CSuperLog@@CA?BV?$CStringT@DV?$StrTraitMFC@DV?$ChTraitsCRT@D@ATL@@@@@ATL@@XZ 1006a950 f   SuperLog.obj
 0001:00069a30       ?LogProcStart@CSuperLog@@CGIPAX@Z 1006aa30 f   SuperLog.obj
 0001:00069c40       ?GetTickCount@CTime@ATL@@SG?AV12@XZ 1006ac40 f i SuperLog.obj
 0001:00069c60       ?GetTraceMsgHeader@@YA?AV?$basic_string@DU?$char_traits@D@std@@V?$allocator@D@2@@std@@H@Z 1006ac60 f   SystemDiary.obj
 0001:00069da0       ?sys_trace_info@@YAXABV?$basic_string@DU?$char_traits@D@std@@V?$allocator@D@2@@std@@H@Z 1006ada0 f   SystemDiary.obj
 0001:00069f00       ??0CTableDebitCancel@@QAE@XZ 1006af00 f   TableDebitCancel.obj
 0001:00069fd0       ??1CTableDebitCancel@@QAE@XZ 1006afd0 f   TableDebitCancel.obj
 0001:0006a0c0       ?Save@CTableDebitCancel@@QAE?BHABVCDVDebitCancel@@@Z 1006b0c0 f   TableDebitCancel.obj
 0001:0006a2d0       ?Delete@CTableDebitCancel@@QAE?BHXZ 1006b2d0 f   TableDebitCancel.obj
 0001:0006a4b0       ?Retrieval@CTableDebitCancel@@QAE?BHAAVCDVDebitCancel@@@Z 1006b4b0 f   TableDebitCancel.obj
 0001:0006a7a0       ?UpdateProcessMark@CTableDebitCancel@@QAE?BHABV?$CStringT@DV?$StrTraitMFC@DV?$ChTraitsCRT@D@ATL@@@@@ATL@@@Z 1006b7a0 f   TableDebitCancel.obj
 0001:0006a970       ?InitDB@CTableDebitCancel@@AAE?BHABV?$CStringT@DV?$StrTraitMFC@DV?$ChTraitsCRT@D@ATL@@@@@ATL@@@Z 1006b970 f   TableDebitCancel.obj
 0001:0006a9c0       ?CloseDB@CTableDebitCancel@@AAE?BHXZ 1006b9c0 f   TableDebitCancel.obj
 0001:0006a9e0       ?CreateTable@CTableDebitCancel@@AAE?BHXZ 1006b9e0 f   TableDebitCancel.obj
 0001:0006ab20       ?ReadItem@CTableDebitCancel@@AAE?BHAAVCDVDebitCancel@@@Z 1006bb20 f   TableDebitCancel.obj
 0001:0006ae80       ?GetVerifyCode@CTableDebitCancel@@AAE?BV?$CStringT@DV?$StrTraitMFC@DV?$ChTraitsCRT@D@ATL@@@@@ATL@@ABVCDVDebitCancel@@@Z 1006be80 f   TableDebitCancel.obj
 0001:0006b040       ??GCTime@ATL@@QBE?AVCTimeSpan@1@V01@@Z 1006c040 f i TableDebitCancel.obj
 0001:0006b060       ?CreateObject@CThreadBase@@SGPAVCObject@@XZ 1006c060 f   ThreadBase.obj
 0001:0006b0d0       ?GetRuntimeClass@CThreadBase@@UBEPAUCRuntimeClass@@XZ 1006c0d0 f   ThreadBase.obj
 0001:0006b0e0       ??0CThreadBase@@IAE@XZ     1006c0e0 f   ThreadBase.obj
 0001:0006b170       ??_GCThreadBase@@MAEPAXI@Z 1006c170 f i ThreadBase.obj
 0001:0006b170       ??_ECThreadBase@@MAEPAXI@Z 1006c170 f i  CIL library: CIL module
 0001:0006b190       ??1CThreadBase@@MAE@XZ     1006c190 f   ThreadBase.obj
 0001:0006b1e0       ?ExitInstance@CThreadUpdate@@UAEHXZ 1006c1e0 f   ThreadUpdate.obj
 0001:0006b1e0       ?ExitInstance@CThreadBase@@UAEHXZ 1006c1e0 f   ThreadBase.obj
 0001:0006b1f0       ?GetMessageMap@CThreadBase@@MBEPBUAFX_MSGMAP@@XZ 1006c1f0 f   ThreadBase.obj
 0001:0006b1f0       ?GetThisMessageMap@CThreadBase@@KGPBUAFX_MSGMAP@@XZ 1006c1f0 f   ThreadBase.obj
 0001:0006b200       ?OnIdle@CThreadBase@@UAEHJ@Z 1006c200 f   ThreadBase.obj
 0001:0006b230       ??0_Locimp@locale@std@@AAE@_N@Z 1006c230 f i ThreadDevice.obj
 0001:0006b2b0       ??0locale@std@@QAE@PBDH@Z  1006c2b0 f i ThreadDevice.obj
 0001:0006b420       ??0CUpdateData@@QAE@XZ     1006c420 f i ThreadDevice.obj
 0001:0006b690       ??1CUpdateData@@UAE@XZ     1006c690 f i ThreadDevice.obj
 0001:0006b830       ??_ECUpdateData@@UAEPAXI@Z 1006c830 f i  CIL library: CIL module
 0001:0006b830       ??_GCUpdateData@@UAEPAXI@Z 1006c830 f i ThreadDevice.obj
 0001:0006b850       ?CreateObject@CThreadDevice@@SGPAVCObject@@XZ 1006c850 f   ThreadDevice.obj
 0001:0006b8c0       ?GetRuntimeClass@CThreadDevice@@UBEPAUCRuntimeClass@@XZ 1006c8c0 f   ThreadDevice.obj
 0001:0006b8d0       ??0CThreadDevice@@QAE@XZ   1006c8d0 f   ThreadDevice.obj
 0001:0006bbe0       ??_ECThreadDevice@@UAEPAXI@Z 1006cbe0 f i  CIL library: CIL module
 0001:0006bbe0       ??_GCThreadDevice@@UAEPAXI@Z 1006cbe0 f i ThreadDevice.obj
 0001:0006bc00       ?Write_dev_id@CThreadDevice@@AAEXXZ 1006cc00 f   ThreadDevice.obj
 0001:0006bc50       ??1CThreadDevice@@UAE@XZ   1006cc50 f   ThreadDevice.obj
 0001:0006bdd0       ??_GCHTSDDeviceDll@@QAEPAXI@Z 1006cdd0 f i ThreadDevice.obj
 0001:0006be20       ?InitInstance@CThreadDevice@@UAEHXZ 1006ce20 f   ThreadDevice.obj
 0001:0006be40       ?ExitInstance@CThreadDevice@@UAEHXZ 1006ce40 f   ThreadDevice.obj
 0001:0006bec0       ?GetMessageMap@CThreadDevice@@MBEPBUAFX_MSGMAP@@XZ 1006cec0 f   ThreadDevice.obj
 0001:0006bed0       ?OnIdle@CThreadDevice@@UAEHJ@Z 1006ced0 f   ThreadDevice.obj
 0001:0006c2b0       ?EtcEventInitDev@CThreadDevice@@QAE_NAAI0AAPAUHWND__@@HHPAX@Z 1006d2b0 f   ThreadDevice.obj
 0001:0006c310       ?ConstructClearScreenJson@CThreadDevice@@QAE?AV?$CStringT@DV?$StrTraitMFC@DV?$ChTraitsCRT@D@ATL@@@@@ATL@@XZ 1006d310 f   ThreadDevice.obj
 0001:0006c5b0       ?OnMsgStartGetData@CThreadDevice@@IAEXIJ@Z 1006d5b0 f   ThreadDevice.obj
 0001:0006c6f0       ?OnMsgStopGetData@CThreadDevice@@IAEXIJ@Z 1006d6f0 f   ThreadDevice.obj
 0001:0006c8a0       ?OnMsgGetData@CThreadDevice@@IAEXIJ@Z 1006d8a0 f   ThreadDevice.obj
 0001:0006cbf0       ?OnMsgShowDealInfo@CThreadDevice@@IAEXIJ@Z 1006dbf0 f   ThreadDevice.obj
 0001:0006cd70       ??_G?$CStringT@DV?$StrTraitMFC@DV?$ChTraitsCRT@D@ATL@@@@@ATL@@QAEPAXI@Z 1006dd70 f i ThreadDevice.obj
 0001:0006cdb0       ?OnMsgStartDebitFlow@CThreadDevice@@IAEXIJ@Z 1006ddb0 f   ThreadDevice.obj
 0001:0006d180       ?OnMsgFeeDisplay@CThreadDevice@@IAEXIJ@Z 1006e180 f   ThreadDevice.obj
 0001:0006d370       ?OnMsgPayResultDisplay@CThreadDevice@@IAEXIJ@Z 1006e370 f   ThreadDevice.obj
 0001:0006d560       ?OnMsgQrcodeDisplay@CThreadDevice@@IAEXIJ@Z 1006e560 f   ThreadDevice.obj
 0001:0006d750       ?OnMsgControlResultMMI@CThreadDevice@@IAEXIJ@Z 1006e750 f   ThreadDevice.obj
 0001:0006d940       ?OnMsgIssueData@CThreadDevice@@IAEXIJ@Z 1006e940 f   ThreadDevice.obj
 0001:0006dc60       ?UpdateDeviceTime@CThreadDevice@@AAEHXZ 1006ec60 f   ThreadDevice.obj
 0001:0006df20       ?SetPayErrorMsgInfo@CThreadDevice@@AAEXABHAB_N@Z 1006ef20 f   ThreadDevice.obj
 0001:0006e3d0       ?ReadWebConfig@CThreadDevice@@QAEXXZ 1006f3d0 f   ThreadDevice.obj
 0001:0006e4c0       ?LocalDBCheck@CThreadDevice@@QAEXXZ 1006f4c0 f   ThreadDevice.obj
 0001:0006e620       ?ArrayCheck@CThreadDevice@@QAEXXZ 1006f620 f   ThreadDevice.obj
 0001:0006ed70       ?GGPublish@CThreadDevice@@QAEXH@Z 1006fd70 f   ThreadDevice.obj
 0001:0006f330       ?GetLocalDB2Array@CThreadDevice@@QAEHPBD0AAVCUpdateData@@HAAV?$CStringT@DV?$StrTraitMFC@DV?$ChTraitsCRT@D@ATL@@@@@ATL@@@Z 10070330 f   ThreadDevice.obj
 0001:0006faf0       ?SetLocalDBTransMark@CThreadDevice@@QAEHPBD0AAVCUpdateData@@AAV?$CStringT@DV?$StrTraitMFC@DV?$ChTraitsCRT@D@ATL@@@@@ATL@@@Z 10070af0 f   ThreadDevice.obj
 0001:0006feb0       ?OnMsgRemoteUpgradeResult@CThreadDevice@@IAEXIJ@Z 10070eb0 f   ThreadDevice.obj
 0001:0006ff20       ?OnMsgPlaySoundOfPaying@CThreadDevice@@IAEXIJ@Z 10070f20 f   ThreadDevice.obj
 0001:00070000       ?TransferUserDefineData@CThreadDevice@@QAEXABV?$basic_string@DU?$char_traits@D@std@@V?$allocator@D@2@@std@@0@Z 10071000 f   ThreadDevice.obj
 0001:00070220       ?DebitHintTextMap@@YA?AV?$map@HV?$basic_string@DU?$char_traits@D@std@@V?$allocator@D@2@@std@@U?$less@H@2@V?$allocator@U?$pair@$$CBHV?$basic_string@DU?$char_traits@D@std@@V?$allocator@D@2@@std@@@std@@@2@@std@@XZ 10071220 f   ThreadDevice.obj
 0001:000705a0       ??1?$map@HV?$basic_string@DU?$char_traits@D@std@@V?$allocator@D@2@@std@@U?$less@H@2@V?$allocator@U?$pair@$$CBHV?$basic_string@DU?$char_traits@D@std@@V?$allocator@D@2@@std@@@std@@@2@@std@@QAE@XZ 100715a0 f i ThreadDevice.obj
 0001:000705b0       ?DebitHintSoundMap@@YA?AV?$map@HV?$basic_string@DU?$char_traits@D@std@@V?$allocator@D@2@@std@@U?$less@H@2@V?$allocator@U?$pair@$$CBHV?$basic_string@DU?$char_traits@D@std@@V?$allocator@D@2@@std@@@std@@@2@@std@@XZ 100715b0 f   ThreadDevice.obj
 0001:00070930       ?SetDebitSuccessHint@CThreadDevice@@AAEXH@Z 10071930 f   ThreadDevice.obj
 0001:00070dc0       ??A?$map@HV?$basic_string@DU?$char_traits@D@std@@V?$allocator@D@2@@std@@U?$less@H@2@V?$allocator@U?$pair@$$CBHV?$basic_string@DU?$char_traits@D@std@@V?$allocator@D@2@@std@@@std@@@2@@std@@QAEAAV?$basic_string@DU?$char_traits@D@std@@V?$allocator@D@2@@1@ABH@Z 10071dc0 f i ThreadDevice.obj
 0001:00070ef0       ?find@?$_Tree@V?$_Tmap_traits@HV?$basic_string@DU?$char_traits@D@std@@V?$allocator@D@2@@std@@U?$less@H@2@V?$allocator@U?$pair@$$CBHV?$basic_string@DU?$char_traits@D@std@@V?$allocator@D@2@@std@@@std@@@2@$0A@@std@@@std@@QAE?AViterator@12@ABH@Z 10071ef0 f i ThreadDevice.obj
 0001:00070f60       ??1?$pair@$$CBHV?$basic_string@DU?$char_traits@D@std@@V?$allocator@D@2@@std@@@std@@QAE@XZ 10071f60 f i ThreadDevice.obj
 0001:00070f60       ??1?$pair@$$CBHUJsonLastError@@@std@@QAE@XZ 10071f60 f i JsonHelper.obj
 0001:00070f90       ?insert@?$_Tree@V?$_Tmap_traits@HV?$basic_string@DU?$char_traits@D@std@@V?$allocator@D@2@@std@@U?$less@H@2@V?$allocator@U?$pair@$$CBHV?$basic_string@DU?$char_traits@D@std@@V?$allocator@D@2@@std@@@std@@@2@$0A@@std@@@std@@QAE?AViterator@12@V312@ABU?$pair@$$CBHV?$basic_string@DU?$char_traits@D@std@@V?$allocator@D@2@@std@@@2@@Z 10071f90 f i ThreadDevice.obj
 0001:00071150       ?_Tidy@?$_Tree@V?$_Tmap_traits@HV?$basic_string@DU?$char_traits@D@std@@V?$allocator@D@2@@std@@U?$less@H@2@V?$allocator@U?$pair@$$CBHV?$basic_string@DU?$char_traits@D@std@@V?$allocator@D@2@@std@@@std@@@2@$0A@@std@@@std@@IAEXXZ 10072150 f i ThreadDevice.obj
 0001:00071190       ?insert@?$_Tree@V?$_Tmap_traits@HV?$basic_string@DU?$char_traits@D@std@@V?$allocator@D@2@@std@@U?$less@H@2@V?$allocator@U?$pair@$$CBHV?$basic_string@DU?$char_traits@D@std@@V?$allocator@D@2@@std@@@std@@@2@$0A@@std@@@std@@QAE?AU?$pair@Viterator@?$_Tree@V?$_Tmap_traits@HV?$basic_string@DU?$char_traits@D@std@@V?$allocator@D@2@@std@@U?$less@H@2@V?$allocator@U?$pair@$$CBHV?$basic_string@DU?$char_traits@D@std@@V?$allocator@D@2@@std@@@std@@@2@$0A@@std@@@std@@_N@2@ABU?$pair@$$CBHV?$basic_string@DU?$char_traits@D@std@@V?$allocator@D@2@@std@@@2@@Z 10072190 f i ThreadDevice.obj
 0001:00071270       ?erase@?$_Tree@V?$_Tmap_traits@HV?$basic_string@DU?$char_traits@D@std@@V?$allocator@D@2@@std@@U?$less@H@2@V?$allocator@U?$pair@$$CBHV?$basic_string@DU?$char_traits@D@std@@V?$allocator@D@2@@std@@@std@@@2@$0A@@std@@@std@@QAE?AViterator@12@V312@0@Z 10072270 f i ThreadDevice.obj
 0001:00071340       ?_Insert@?$_Tree@V?$_Tmap_traits@HV?$basic_string@DU?$char_traits@D@std@@V?$allocator@D@2@@std@@U?$less@H@2@V?$allocator@U?$pair@$$CBHV?$basic_string@DU?$char_traits@D@std@@V?$allocator@D@2@@std@@@std@@@2@$0A@@std@@@std@@IAE?AViterator@12@_NPAU_Node@?$_Tree_nod@V?$_Tmap_traits@HV?$basic_string@DU?$char_traits@D@std@@V?$allocator@D@2@@std@@U?$less@H@2@V?$allocator@U?$pair@$$CBHV?$basic_string@DU?$char_traits@D@std@@V?$allocator@D@2@@std@@@std@@@2@$0A@@std@@@2@ABU?$pair@$$CBHV?$basic_string@DU?$char_traits@D@std@@V?$allocator@D@2@@std@@@2@@Z 10072340 f i ThreadDevice.obj
 0001:00071530       ?_Max@?$_Tree@V?$_Tmap_traits@HV?$basic_string@DU?$char_traits@D@std@@V?$allocator@D@2@@std@@U?$less@H@2@V?$allocator@U?$pair@$$CBHV?$basic_string@DU?$char_traits@D@std@@V?$allocator@D@2@@std@@@std@@@2@$0A@@std@@@std@@KAPAU_Node@?$_Tree_nod@V?$_Tmap_traits@HV?$basic_string@DU?$char_traits@D@std@@V?$allocator@D@2@@std@@U?$less@H@2@V?$allocator@U?$pair@$$CBHV?$basic_string@DU?$char_traits@D@std@@V?$allocator@D@2@@std@@@std@@@2@$0A@@std@@@2@PAU342@@Z 10072530 f i ThreadDevice.obj
 0001:00071530       ?_Max@?$_Tree@V?$_Tmap_traits@HUJsonLastError@@U?$less@H@std@@V?$allocator@U?$pair@$$CBHUJsonLastError@@@std@@@3@$0A@@std@@@std@@KAPAU_Node@?$_Tree_nod@V?$_Tmap_traits@HUJsonLastError@@U?$less@H@std@@V?$allocator@U?$pair@$$CBHUJsonLastError@@@std@@@3@$0A@@std@@@2@PAU342@@Z 10072530 f i JsonHelper.obj
 0001:00071550       ?_Min@?$_Tree@V?$_Tmap_traits@HV?$basic_string@DU?$char_traits@D@std@@V?$allocator@D@2@@std@@U?$less@H@2@V?$allocator@U?$pair@$$CBHV?$basic_string@DU?$char_traits@D@std@@V?$allocator@D@2@@std@@@std@@@2@$0A@@std@@@std@@KAPAU_Node@?$_Tree_nod@V?$_Tmap_traits@HV?$basic_string@DU?$char_traits@D@std@@V?$allocator@D@2@@std@@U?$less@H@2@V?$allocator@U?$pair@$$CBHV?$basic_string@DU?$char_traits@D@std@@V?$allocator@D@2@@std@@@std@@@2@$0A@@std@@@2@PAU342@@Z 10072550 f i ThreadDevice.obj
 0001:00071570       ?_Buynode@?$_Tree@V?$_Tmap_traits@HUJsonLastError@@U?$less@H@std@@V?$allocator@U?$pair@$$CBHUJsonLastError@@@std@@@3@$0A@@std@@@std@@IAEPAU_Node@?$_Tree_nod@V?$_Tmap_traits@HUJsonLastError@@U?$less@H@std@@V?$allocator@U?$pair@$$CBHUJsonLastError@@@std@@@3@$0A@@std@@@2@XZ 10072570 f i JsonHelper.obj
 0001:00071570       ?_Buynode@?$_Tree@V?$_Tmap_traits@HV?$basic_string@DU?$char_traits@D@std@@V?$allocator@D@2@@std@@U?$less@H@2@V?$allocator@U?$pair@$$CBHV?$basic_string@DU?$char_traits@D@std@@V?$allocator@D@2@@std@@@std@@@2@$0A@@std@@@std@@IAEPAU_Node@?$_Tree_nod@V?$_Tmap_traits@HV?$basic_string@DU?$char_traits@D@std@@V?$allocator@D@2@@std@@U?$less@H@2@V?$allocator@U?$pair@$$CBHV?$basic_string@DU?$char_traits@D@std@@V?$allocator@D@2@@std@@@std@@@2@$0A@@std@@@2@XZ 10072570 f i ThreadDevice.obj
 0001:000715b0       ?erase@?$_Tree@V?$_Tmap_traits@HV?$basic_string@DU?$char_traits@D@std@@V?$allocator@D@2@@std@@U?$less@H@2@V?$allocator@U?$pair@$$CBHV?$basic_string@DU?$char_traits@D@std@@V?$allocator@D@2@@std@@@std@@@2@$0A@@std@@@std@@QAE?AViterator@12@V312@@Z 100725b0 f i ThreadDevice.obj
 0001:000718a0       ?_Lrotate@?$_Tree@V?$_Tmap_traits@HV?$basic_string@DU?$char_traits@D@std@@V?$allocator@D@2@@std@@U?$less@H@2@V?$allocator@U?$pair@$$CBHV?$basic_string@DU?$char_traits@D@std@@V?$allocator@D@2@@std@@@std@@@2@$0A@@std@@@std@@IAEXPAU_Node@?$_Tree_nod@V?$_Tmap_traits@HV?$basic_string@DU?$char_traits@D@std@@V?$allocator@D@2@@std@@U?$less@H@2@V?$allocator@U?$pair@$$CBHV?$basic_string@DU?$char_traits@D@std@@V?$allocator@D@2@@std@@@std@@@2@$0A@@std@@@2@@Z 100728a0 f i ThreadDevice.obj
 0001:000718f0       ?_Rrotate@?$_Tree@V?$_Tmap_traits@HV?$basic_string@DU?$char_traits@D@std@@V?$allocator@D@2@@std@@U?$less@H@2@V?$allocator@U?$pair@$$CBHV?$basic_string@DU?$char_traits@D@std@@V?$allocator@D@2@@std@@@std@@@2@$0A@@std@@@std@@IAEXPAU_Node@?$_Tree_nod@V?$_Tmap_traits@HV?$basic_string@DU?$char_traits@D@std@@V?$allocator@D@2@@std@@U?$less@H@2@V?$allocator@U?$pair@$$CBHV?$basic_string@DU?$char_traits@D@std@@V?$allocator@D@2@@std@@@std@@@2@$0A@@std@@@2@@Z 100728f0 f i ThreadDevice.obj
 0001:00071940       ?_Buynode@?$_Tree@V?$_Tmap_traits@HV?$basic_string@DU?$char_traits@D@std@@V?$allocator@D@2@@std@@U?$less@H@2@V?$allocator@U?$pair@$$CBHV?$basic_string@DU?$char_traits@D@std@@V?$allocator@D@2@@std@@@std@@@2@$0A@@std@@@std@@IAEPAU_Node@?$_Tree_nod@V?$_Tmap_traits@HV?$basic_string@DU?$char_traits@D@std@@V?$allocator@D@2@@std@@U?$less@H@2@V?$allocator@U?$pair@$$CBHV?$basic_string@DU?$char_traits@D@std@@V?$allocator@D@2@@std@@@std@@@2@$0A@@std@@@2@PAU342@00ABU?$pair@$$CBHV?$basic_string@DU?$char_traits@D@std@@V?$allocator@D@2@@std@@@2@D@Z 10072940 f i ThreadDevice.obj
 0001:00071a00       ?_Dec@const_iterator@?$_Tree@V?$_Tmap_traits@HV?$basic_string@DU?$char_traits@D@std@@V?$allocator@D@2@@std@@U?$less@H@2@V?$allocator@U?$pair@$$CBHV?$basic_string@DU?$char_traits@D@std@@V?$allocator@D@2@@std@@@std@@@2@$0A@@std@@@std@@QAEXXZ 10072a00 f i ThreadDevice.obj
 0001:00071a00       ?_Dec@const_iterator@?$_Tree@V?$_Tmap_traits@HUJsonLastError@@U?$less@H@std@@V?$allocator@U?$pair@$$CBHUJsonLastError@@@std@@@3@$0A@@std@@@std@@QAEXXZ 10072a00 f i JsonHelper.obj
 0001:00071a80       ?RemoveAll@?$CArray@UtagUpdateInfo@@AAU1@@@QAEXXZ 10072a80 f i ThreadDevice.obj
 0001:00071aa0       ??A?$CArray@UtagUpdateInfo@@AAU1@@@QAEAAUtagUpdateInfo@@H@Z 10072aa0 f i ThreadDevice.obj
 0001:00071ac0       ??1?$CArray@UtagUpdateInfo@@AAU1@@@UAE@XZ 10072ac0 f i ThreadDevice.obj
 0001:00071ae0       ?Serialize@?$CArray@UtagUpdateInfo@@AAU1@@@UAEXAAVCArchive@@@Z 10072ae0 f i ThreadDevice.obj
 0001:00071b30       ??_E?$CArray@UtagUpdateInfo@@AAU1@@@UAEPAXI@Z 10072b30 f i  CIL library: CIL module
 0001:00071b30       ??_G?$CArray@UtagUpdateInfo@@AAU1@@@UAEPAXI@Z 10072b30 f i ThreadDevice.obj
 0001:00071b60       ?SetSize@?$CArray@UtagUpdateInfo@@AAU1@@@QAEXHH@Z 10072b60 f i ThreadDevice.obj
 0001:00071ca0       ??$SerializeElements@UtagUpdateInfo@@@@YGXAAVCArchive@@PAUtagUpdateInfo@@H@Z 10072ca0 f i ThreadDevice.obj
 0001:00071d50       ?CreateObject@CThreadHttp@@SGPAVCObject@@XZ 10072d50 f   ThreadHttp.obj
 0001:00071dc0       ?GetRuntimeClass@CThreadHttp@@UBEPAUCRuntimeClass@@XZ 10072dc0 f   ThreadHttp.obj
 0001:00071dd0       ??0CThreadHttp@@IAE@XZ     10072dd0 f   ThreadHttp.obj
 0001:00071fc0       ??_ECThreadHttp@@MAEPAXI@Z 10072fc0 f i  CIL library: CIL module
 0001:00071fc0       ??_GCThreadHttp@@MAEPAXI@Z 10072fc0 f i ThreadHttp.obj
 0001:00071fe0       ??1CThreadHttp@@MAE@XZ     10072fe0 f   ThreadHttp.obj
 0001:000721f0       ?InitInstance@CThreadHttp@@UAEHXZ 100731f0 f   ThreadHttp.obj
 0001:000722f0       ?ExitInstance@CThreadHttp@@UAEHXZ 100732f0 f   ThreadHttp.obj
 0001:00072310       ?GetThisMessageMap@CThreadHttp@@KGPBUAFX_MSGMAP@@XZ 10073310 f   ThreadHttp.obj
 0001:00072310       ?GetMessageMap@CThreadHttp@@MBEPBUAFX_MSGMAP@@XZ 10073310 f   ThreadHttp.obj
 0001:00072320       ?CheckUnProcessDebitCancelRecord@CThreadHttp@@IAEXXZ 10073320 f   ThreadHttp.obj
 0001:000725b0       ?fnReleaseResource@CThreadBase@@MAEXXZ 100735b0 f   ThreadBase.obj
 0001:000725b0       ??3@YAXPAX0@Z              100735b0 f   fs_funcs.obj
 0001:000725b0       ?fnReleaseResource@CThreadNFCSignIn@@MAEXXZ 100735b0 f   ThreadNFCSignIn.obj
 0001:000725b0       ?EtcCallBackFun@@YAXHHPAX@Z 100735b0 f   TWSDNetPay_Dll.obj
 0001:000725b0       ?fnReleaseResource@CThreadNotifyCaller@@MAEXXZ 100735b0 f   ThreadNotifyCaller.obj
 0001:000725b0       ?fnReadSpecailConfig@CThreadBase@@MAEXXZ 100735b0 f   ThreadBase.obj
 0001:000725b0       ?fnReleaseResource@CThreadHttp@@MAEXXZ 100735b0 f   ThreadHttp.obj
 0001:000725c0       ?fnReadSpecailConfig@CThreadHttp@@MAEXXZ 100735c0 f   ThreadHttp.obj
 0001:00073010       ?OnIdle@CThreadHttp@@UAEHJ@Z 10074010 f   ThreadHttp.obj
 0001:00073280       ?OnMsgSendQueryToReflectWeb@CThreadHttp@@IAEXIJ@Z 10074280 f   ThreadHttp.obj
 0001:000745c0       ??_GCDVJsonBase@@QAEPAXI@Z 100755c0 f i ThreadHttp.obj
 0001:000745e0       ??_GCJsonOperationIF@@QAEPAXI@Z 100755e0 f i ThreadHttp.obj
 0001:00074620       ?OnMsgSendHeart@CThreadHttp@@IAEXIJ@Z 10075620 f   ThreadHttp.obj
 0001:00074750       ?DataConvertFromJson2String@CThreadHttp@@IAE?BHABGPAVCDVJsonBase@@AAV?$CStringT@DV?$StrTraitMFC@DV?$ChTraitsCRT@D@ATL@@@@@ATL@@AAG2AAPAUHWND__@@AAHPAPAVCJsonOperationIF@@5H@Z 10075750 f   ThreadHttp.obj
 0001:00074bc0       ?SendData@CThreadHttp@@KGIPAX@Z 10075bc0 f   ThreadHttp.obj
 0001:00075600       ?CheckHeartState@CThreadHttp@@IAEXXZ 10076600 f   ThreadHttp.obj
 0001:00075990       ?StringConvertByCodePage@CThreadHttp@@KA?AV?$CStringT@DV?$StrTraitMFC@DV?$ChTraitsCRT@D@ATL@@@@@ATL@@ABV23@ABH1@Z 10076990 f   ThreadHttp.obj
 0001:00075b30       ?GetSendDataTypeDesc@CThreadHttp@@IAE?BV?$CStringT@DV?$StrTraitMFC@DV?$ChTraitsCRT@D@ATL@@@@@ATL@@ABH@Z 10076b30 f   ThreadHttp.obj
 0001:00075c10       ?CreateObject@CThreadManage@@SGPAVCObject@@XZ 10076c10 f   ThreadManage.obj
 0001:00075c80       ?GetRuntimeClass@CThreadManage@@UBEPAUCRuntimeClass@@XZ 10076c80 f   ThreadManage.obj
 0001:00075c90       ??0CThreadManage@@IAE@XZ   10076c90 f   ThreadManage.obj
 0001:00075e00       ??_ECThreadManage@@MAEPAXI@Z 10076e00 f i  CIL library: CIL module
 0001:00075e00       ??_GCThreadManage@@MAEPAXI@Z 10076e00 f i ThreadManage.obj
 0001:00075e20       ??1CThreadManage@@MAE@XZ   10076e20 f   ThreadManage.obj
 0001:00075f10       ?MoveConfigFileToExeDir@CThreadManage@@IAEXXZ 10076f10 f   ThreadManage.obj
 0001:00076340       ?modifyUpdateflagResult@CThreadManage@@IAEXXZ 10077340 f   ThreadManage.obj
 0001:00076a40       ?InitInstance@CThreadManage@@UAEHXZ 10077a40 f   ThreadManage.obj
 0001:00076a70       ?ExitInstance@CThreadManage@@UAEHXZ 10077a70 f   ThreadManage.obj
 0001:00076b00       ?GetMessageMap@CThreadManage@@MBEPBUAFX_MSGMAP@@XZ 10077b00 f   ThreadManage.obj
 0001:00076b10       ?OnIdle@CThreadManage@@UAEHJ@Z 10077b10 f   ThreadManage.obj
 0001:00076dd0       ?ThreadQuit@CThreadManage@@QAEXXZ 10077dd0 f   ThreadManage.obj
 0001:00076ed0       ?OnMsgStartGetAccountInfo@CThreadManage@@IAEXIJ@Z 10077ed0 f   ThreadManage.obj
 0001:00076ef0       ?OnMsgStopGetAccountInfo@CThreadManage@@IAEXIJ@Z 10077ef0 f   ThreadManage.obj
 0001:00076f50       ?OnMsgReceiveAccountInfo@CThreadManage@@IAEXIJ@Z 10077f50 f   ThreadManage.obj
 0001:00077310       ?OnMsgManageStartDebitFlow@CThreadManage@@IAEXIJ@Z 10078310 f   ThreadManage.obj
 0001:00077490       ?OnMsgOnlyDebitMoney@CThreadManage@@IAEXIJ@Z 10078490 f   ThreadManage.obj
 0001:00077620       ?OnMsgDebitCancel@CThreadManage@@IAEXIJ@Z 10078620 f   ThreadManage.obj
 0001:000778f0       ?CheckPayResultValidity@CThreadManage@@AAE_NABVCDVJsonDebit@@@Z 100788f0 f   ThreadManage.obj
 0001:00077920       ?OnMsgDealSubPayPlatformResponse@CThreadManage@@IAEXIJ@Z 10078920 f   ThreadManage.obj
 0001:000781f0       ??4CDVJsonBase@@QAEAAV0@ABV0@@Z 100791f0 f i ThreadManage.obj
 0001:000782a0       ?OnMsgCheckDebitPasswordState@CThreadManage@@IAEXIJ@Z 100792a0 f   ThreadManage.obj
 0001:00078430       ?OnMsgRevNFCSignDataFromHTTP@CThreadManage@@IAEXIJ@Z 10079430 f   ThreadManage.obj
 0001:00078630       ?OnMsgNFCStartSignInFlow@CThreadManage@@IAEXIJ@Z 10079630 f   ThreadManage.obj
 0001:00078710       ?fnReleaseResource@CThreadManage@@MAEXXZ 10079710 f   ThreadManage.obj
 0001:00078dc0       ?ContructDebitMoneyInfo@CThreadManage@@AAEHPBU_tagAccountInfo@@@Z 10079dc0 f   ThreadManage.obj
 0001:000793a0       ?ContructDebitMoneyInfo@CThreadManage@@AAEHXZ 1007a3a0 f   ThreadManage.obj
 0001:00079920       ?ContructDebitCancelInfo@CThreadManage@@AAEHABV?$CStringT@DV?$StrTraitMFC@DV?$ChTraitsCRT@D@ATL@@@@@ATL@@@Z 1007a920 f   ThreadManage.obj
 0001:00079b00       ?GetNetPayRecordMatchCode@CThreadManage@@AAE?BV?$CStringT@DV?$StrTraitMFC@DV?$ChTraitsCRT@D@ATL@@@@@ATL@@ABV23@@Z 1007ab00 f   ThreadManage.obj
 0001:0007aa20       ?CheckAndDeleteLogFile@CThreadManage@@AAEXXZ 1007ba20 f   ThreadManage.obj
 0001:0007b120       ?StartWorkThreads@CThreadManage@@QAE?BHABU_tagTranstParam@@@Z 1007c120 f   ThreadManage.obj
 0001:0007b600       ?StartTimer@CThreadManage@@QAEXABIABK@Z 1007c600 f   ThreadManage.obj
 0001:0007b870       ?StopTimer@CThreadManage@@QAEXABI@Z 1007c870 f   ThreadManage.obj
 0001:0007b920       ?FinishTrade@CThreadManage@@AAE?AV?$CStringT@DV?$StrTraitMFC@DV?$ChTraitsCRT@D@ATL@@@@@ATL@@ABH@Z 1007c920 f   ThreadManage.obj
 0001:0007bae0       ?OneMilliSecondProc@CThreadManage@@CGXIIKKK@Z 1007cae0 f   ThreadManage.obj
 0001:0007c000       ?SetAccountDataReadyState@CThreadManage@@QAEXABH@Z 1007d000 f   ThreadManage.obj
 0001:0007c030       ?NFCSignInDataProcessFromHTTP@CThreadManage@@AAEXABV?$CStringT@DV?$StrTraitMFC@DV?$ChTraitsCRT@D@ATL@@@@@ATL@@@Z 1007d030 f   ThreadManage.obj
 0001:0007c190       ?NFCSignInDataProcessFromPOS@CThreadManage@@AAEXAAVCNFCProtocol@@@Z 1007d190 f   ThreadManage.obj
 0001:0007c510       ?NFCConsumeDataProcessFromPOS@CThreadManage@@AAEXAAVCNFCProtocol@@@Z 1007d510 f   ThreadManage.obj
 0001:0007c8d0       ?NFCCorrectDataProcessFromPOS@CThreadManage@@AAEXAAVCNFCProtocol@@@Z 1007d8d0 f   ThreadManage.obj
 0001:0007cd50       ?NFCLinkTestDataProcessFromPOS@CThreadManage@@AAEXAAVCNFCProtocol@@@Z 1007dd50 f   ThreadManage.obj
 0001:0007ced0       ?NFCLocalTradeFailProcess@CThreadManage@@AAEXABH@Z 1007ded0 f   ThreadManage.obj
 0001:0007cfa0       ?NFCProcessErrorFrame@CThreadManage@@AAEXAAVCNFCProtocol@@@Z 1007dfa0 f   ThreadManage.obj
 0001:0007d0f0       ?NFCSendDefaultCmdToPos@CThreadManage@@AAEXABH@Z 1007e0f0 f   ThreadManage.obj
 0001:0007d2f0       ?OnMsgRemoteControlFirmware@CThreadManage@@IAEXIJ@Z 1007e2f0 f   ThreadManage.obj
 0001:0007d4f0       ?OnMsgRemoteUpgradeResult@CThreadManage@@IAEXIJ@Z 1007e4f0 f   ThreadManage.obj
 0001:0007d510       ?NFCParaQuery@CThreadManage@@QAEXABV?$CStringT@DV?$StrTraitMFC@DV?$ChTraitsCRT@D@ATL@@@@@ATL@@@Z 1007e510 f   ThreadManage.obj
 0001:0007d600       ?OnMsgQueryLPRImageId@CThreadManage@@IAEXIJ@Z 1007e600 f   ThreadManage.obj
 0001:0007d640       ?TransferCashInvoiceDataXML@CThreadManage@@QAE_NPBDABH@Z 1007e640 f   ThreadManage.obj
 0001:0007ebe0       ?TransferCashInvoiceDataJSON@CThreadManage@@QAE_NPBDABH@Z 1007fbe0 f   ThreadManage.obj
 0001:000803d0       ?CancelCashInvoiceDataXML@CThreadManage@@QAE_NPBDABH@Z 100813d0 f   ThreadManage.obj
 0001:00080800       ?CancelCashInvoiceDataJSON@CThreadManage@@QAE_NPBDABH@Z 10081800 f   ThreadManage.obj
 0001:00080dd0       ?getline@?$basic_istream@DU?$char_traits@D@std@@@std@@QAEAAV12@PADHD@Z 10081dd0 f i ThreadManage.obj
 0001:00080f80       ??0CTime@ATL@@QAE@HHHHHHH@Z 10081f80 f i ThreadManage.obj
 0001:00081060       ?CreateObject@CThreadNFCSignIn@@SGPAVCObject@@XZ 10082060 f   ThreadNFCSignIn.obj
 0001:00081100       ?GetRuntimeClass@CThreadNFCSignIn@@UBEPAUCRuntimeClass@@XZ 10082100 f   ThreadNFCSignIn.obj
 0001:00081110       ??_ECThreadNFCSignIn@@MAEPAXI@Z 10082110 f i  CIL library: CIL module
 0001:00081110       ??_GCThreadNFCSignIn@@MAEPAXI@Z 10082110 f i ThreadNFCSignIn.obj
 0001:000811a0       ?InitInstance@CThreadNFCSignIn@@UAEHXZ 100821a0 f   ThreadNFCSignIn.obj
 0001:000811b0       ?ExitInstance@CThreadNFCSignIn@@UAEHXZ 100821b0 f   ThreadNFCSignIn.obj
 0001:000811b0       ?ExitInstance@CThreadNotifyCaller@@UAEHXZ 100821b0 f   ThreadNotifyCaller.obj
 0001:000811d0       ?GetMessageMap@CThreadNFCSignIn@@MBEPBUAFX_MSGMAP@@XZ 100821d0 f   ThreadNFCSignIn.obj
 0001:000811e0       ?OnIdle@CThreadNFCSignIn@@UAEHJ@Z 100821e0 f   ThreadNFCSignIn.obj
 0001:00081530       ?OnMsgTransportSignInData@CThreadNFCSignIn@@IAEXIJ@Z 10082530 f   ThreadNFCSignIn.obj
 0001:00081ce0       ?OnMsgRevSignDataFromPOS@CThreadNFCSignIn@@IAEXIJ@Z 10082ce0 f   ThreadNFCSignIn.obj
 0001:00081df0       ?DataConvertFromJson2String@CThreadNFCSignIn@@IAE?BHABGPAVCDVJsonBase@@AAV?$CStringT@DV?$StrTraitMFC@DV?$ChTraitsCRT@D@ATL@@@@@ATL@@AAG2AAPAUHWND__@@AAHPAPAVCJsonOperationIF@@H@Z 10082df0 f   ThreadNFCSignIn.obj
 0001:00081f50       ?fnReadSpecailConfig@CThreadNFCSignIn@@EAEXXZ 10082f50 f   ThreadNFCSignIn.obj
 0001:00082100       ?ContructNFCSignInData@CThreadNFCSignIn@@AAEXABV?$CStringT@DV?$StrTraitMFC@DV?$ChTraitsCRT@D@ATL@@@@@ATL@@@Z 10083100 f   ThreadNFCSignIn.obj
 0001:00082310       ?SendData_WinHttp@CThreadNFCSignIn@@CGIPAX@Z 10083310 f   ThreadNFCSignIn.obj
 0001:000826e0       ?GetBuffer@?$CSimpleStringT@D$0A@@ATL@@QAEPADXZ 100836e0 f i ThreadNFCSignIn.obj
 0001:00082700       ?CreateObject@CThreadNotifyCaller@@SGPAVCObject@@XZ 10083700 f   ThreadNotifyCaller.obj
 0001:00082760       ?GetRuntimeClass@CThreadNotifyCaller@@UBEPAUCRuntimeClass@@XZ 10083760 f   ThreadNotifyCaller.obj
 0001:00082770       ??_GCThreadNotifyCaller@@UAEPAXI@Z 10083770 f i ThreadNotifyCaller.obj
 0001:00082770       ??_ECThreadNotifyCaller@@UAEPAXI@Z 10083770 f i  CIL library: CIL module
 0001:000827a0       ?InitInstance@CThreadNotifyCaller@@UAEHXZ 100837a0 f   ThreadNotifyCaller.obj
 0001:000828b0       ?GetMessageMap@CThreadNotifyCaller@@MBEPBUAFX_MSGMAP@@XZ 100838b0 f   ThreadNotifyCaller.obj
 0001:000828c0       ?OnMsgNotifyCaller@CThreadNotifyCaller@@IAEXIJ@Z 100838c0 f   ThreadNotifyCaller.obj
 0001:00082b70       ?CreateObject@CThreadUpdate@@SGPAVCObject@@XZ 10083b70 f   ThreadUpdate.obj
 0001:00082be0       ?GetRuntimeClass@CThreadUpdate@@UBEPAUCRuntimeClass@@XZ 10083be0 f   ThreadUpdate.obj
 0001:00082bf0       ??0CThreadUpdate@@IAE@XZ   10083bf0 f   ThreadUpdate.obj
 0001:00082f20       ??_ECThreadUpdate@@MAEPAXI@Z 10083f20 f i  CIL library: CIL module
 0001:00082f20       ??_GCThreadUpdate@@MAEPAXI@Z 10083f20 f i ThreadUpdate.obj
 0001:00082f40       ??1CThreadUpdate@@MAE@XZ   10083f40 f   ThreadUpdate.obj
 0001:00083130       ?InitInstance@CThreadUpdate@@UAEHXZ 10084130 f   ThreadUpdate.obj
 0001:000832b0       ?GetMessageMap@CThreadUpdate@@MBEPBUAFX_MSGMAP@@XZ 100842b0 f   ThreadUpdate.obj
 0001:000832c0       ?OnIdle@CThreadUpdate@@UAEHJ@Z 100842c0 f   ThreadUpdate.obj
 0001:00083380       ?ReadWebConfig@CThreadUpdate@@QAEXXZ 10084380 f   ThreadUpdate.obj
 0001:00083720       ?StringConvertByCodePage@CThreadUpdate@@QAE?AV?$CStringT@DV?$StrTraitMFC@DV?$ChTraitsCRT@D@ATL@@@@@ATL@@V23@HH@Z 10084720 f   ThreadUpdate.obj
 0001:000838e0       ?HTTPDeal@CThreadUpdate@@QAEXPAX@Z 100848e0 f   ThreadUpdate.obj
 0001:00084060       ??0_tagHttpParam@CThreadHttp@@QAE@XZ 10085060 f i ThreadHttp.obj
 0001:00084060       ??0_tagHttpParam@CThreadUpdate@@QAE@XZ 10085060 f i ThreadUpdate.obj
 0001:000840d0       ??1_tagHttpParam@CThreadHttp@@QAE@XZ 100850d0 f i ThreadHttp.obj
 0001:000840d0       ??1_tagHttpParam@CThreadUpdate@@QAE@XZ 100850d0 f i ThreadUpdate.obj
 0001:00084130       ?ComputeAES_MD5@CThreadUpdate@@QAEHHV?$CStringT@DV?$StrTraitMFC@DV?$ChTraitsCRT@D@ATL@@@@@ATL@@00_JAAV23@2@Z 10085130 f   ThreadUpdate.obj
 0001:00084670       ?GetDeviceNo@CThreadUpdate@@QAE?AV?$CStringT@DV?$StrTraitMFC@DV?$ChTraitsCRT@D@ATL@@@@@ATL@@HHV23@H@Z 10085670 f   ThreadUpdate.obj
 0001:00084750       ?OnUpdateConfirm@CThreadUpdate@@IAEXIJ@Z 10085750 f   ThreadUpdate.obj
 0001:00084aa0       ?GetConfirmJson@CThreadUpdate@@QAE?AV?$CStringT@DV?$StrTraitMFC@DV?$ChTraitsCRT@D@ATL@@@@@ATL@@V23@H@Z 10085aa0 f   ThreadUpdate.obj
 0001:000851e0       ?CreateLocalDB3@CThreadUpdate@@QAEHPBD0AAV?$CStringT@DV?$StrTraitMFC@DV?$ChTraitsCRT@D@ATL@@@@@ATL@@@Z 100861e0 f   ThreadUpdate.obj
 0001:000857d0       ?GetLocalDB2Array@CThreadUpdate@@QAEHPBD0AAVCUpdateData@@HAAV?$CStringT@DV?$StrTraitMFC@DV?$ChTraitsCRT@D@ATL@@@@@ATL@@@Z 100867d0 f   ThreadUpdate.obj
 0001:00085f90       ?GetDeviceType@@YA?AV?$basic_string@DU?$char_traits@D@std@@V?$allocator@D@2@@std@@XZ 10086f90 f   ThreadUpdate.obj
 0001:00086180       ?RemoteControl@CThreadUpdate@@AAEXXZ 10087180 f   ThreadUpdate.obj
 0001:00086720       ?GetData@CMarkup@@QAE?AV?$CStringT@DV?$StrTraitMFC@DV?$ChTraitsCRT@D@ATL@@@@@ATL@@XZ 10087720 f i TWSDNetPay_Dll.obj
 0001:00086740       ?GetLastErrorDesc@CJsonOperationIF@@QAE?BV?$CStringT@DV?$StrTraitMFC@DV?$ChTraitsCRT@D@ATL@@@@@ATL@@XZ 10087740 f i TWSDNetPay_Dll.obj
 0001:00086760       ??1CMessageTerminal@trawe@@UAE@XZ 10087760 f i TWSDNetPay_Dll.obj
 0001:00086770       ?ExecuteMessage@CMessageTerminal@trawe@@UAEHHPADH@Z 10087770 f i TWSDNetPay_Dll.obj
 0001:00086780       ??_ECMessageTerminal@trawe@@UAEPAXI@Z 10087780 f i  CIL library: CIL module
 0001:00086780       ??_GCMessageTerminal@trawe@@UAEPAXI@Z 10087780 f i TWSDNetPay_Dll.obj
 0001:000867a0       ??0CInterfaceTraceInfo@@QAE@ABV?$basic_string@DU?$char_traits@D@std@@V?$allocator@D@2@@std@@0@Z 100877a0 f i TWSDNetPay_Dll.obj
 0001:000868f0       ??1CInterfaceTraceInfo@@QAE@XZ 100878f0 f i TWSDNetPay_Dll.obj
 0001:00086a30       ?GetMessageMap@CTWSDNetPay_DllApp@@MBEPBUAFX_MSGMAP@@XZ 10087a30 f   TWSDNetPay_Dll.obj
 0001:00086a40       ?DataForwardRecv@@YAXHPADHH@Z 10087a40 f   TWSDNetPay_Dll.obj
 0001:00086a60       ??0CTWSDNetPay_DllApp@@QAE@XZ 10087a60 f   TWSDNetPay_Dll.obj
 0001:00086c40       ??_GCTWSDNetPay_DllApp@@UAEPAXI@Z 10087c40 f i TWSDNetPay_Dll.obj
 0001:00086c40       ??_ECTWSDNetPay_DllApp@@UAEPAXI@Z 10087c40 f i  CIL library: CIL module
 0001:00086c60       ??1CTWSDNetPay_DllApp@@UAE@XZ 10087c60 f   TWSDNetPay_Dll.obj
 0001:00086ed0       ?FmtStr@CTWSDNetPay_DllApp@@SA?AV?$CStringT@DV?$StrTraitMFC@DV?$ChTraitsCRT@D@ATL@@@@@ATL@@PBDZZ 10087ed0 f   TWSDNetPay_Dll.obj
 0001:00086f70       ?OleTimeToTime@@YA_JN@Z    10087f70 f   TWSDNetPay_Dll.obj
 0001:00087030       ?CString2time_t@CTWSDNetPay_DllApp@@SA_JPBD@Z 10088030 f   TWSDNetPay_Dll.obj
 0001:000871c0       ?GetGuidString@CTWSDNetPay_DllApp@@QAE?BV?$CStringT@DV?$StrTraitMFC@DV?$ChTraitsCRT@D@ATL@@@@@ATL@@ABH@Z 100881c0 f   TWSDNetPay_Dll.obj
 0001:000872f0       ?GetCurrentTimeString@CTWSDNetPay_DllApp@@SA?BV?$CStringT@DV?$StrTraitMFC@DV?$ChTraitsCRT@D@ATL@@@@@ATL@@ABH@Z 100882f0 f   TWSDNetPay_Dll.obj
 0001:00087420       ?MakeDirectory@CTWSDNetPay_DllApp@@SAHV?$CStringT@DV?$StrTraitMFC@DV?$ChTraitsCRT@D@ATL@@@@@ATL@@@Z 10088420 f   TWSDNetPay_Dll.obj
 0001:000877c0       ?GetVersionOfFile@CTWSDNetPay_DllApp@@SA?AV?$CStringT@DV?$StrTraitMFC@DV?$ChTraitsCRT@D@ATL@@@@@ATL@@PBD@Z 100887c0 f   TWSDNetPay_Dll.obj
 0001:000878c0       ?NotifyCaller@CTWSDNetPay_DllApp@@SAXABH0@Z 100888c0 f   TWSDNetPay_Dll.obj
 0001:00087a60       ?CheckIsAlNum@CTWSDNetPay_DllApp@@SAHPBDABH@Z 10088a60 f   TWSDNetPay_Dll.obj
 0001:00087ae0       ?CheckStringLetter@CTWSDNetPay_DllApp@@SAHPADH@Z 10088ae0 f   TWSDNetPay_Dll.obj
 0001:00087c00       ?InitInstance@CTWSDNetPay_DllApp@@UAEHXZ 10088c00 f   TWSDNetPay_Dll.obj
 0001:000882b0       ?ExitInstance@CTWSDNetPay_DllApp@@UAEHXZ 100892b0 f   TWSDNetPay_Dll.obj
 0001:000884d0       ?LogToDebugFile@@YAXV?$basic_string@DU?$char_traits@D@std@@V?$allocator@D@2@@std@@@Z 100894d0 f   TWSDNetPay_Dll.obj
 0001:00088520       ?IF_InitEnvironment@CTWSDNetPay_DllApp@@SG_NABIABQAUHWND__@@0PBD222ABH@Z 10089520 f   TWSDNetPay_Dll.obj
 0001:00089320       ?IF_InitEnvironment2@CTWSDNetPay_DllApp@@SG_NABIABQAUHWND__@@PBD222ABHP6GXHH@Z@Z 1008a320 f   TWSDNetPay_Dll.obj
 0001:00089ec0       ?IF_InitEnvironment3@CTWSDNetPay_DllApp@@SG_NABIABQAUHWND__@@PBD222ABHPAXP6GXHH4@Z@Z 1008aec0 f   TWSDNetPay_Dll.obj
 0001:0008aa40       ?IF_Destroy@CTWSDNetPay_DllApp@@SG_NXZ 1008ba40 f   TWSDNetPay_Dll.obj
 0001:0008ad80       ?IF_GetLastErrorDesc@CTWSDNetPay_DllApp@@SGPBDXZ 1008bd80 f   TWSDNetPay_Dll.obj
 0001:0008ae90       ?IF_StartGetAccountInfo@CTWSDNetPay_DllApp@@SG_NABH@Z 1008be90 f   TWSDNetPay_Dll.obj
 0001:0008b1c0       ?IF_StopGetAccountInfo@CTWSDNetPay_DllApp@@SG_NXZ 1008c1c0 f   TWSDNetPay_Dll.obj
 0001:0008b460       ?IF_GetAccountInfo@CTWSDNetPay_DllApp@@SG_NPADAAHABH@Z 1008c460 f   TWSDNetPay_Dll.obj
 0001:0008b9d0       ?IF_DebitMoney_Future@CTWSDNetPay_DllApp@@SG_NPBDABH1@Z 1008c9d0 f   TWSDNetPay_Dll.obj
 0001:0008bf60       ?IF_DebitMoney@CTWSDNetPay_DllApp@@SG_NPBDABH1@Z 1008cf60 f   TWSDNetPay_Dll.obj
 0001:0008c040       ?IF_DebitCancel_Future@CTWSDNetPay_DllApp@@SG_NPBDABH1@Z 1008d040 f   TWSDNetPay_Dll.obj
 0001:0008c530       ?IF_DebitCancel@CTWSDNetPay_DllApp@@SG_NPBDABH1@Z 1008d530 f   TWSDNetPay_Dll.obj
 0001:0008ca80       ?IF_GetDebitResult_Future@CTWSDNetPay_DllApp@@SG_NPADAAHABH@Z 1008da80 f   TWSDNetPay_Dll.obj
 0001:0008cea0       ?IF_GetDebitResult@CTWSDNetPay_DllApp@@SG_NPADAAHABH@Z 1008dea0 f   TWSDNetPay_Dll.obj
 0001:0008d4d0       ?IF_SetMMI@CTWSDNetPay_DllApp@@SG_NPBDABH1@Z 1008e4d0 f   TWSDNetPay_Dll.obj
 0001:0008e140       ?IF_GetParam@CTWSDNetPay_DllApp@@SG_NPBDABH1PADAAH@Z 1008f140 f   TWSDNetPay_Dll.obj
 0001:0008e270       ?IF_GetComponentStatus@CTWSDNetPay_DllApp@@SG_NAAI@Z 1008f270 f   TWSDNetPay_Dll.obj
 0001:0008e4f0       ?IF_TranslateData@CTWSDNetPay_DllApp@@SG_NPBDABH1@Z 1008f4f0 f   TWSDNetPay_Dll.obj
 0001:0008e620       ?IF_QueryVirtualCardDebit@CTWSDNetPay_DllApp@@SG_NPBDABH1AAHPAD@Z 1008f620 f   TWSDNetPay_Dll.obj
 0001:0008e830       ?IF_TransferImage@CTWSDNetPay_DllApp@@SG_NPBDABH1@Z 1008f830 f   TWSDNetPay_Dll.obj
 0001:0008e930       ?IF_TransferCashInvoiceData@CTWSDNetPay_DllApp@@SG_NPBDABH1@Z 1008f930 f   TWSDNetPay_Dll.obj
 0001:0008eab0       ?IF_CancelCashInvoiceData@CTWSDNetPay_DllApp@@SG_NPBDABH1@Z 1008fab0 f   TWSDNetPay_Dll.obj
 0001:0008ec30       ?IF_AgencyDebitQuery@CTWSDNetPay_DllApp@@SG_NPBDABH1AAH@Z 1008fc30 f   TWSDNetPay_Dll.obj
 0001:0008eca0       ?IF_InnerGetDeviceNo@CTWSDNetPay_DllApp@@SG_NPADAAH@Z 1008fca0 f   TWSDNetPay_Dll.obj
 0001:0008ee70       ?IF_InnerGetSpecialData@CTWSDNetPay_DllApp@@SG_NPADAAH@Z 1008fe70 f   TWSDNetPay_Dll.obj
 0001:0008ee70       ?IF_InnerSetSpecialData@CTWSDNetPay_DllApp@@SG_NPBDABH@Z 1008fe70 f   TWSDNetPay_Dll.obj
 0001:0008ee80       ?IF_EventInitEnvironment3@CTWSDNetPay_DllApp@@SG_NABIABQAUHWND__@@0PBD222ABHPAXP6AXHH4@Z@Z 1008fe80 f   TWSDNetPay_Dll.obj
 0001:0008f800       ?IF_EventDestroy@CTWSDNetPay_DllApp@@SG_NXZ 10090800 f   TWSDNetPay_Dll.obj
 0001:0008fa40       ?IF_EventGetLastErrorDesc@CTWSDNetPay_DllApp@@SGPBDXZ 10090a40 f   TWSDNetPay_Dll.obj
 0001:0008fb50       ?IF_EventGetComponentStatus@CTWSDNetPay_DllApp@@SG_NAAI@Z 10090b50 f   TWSDNetPay_Dll.obj
 0001:0008fdd0       ?IF_EventDealStart@CTWSDNetPay_DllApp@@SG_NPBDABH1@Z 10090dd0 f   TWSDNetPay_Dll.obj
 0001:000900f0       ?IF_EventCheckVehQueue@CTWSDNetPay_DllApp@@SG_NPBDABH1@Z 100910f0 f   TWSDNetPay_Dll.obj
 0001:000903f0       ?IF_EventCheckVehInfo@CTWSDNetPay_DllApp@@SG_NPBDABH1@Z 100913f0 f   TWSDNetPay_Dll.obj
 0001:000906f0       ?IF_EventCheckEntryInfo@CTWSDNetPay_DllApp@@SG_NPBDABH1@Z 100916f0 f   TWSDNetPay_Dll.obj
 0001:000909f0       ?IF_EventShowFeeInfo@CTWSDNetPay_DllApp@@SG_NPBDABH1@Z 100919f0 f   TWSDNetPay_Dll.obj
 0001:00090cf0       ?IF_EventPayResultDisplay@CTWSDNetPay_DllApp@@SG_NPBDABH1@Z 10091cf0 f   TWSDNetPay_Dll.obj
 0001:00090ff0       ?IF_EventDealStop@CTWSDNetPay_DllApp@@SG_NPBDABH1@Z 10091ff0 f   TWSDNetPay_Dll.obj
 0001:00091310       ?IF_EventStartScan@CTWSDNetPay_DllApp@@SG_NABH@Z 10092310 f   TWSDNetPay_Dll.obj
 0001:00091540       ?IF_EventStopScan@CTWSDNetPay_DllApp@@SG_NXZ 10092540 f   TWSDNetPay_Dll.obj
 0001:00091770       ?IF_EventCardOperationNotify@CTWSDNetPay_DllApp@@SG_NPBDABH1@Z 10092770 f   TWSDNetPay_Dll.obj
 0001:00091b70       ?IF_EventModifyVehQueue@CTWSDNetPay_DllApp@@SG_NPBDABH1@Z 10092b70 f   TWSDNetPay_Dll.obj
 0001:00091e70       ?IF_EventFeeAuthorize@CTWSDNetPay_DllApp@@SG_NPBDABH1@Z 10092e70 f   TWSDNetPay_Dll.obj
 0001:000920b0       ?IF_EventFreeVoicePlay@CTWSDNetPay_DllApp@@SG_NPBDABH1@Z 100930b0 f   TWSDNetPay_Dll.obj
 0001:000922f0       ?IF_EventAuthorize@CTWSDNetPay_DllApp@@SG_NPBDABH1@Z 100932f0 f   TWSDNetPay_Dll.obj
 0001:00092600       ?IF_EventDelVehQueueResult@CTWSDNetPay_DllApp@@SG_NPBDABH1@Z 10093600 f   TWSDNetPay_Dll.obj
 0001:00092910       ?GetProviceNameByID@@YA?AV?$basic_string@DU?$char_traits@D@std@@V?$allocator@D@2@@std@@G@Z 10093910 f   TWSDNetPay_Dll.obj
 0001:00093130       ?GenerateEtcEventInitData@CTWSDNetPay_DllApp@@SA?AV?$basic_string@DU?$char_traits@D@std@@V?$allocator@D@2@@std@@XZ 10094130 f   TWSDNetPay_Dll.obj
 0001:00093870       ?CheckEventDealStartJsonValidity@CTWSDNetPay_DllApp@@SA_NPBDAAV?$CStringT@DV?$StrTraitMFC@DV?$ChTraitsCRT@D@ATL@@@@@ATL@@@Z 10094870 f   TWSDNetPay_Dll.obj
 0001:00094010       ?CheckEventCheckVehQueueJsonValidity@CTWSDNetPay_DllApp@@SA_NPBDAAV?$CStringT@DV?$StrTraitMFC@DV?$ChTraitsCRT@D@ATL@@@@@ATL@@@Z 10095010 f   TWSDNetPay_Dll.obj
 0001:00094590       ?CheckEventShowFeeInfoJsonValidity@CTWSDNetPay_DllApp@@SA_NPBDAAV?$CStringT@DV?$StrTraitMFC@DV?$ChTraitsCRT@D@ATL@@@@@ATL@@@Z 10095590 f   TWSDNetPay_Dll.obj
 0001:00094ad0       ?CheckEventPayResultShowJsonValidity@CTWSDNetPay_DllApp@@SA_NPBDAAV?$CStringT@DV?$StrTraitMFC@DV?$ChTraitsCRT@D@ATL@@@@@ATL@@@Z 10095ad0 f   TWSDNetPay_Dll.obj
 0001:00095060       ?CheckEventDealStopJsonValidity@CTWSDNetPay_DllApp@@SA_NPBDAAV?$CStringT@DV?$StrTraitMFC@DV?$ChTraitsCRT@D@ATL@@@@@ATL@@@Z 10096060 f   TWSDNetPay_Dll.obj
 0001:00095610       ?CheckEventCheckVehInfoJsonValidity@CTWSDNetPay_DllApp@@SA_NPBDAAV?$CStringT@DV?$StrTraitMFC@DV?$ChTraitsCRT@D@ATL@@@@@ATL@@@Z 10096610 f   TWSDNetPay_Dll.obj
 0001:00095e40       ?CheckEventCheckEntryInfoJsonValidity@CTWSDNetPay_DllApp@@SA_NPBDAAV?$CStringT@DV?$StrTraitMFC@DV?$ChTraitsCRT@D@ATL@@@@@ATL@@@Z 10096e40 f   TWSDNetPay_Dll.obj
 0001:00096400       ?CheckCardOperationNotifyJsonValidity@CTWSDNetPay_DllApp@@SA_NPBDAAV?$CStringT@DV?$StrTraitMFC@DV?$ChTraitsCRT@D@ATL@@@@@ATL@@AAH@Z 10097400 f   TWSDNetPay_Dll.obj
 0001:00096860       ?CheckEventModifyVehQueueJsonValidity@CTWSDNetPay_DllApp@@SA_NPBDAAV?$CStringT@DV?$StrTraitMFC@DV?$ChTraitsCRT@D@ATL@@@@@ATL@@@Z 10097860 f   TWSDNetPay_Dll.obj
 0001:00096c20       ?CheckAuthorize@CTWSDNetPay_DllApp@@SA_NPBDAAV?$CStringT@DV?$StrTraitMFC@DV?$ChTraitsCRT@D@ATL@@@@@ATL@@@Z 10097c20 f   TWSDNetPay_Dll.obj
 0001:000971e0       ?CheckEventDelVehQueueResult@CTWSDNetPay_DllApp@@SA_NPBDAAV?$CStringT@DV?$StrTraitMFC@DV?$ChTraitsCRT@D@ATL@@@@@ATL@@@Z 100981e0 f   TWSDNetPay_Dll.obj
 0001:00097720       ?RecordLog@CTWSDNetPay_DllApp@@SGXABV?$CStringT@DV?$StrTraitMFC@DV?$ChTraitsCRT@D@ATL@@@@@ATL@@ABH1@Z 10098720 f   TWSDNetPay_Dll.obj
 0001:00097760       ?ReadConfigInfo@CTWSDNetPay_DllApp@@KGXXZ 10098760 f   TWSDNetPay_Dll.obj
 0001:00097b90       ?fnCloseThread@CTWSDNetPay_DllApp@@SAHABQAXABK@Z 10098b90 f   TWSDNetPay_Dll.obj
 0001:00097c50       ?DisplayWinError@CTWSDNetPay_DllApp@@SAPBDKHH@Z 10098c50 f   TWSDNetPay_Dll.obj
 0001:00097d30       ?AgencyInitDll@CTWSDNetPay_DllApp@@SA_NPBD000ABH@Z 10098d30 f   TWSDNetPay_Dll.obj
 0001:00097de0       ?Hex2Bin@CTWSDNetPay_DllApp@@SAXPADPAEK@Z 10098de0 f   TWSDNetPay_Dll.obj
 0001:00097f00       ?Bin2Hex@CTWSDNetPay_DllApp@@SA?AV?$CStringT@DV?$StrTraitMFC@DV?$ChTraitsCRT@D@ATL@@@@@ATL@@PAEK@Z 10098f00 f   TWSDNetPay_Dll.obj
 0001:00098010       ?HexToBase64@CTWSDNetPay_DllApp@@SAHABV?$CStringT@DV?$StrTraitMFC@DV?$ChTraitsCRT@D@ATL@@@@@ATL@@AAV23@@Z 10099010 f   TWSDNetPay_Dll.obj
 0001:000981c0       ?Base64ToHex@CTWSDNetPay_DllApp@@SAHABV?$CStringT@DV?$StrTraitMFC@DV?$ChTraitsCRT@D@ATL@@@@@ATL@@AAV23@@Z 100991c0 f   TWSDNetPay_Dll.obj
 0001:000984f0       ?DevcieQueryInterrupt@CTWSDNetPay_DllApp@@AAEHPBD@Z 100994f0 f   TWSDNetPay_Dll.obj
 0001:00098c20       ?recvFromBus@CTWSDNetPay_DllApp@@QAEHHPADHH@Z 10099c20 f   TWSDNetPay_Dll.obj
 0001:00098d20       ?RealCalTimeZone@@YAHXZ    10099d20 f   TWSDNetPay_Dll.obj
 0001:00098d90       ?FixUTC@CTWSDNetPay_DllApp@@SA?AVCTime@ATL@@ABV23@@Z 10099d90 f   TWSDNetPay_Dll.obj
 0001:00098e10       ?SetLPRQueryOverTimeMilli@CTWSDNetPay_DllApp@@AAEXH@Z 10099e10 f   TWSDNetPay_Dll.obj
 0001:00098f20       ?GenerateRawInitPara@CTWSDNetPay_DllApp@@CAXABU_tagTranstParam@@@Z 10099f20 f   TWSDNetPay_Dll.obj
 0001:00099030       ??0LPRInitData@@QAE@XZ     1009a030 f i TWSDNetPay_Dll.obj
 0001:00099090       ??1LPRInitData@@QAE@XZ     1009a090 f i TWSDNetPay_Dll.obj
 0001:00099180       ?LPR_PackPayResult@CTWSDNetPay_DllApp@@QAEXH@Z 1009a180 f   TWSDNetPay_Dll.obj
 0001:000993d0       ?ResetDebitResult@CTWSDNetPay_DllApp@@AAEXXZ 1009a3d0 f   TWSDNetPay_Dll.obj
 0001:00099420       ?recvFromBus_X@@YAHHPADHH@Z 1009a420 f   TWSDNetPay_Dll.obj
 0001:00099440       ?ConnectBus@CTWSDNetPay_DllApp@@AAEXXZ 1009a440 f   TWSDNetPay_Dll.obj
 0001:000996b0       ?TranstParam2LPRInitPara@@YAXABU_tagTranstParam@@AAULPRInitData@@@Z 1009a6b0 f   TWSDNetPay_Dll.obj
 0001:000999a0       ?CreateTasks@CTWSDNetPay_DllApp@@QAEHXZ 1009a9a0 f   TWSDNetPay_Dll.obj
 0001:00099b00       ?ExecuteMessage@CTWSDNetPay_DllApp@@UAEHHPADH@Z 1009ab00 f   TWSDNetPay_Dll.obj
 0001:00099bb0       ?DataForwardRegister@CTWSDNetPay_DllApp@@AAEXABV?$basic_string@DU?$char_traits@D@std@@V?$allocator@D@2@@std@@@Z 1009abb0 f   TWSDNetPay_Dll.obj
 0001:00099d90       ?DataForwardUnregister@CTWSDNetPay_DllApp@@AAEXXZ 1009ad90 f   TWSDNetPay_Dll.obj
 0001:00099e00       ?DataForwardWrite@CTWSDNetPay_DllApp@@QAEXHPADH_N@Z 1009ae00 f   TWSDNetPay_Dll.obj
 0001:00099e80       ?DataForwardRead@CTWSDNetPay_DllApp@@QAEXHPADHH@Z 1009ae80 f   TWSDNetPay_Dll.obj
 0001:00099f00       ?ConnectDataForward@CTWSDNetPay_DllApp@@AAEXXZ 1009af00 f   TWSDNetPay_Dll.obj
 0001:0009a170       ?ETCInterfaceBasicCheck@CTWSDNetPay_DllApp@@SAHPBDABH@Z 1009b170 f   TWSDNetPay_Dll.obj
 0001:0009a320       ?IF_QueryAgentDebitEtcUp@CTWSDNetPay_DllApp@@SGHPBDABH1AAH1@Z 1009b320 f   TWSDNetPay_Dll.obj
 0001:0009ab60       ?IF_QueryAgentDebitResultEtcUp@CTWSDNetPay_DllApp@@SGHPBDABH1PADAAHH@Z 1009bb60 f   TWSDNetPay_Dll.obj
 0001:0009b550       ?IF_DebitMoneyEtcUp@CTWSDNetPay_DllApp@@SGHPBDABH1PADAAHH@Z 1009c550 f   TWSDNetPay_Dll.obj
 0001:0009bc80       ?StopListenMessage@CTWSDNetPay_DllApp@@QAEXXZ 1009cc80 f   TWSDNetPay_Dll.obj
 0001:0009bcf0       ?CopyExpwayInfo@@YAXABU_tagTranstParam@@AAUDebitParameter@@@Z 1009ccf0 f   TWSDNetPay_Dll.obj
 0001:0009bd70       ?CopyExpwayInfo@@YAXABU_tagTranstParam@@AAUDebitCancleParameter@@@Z 1009cd70 f   TWSDNetPay_Dll.obj
 0001:0009be20       ?AdjustExpwayInfo@@YAXAAUDebitParameter@@@Z 1009ce20 f   TWSDNetPay_Dll.obj
 0001:0009beb0       ??0?$CStringT@DV?$StrTraitMFC@DV?$ChTraitsCRT@D@ATL@@@@@ATL@@QAE@DH@Z 1009ceb0 f i TWSDNetPay_Dll.obj
 0001:0009bf60       ?GetAt@?$CArray@U_tagMMIItemText@@AAU1@@@QAEAAU_tagMMIItemText@@H@Z 1009cf60 f i TWSDNetPay_Dll.obj
 0001:0009bf80       ??$_snprintf_s@$0CAA@@@YAHAAY0CAA@DIPBDZZ 1009cf80 f i TWSDNetPay_Dll.obj
 0001:0009bfa0       ??_ECTWSDNetPay_DllApp@@WKE@AEPAXI@Z 1009cfa0 f i TWSDNetPay_Dll.obj
 0001:0009bfb0       ??1AFX_MAINTAIN_STATE2@@QAE@XZ 1009cfb0 f i TWSDNetPay_Dll.obj
 0001:0009bfd0       ??OCOleDateTime@ATL@@QBE_NABV01@@Z 1009cfd0 f i TWSDNetPay_Dll.obj
 0001:0009c050       ?SetDateTime@COleDateTime@ATL@@QAEHHHHHHH@Z 1009d050 f i TWSDNetPay_Dll.obj
 0001:0009c0d0       ?Int2Str@@YA?AV?$basic_string@DU?$char_traits@D@std@@V?$allocator@D@2@@std@@H@Z 1009d0d0 f   TypeHelper.obj
 0001:0009c160       ?Datetime2Str@@YA?AV?$basic_string@DU?$char_traits@D@std@@V?$allocator@D@2@@std@@_J@Z 1009d160 f   TypeHelper.obj
 0001:0009c1d0       ?SplitCharArray@@YA?AV?$vector@V?$vector@EV?$allocator@E@std@@@std@@V?$allocator@V?$vector@EV?$allocator@E@std@@@std@@@2@@std@@PBEHE@Z 1009d1d0 f   TypeHelper.obj
 0001:0009c380       ?Str2ChinaTime@@YA_JABV?$basic_string@DU?$char_traits@D@std@@V?$allocator@D@2@@std@@@Z 1009d380 f   TypeHelper.obj
 0001:0009c440       ?ChinaTime2Str@@YA?AV?$basic_string@DU?$char_traits@D@std@@V?$allocator@D@2@@std@@_J@Z 1009d440 f   TypeHelper.obj
 0001:0009c520       ?ChinaTimeStr@@YA?AV?$basic_string@DU?$char_traits@D@std@@V?$allocator@D@2@@std@@XZ 1009d520 f   TypeHelper.obj
 0001:0009c540       ?ChinaTimeStrWithMS@@YA?AV?$basic_string@DU?$char_traits@D@std@@V?$allocator@D@2@@std@@XZ 1009d540 f   TypeHelper.obj
 0001:0009c5b0       ?BASE64_Encode@CTWSDNetPay_DllApp@@SAHPBEHPAD@Z 1009d5b0 f   TWSDNetPay_Dll.obj
 0001:0009c5b0       ?BASE64_Encode@@YAHPBEHPAD@Z 1009d5b0 f   TypeHelper.obj
 0001:0009c6f0       ?HexToBase64@@YA?AV?$basic_string@DU?$char_traits@D@std@@V?$allocator@D@2@@std@@ABV12@@Z 1009d6f0 f   TypeHelper.obj
 0001:0009ca30       ?StringConvertByCodePage@@YA?AV?$basic_string@DU?$char_traits@D@std@@V?$allocator@D@2@@std@@ABV12@ABH1@Z 1009da30 f   TypeHelper.obj
 0001:0009cca0       ?GetDiffMilliSeconds@@YA_JABU_SYSTEMTIME@@0@Z 1009dca0 f   TypeHelper.obj
 0001:0009cd60       ?GetFileModifyTime@@YAHABV?$basic_string@DU?$char_traits@D@std@@V?$allocator@D@2@@std@@AAU_SYSTEMTIME@@@Z 1009dd60 f   TypeHelper.obj
 0001:0009cde0       ?GetGuid@@YA?AV?$basic_string@DU?$char_traits@D@std@@V?$allocator@D@2@@std@@XZ 1009dde0 f   TypeHelper.obj
 0001:0009ced0       ??0?$vector@EV?$allocator@E@std@@@std@@QAE@ABV01@@Z 1009ded0 f i TypeHelper.obj
 0001:0009cf50       ??0?$vector@V?$vector@EV?$allocator@E@std@@@std@@V?$allocator@V?$vector@EV?$allocator@E@std@@@std@@@2@@std@@QAE@ABV01@@Z 1009df50 f i TypeHelper.obj
 0001:0009d040       ?push_back@?$vector@V?$vector@EV?$allocator@E@std@@@std@@V?$allocator@V?$vector@EV?$allocator@E@std@@@std@@@2@@std@@QAEXABV?$vector@EV?$allocator@E@std@@@2@@Z 1009e040 f i TypeHelper.obj
 0001:0009d0c0       ?insert@?$vector@EV?$allocator@E@std@@@std@@QAE?AV?$_Vector_iterator@EV?$allocator@E@std@@@2@V32@ABE@Z 1009e0c0 f i TypeHelper.obj
 0001:0009d140       ?_Buy@?$vector@EV?$allocator@E@std@@@std@@IAE_NI@Z 1009e140 f i TypeHelper.obj
 0001:0009d170       ?_Ufill@?$vector@EV?$allocator@E@std@@@std@@IAEPAEPAEIABE@Z 1009e170 f i TypeHelper.obj
 0001:0009d1a0       ?insert@?$vector@V?$vector@EV?$allocator@E@std@@@std@@V?$allocator@V?$vector@EV?$allocator@E@std@@@std@@@2@@std@@QAE?AV?$_Vector_iterator@V?$vector@EV?$allocator@E@std@@@std@@V?$allocator@V?$vector@EV?$allocator@E@std@@@std@@@2@@2@V32@ABV?$vector@EV?$allocator@E@std@@@2@@Z 1009e1a0 f i TypeHelper.obj
 0001:0009d230       ?_Ufill@?$vector@V?$vector@EV?$allocator@E@std@@@std@@V?$allocator@V?$vector@EV?$allocator@E@std@@@std@@@2@@std@@IAEPAV?$vector@EV?$allocator@E@std@@@2@PAV32@IABV32@@Z 1009e230 f i TypeHelper.obj
 0001:0009d260       ?_Insert_n@?$vector@EV?$allocator@E@std@@@std@@IAEXV?$_Vector_iterator@EV?$allocator@E@std@@@2@IABE@Z 1009e260 f i TypeHelper.obj
 0001:0009d440       ?_Xlen@?$vector@V?$basic_string@DU?$char_traits@D@std@@V?$allocator@D@2@@std@@V?$allocator@V?$basic_string@DU?$char_traits@D@std@@V?$allocator@D@2@@std@@@2@@std@@KAXXZ 1009e440 f i ETCPayUnit.obj
 0001:0009d440       ?_Xlen@?$vector@EV?$allocator@E@std@@@std@@KAXXZ 1009e440 f i TypeHelper.obj
 0001:0009d440       ?_Xlen@?$vector@V?$vector@EV?$allocator@E@std@@@std@@V?$allocator@V?$vector@EV?$allocator@E@std@@@std@@@2@@std@@KAXXZ 1009e440 f i TypeHelper.obj
 0001:0009d4c0       ?allocate@?$allocator@E@std@@QAEPAEI@Z 1009e4c0 f i TypeHelper.obj
 0001:0009d510       ?_Insert_n@?$vector@V?$vector@EV?$allocator@E@std@@@std@@V?$allocator@V?$vector@EV?$allocator@E@std@@@std@@@2@@std@@IAEXV?$_Vector_iterator@V?$vector@EV?$allocator@E@std@@@std@@V?$allocator@V?$vector@EV?$allocator@E@std@@@std@@@2@@2@IABV?$vector@EV?$allocator@E@std@@@2@@Z 1009e510 f i TypeHelper.obj
 0001:0009d7d0       ??$_Umove@PAV?$vector@EV?$allocator@E@std@@@std@@@?$vector@V?$vector@EV?$allocator@E@std@@@std@@V?$allocator@V?$vector@EV?$allocator@E@std@@@std@@@2@@std@@IAEPAV?$vector@EV?$allocator@E@std@@@1@PAV21@00@Z 1009e7d0 f i TypeHelper.obj
 0001:0009d800       ??$_Unchecked_move_backward@PAV?$vector@EV?$allocator@E@std@@@std@@PAV12@@stdext@@YAPAV?$vector@EV?$allocator@E@std@@@std@@PAV12@00@Z 1009e800 f i TypeHelper.obj
 0001:0009d840       ??$_Allocate@V?$vector@EV?$allocator@E@std@@@std@@@std@@YAPAV?$vector@EV?$allocator@E@std@@@0@IPAV10@@Z 1009e840 f i TypeHelper.obj
 0001:0009d890       ??$_Uninit_fill_n@PAV?$vector@EV?$allocator@E@std@@@std@@IV12@V?$allocator@V?$vector@EV?$allocator@E@std@@@std@@@2@@std@@YAXPAV?$vector@EV?$allocator@E@std@@@0@IABV10@AAV?$allocator@V?$vector@EV?$allocator@E@std@@@std@@@0@U_Nonscalar_ptr_iterator_tag@0@U_Range_checked_iterator_tag@0@@Z 1009e890 f i TypeHelper.obj
 0001:0009d930       ??4?$vector@EV?$allocator@E@std@@@std@@QAEAAV01@ABV01@@Z 1009e930 f i TypeHelper.obj
 0001:0009da80       ?clear@?$vector@EV?$allocator@E@std@@@std@@QAEXXZ 1009ea80 f i TypeHelper.obj
 0001:0009dac0       ?erase@?$vector@EV?$allocator@E@std@@@std@@QAE?AV?$_Vector_iterator@EV?$allocator@E@std@@@2@V32@0@Z 1009eac0 f i TypeHelper.obj
 0001:0009db20       ??$_Uninit_copy@PBV?$vector@EV?$allocator@E@std@@@std@@PAV12@V?$allocator@V?$vector@EV?$allocator@E@std@@@std@@@2@@std@@YAPAV?$vector@EV?$allocator@E@std@@@0@PBV10@0PAV10@AAV?$allocator@V?$vector@EV?$allocator@E@std@@@std@@@0@U_Nonscalar_ptr_iterator_tag@0@U_Range_checked_iterator_tag@0@@Z 1009eb20 f i TypeHelper.obj
 0001:0009dbc0       ??$_Uninit_move@PAV?$vector@EV?$allocator@E@std@@@std@@PAV12@V?$allocator@V?$vector@EV?$allocator@E@std@@@std@@@2@@std@@YAPAV?$vector@EV?$allocator@E@std@@@0@PAV10@00AAV?$allocator@V?$vector@EV?$allocator@E@std@@@std@@@0@U_Swap_move_tag@0@U_Range_checked_iterator_tag@0@@Z 1009ebc0 f i TypeHelper.obj
 0001:0009dca0       ??$_Move_backward_opt@PAV?$vector@EV?$allocator@E@std@@@std@@PAV12@Uforward_iterator_tag@2@@std@@YAPAV?$vector@EV?$allocator@E@std@@@0@PAV10@00Uforward_iterator_tag@0@U_Swap_move_tag@0@U_Range_checked_iterator_tag@0@@Z 1009eca0 f i TypeHelper.obj
 0001:0009dce0       ??0CMarkup@@QAE@ABV0@@Z    1009ece0 f i XMLHelper.obj
 0001:0009ddc0       ?GetChildTagName@CMarkup@@QBE?AV?$CStringT@DV?$StrTraitMFC@DV?$ChTraitsCRT@D@ATL@@@@@ATL@@XZ 1009edc0 f i XMLHelper.obj
 0001:0009dde0       ?ReadXMLStr@@YA_NAAVCMarkup@@ABV?$basic_string@DU?$char_traits@D@std@@V?$allocator@D@2@@std@@AAV23@@Z 1009ede0 f   XMLHelper.obj
 0001:0009df00       ?ReadXMLCStr@@YA_NAAVCMarkup@@ABV?$basic_string@DU?$char_traits@D@std@@V?$allocator@D@2@@std@@PADH@Z 1009ef00 f   XMLHelper.obj
 0001:0009e000       ?ReadXMLInt@@YA_NAAVCMarkup@@ABV?$basic_string@DU?$char_traits@D@std@@V?$allocator@D@2@@std@@AAH@Z 1009f000 f   XMLHelper.obj
 0001:0009e0c0       ?ReadXMLTimet@@YA_NAAVCMarkup@@ABV?$basic_string@DU?$char_traits@D@std@@V?$allocator@D@2@@std@@AA_J@Z 1009f0c0 f   XMLHelper.obj
 0001:0009e1b0       ?IntoXMLSubNode@@YA_NAAVCMarkup@@ABV?$basic_string@DU?$char_traits@D@std@@V?$allocator@D@2@@std@@@Z 1009f1b0 f   XMLHelper.obj
 0001:0009e260       ?GetXMLParseError@@YA?AV?$basic_string@DU?$char_traits@D@std@@V?$allocator@D@2@@std@@XZ 1009f260 f   XMLHelper.obj
 0001:0009e480       ??0XMLLastError@@QAE@ABU0@@Z 1009f480 f i XMLHelper.obj
 0001:0009e4f0       ??1XMLLastError@@QAE@XZ    1009f4f0 f i XMLHelper.obj
 0001:0009e520       ??A?$map@HUXMLLastError@@U?$less@H@std@@V?$allocator@U?$pair@$$CBHUXMLLastError@@@std@@@3@@std@@QAEAAUXMLLastError@@ABH@Z 1009f520 f i XMLHelper.obj
 0001:0009e680       ??1?$pair@$$CBHUXMLLastError@@@std@@QAE@XZ 1009f680 f i XMLHelper.obj
 0001:0009e6b0       ?insert@?$_Tree@V?$_Tmap_traits@HUXMLLastError@@U?$less@H@std@@V?$allocator@U?$pair@$$CBHUXMLLastError@@@std@@@3@$0A@@std@@@std@@QAE?AViterator@12@V312@ABU?$pair@$$CBHUXMLLastError@@@2@@Z 1009f6b0 f i XMLHelper.obj
 0001:0009e870       ?lower_bound@?$_Tree@V?$_Tmap_traits@HUXMLLastError@@U?$less@H@std@@V?$allocator@U?$pair@$$CBHUXMLLastError@@@std@@@3@$0A@@std@@@std@@QAE?AViterator@12@ABH@Z 1009f870 f i XMLHelper.obj
 0001:0009e8b0       ?insert@?$_Tree@V?$_Tmap_traits@HUXMLLastError@@U?$less@H@std@@V?$allocator@U?$pair@$$CBHUXMLLastError@@@std@@@3@$0A@@std@@@std@@QAE?AU?$pair@Viterator@?$_Tree@V?$_Tmap_traits@HUXMLLastError@@U?$less@H@std@@V?$allocator@U?$pair@$$CBHUXMLLastError@@@std@@@3@$0A@@std@@@std@@_N@2@ABU?$pair@$$CBHUXMLLastError@@@2@@Z 1009f8b0 f i XMLHelper.obj
 0001:0009e960       ?erase@?$_Tree@V?$_Tmap_traits@HUXMLLastError@@U?$less@H@std@@V?$allocator@U?$pair@$$CBHUXMLLastError@@@std@@@3@$0A@@std@@@std@@QAE?AViterator@12@V312@0@Z 1009f960 f i XMLHelper.obj
 0001:0009ea20       ?_Insert@?$_Tree@V?$_Tmap_traits@HUXMLLastError@@U?$less@H@std@@V?$allocator@U?$pair@$$CBHUXMLLastError@@@std@@@3@$0A@@std@@@std@@IAE?AViterator@12@_NPAU_Node@?$_Tree_nod@V?$_Tmap_traits@HUXMLLastError@@U?$less@H@std@@V?$allocator@U?$pair@$$CBHUXMLLastError@@@std@@@3@$0A@@std@@@2@ABU?$pair@$$CBHUXMLLastError@@@2@@Z 1009fa20 f i XMLHelper.obj
 0001:0009ec50       ?erase@?$_Tree@V?$_Tmap_traits@HUXMLLastError@@U?$less@H@std@@V?$allocator@U?$pair@$$CBHUXMLLastError@@@std@@@3@$0A@@std@@@std@@QAE?AViterator@12@V312@@Z 1009fc50 f i XMLHelper.obj
 0001:0009ef50       ?clear@?$_Tree@V?$_Tmap_traits@HUXMLLastError@@U?$less@H@std@@V?$allocator@U?$pair@$$CBHUXMLLastError@@@std@@@3@$0A@@std@@@std@@QAEXXZ 1009ff50 f i XMLHelper.obj
 0001:0009ef90       ?_Lrotate@?$_Tree@V?$_Tmap_traits@HUXMLLastError@@U?$less@H@std@@V?$allocator@U?$pair@$$CBHUXMLLastError@@@std@@@3@$0A@@std@@@std@@IAEXPAU_Node@?$_Tree_nod@V?$_Tmap_traits@HUXMLLastError@@U?$less@H@std@@V?$allocator@U?$pair@$$CBHUXMLLastError@@@std@@@3@$0A@@std@@@2@@Z 1009ff90 f i XMLHelper.obj
 0001:0009efe0       ?_Rrotate@?$_Tree@V?$_Tmap_traits@HUXMLLastError@@U?$less@H@std@@V?$allocator@U?$pair@$$CBHUXMLLastError@@@std@@@3@$0A@@std@@@std@@IAEXPAU_Node@?$_Tree_nod@V?$_Tmap_traits@HUXMLLastError@@U?$less@H@std@@V?$allocator@U?$pair@$$CBHUXMLLastError@@@std@@@3@$0A@@std@@@2@@Z 1009ffe0 f i XMLHelper.obj
 0001:0009f030       ?_Buynode@?$_Tree@V?$_Tmap_traits@HUXMLLastError@@U?$less@H@std@@V?$allocator@U?$pair@$$CBHUXMLLastError@@@std@@@3@$0A@@std@@@std@@IAEPAU_Node@?$_Tree_nod@V?$_Tmap_traits@HUXMLLastError@@U?$less@H@std@@V?$allocator@U?$pair@$$CBHUXMLLastError@@@std@@@3@$0A@@std@@@2@XZ 100a0030 f i XMLHelper.obj
 0001:0009f070       ?_Buynode@?$_Tree@V?$_Tmap_traits@HUXMLLastError@@U?$less@H@std@@V?$allocator@U?$pair@$$CBHUXMLLastError@@@std@@@3@$0A@@std@@@std@@IAEPAU_Node@?$_Tree_nod@V?$_Tmap_traits@HUXMLLastError@@U?$less@H@std@@V?$allocator@U?$pair@$$CBHUXMLLastError@@@std@@@3@$0A@@std@@@2@PAU342@00ABU?$pair@$$CBHUXMLLastError@@@2@D@Z 100a0070 f i XMLHelper.obj
 0001:0009f120       ?_Erase@?$_Tree@V?$_Tmap_traits@HUXMLLastError@@U?$less@H@std@@V?$allocator@U?$pair@$$CBHUXMLLastError@@@std@@@3@$0A@@std@@@std@@IAEXPAU_Node@?$_Tree_nod@V?$_Tmap_traits@HUXMLLastError@@U?$less@H@std@@V?$allocator@U?$pair@$$CBHUXMLLastError@@@std@@@3@$0A@@std@@@2@@Z 100a0120 f i XMLHelper.obj
 0001:0009f190       ?_Max@?$_Tree@V?$_Tmap_traits@HUXMLLastError@@U?$less@H@std@@V?$allocator@U?$pair@$$CBHUXMLLastError@@@std@@@3@$0A@@std@@@std@@KAPAU_Node@?$_Tree_nod@V?$_Tmap_traits@HUXMLLastError@@U?$less@H@std@@V?$allocator@U?$pair@$$CBHUXMLLastError@@@std@@@3@$0A@@std@@@2@PAU342@@Z 100a0190 f i XMLHelper.obj
 0001:0009f1b0       ?_Dec@const_iterator@?$_Tree@V?$_Tmap_traits@HUXMLLastError@@U?$less@H@std@@V?$allocator@U?$pair@$$CBHUXMLLastError@@@std@@@3@$0A@@std@@@std@@QAEXXZ 100a01b0 f i XMLHelper.obj
 0001:0009f230       ?_Inc@const_iterator@?$_Tree@V?$_Tmap_traits@HUXMLLastError@@U?$less@H@std@@V?$allocator@U?$pair@$$CBHUXMLLastError@@@std@@@3@$0A@@std@@@std@@QAEXXZ 100a0230 f i XMLHelper.obj
 0001:0009f2a0       ??$_Allocate@U_Node@?$_Tree_nod@V?$_Tmap_traits@HUXMLLastError@@U?$less@H@std@@V?$allocator@U?$pair@$$CBHUXMLLastError@@@std@@@3@$0A@@std@@@std@@@std@@YAPAU_Node@?$_Tree_nod@V?$_Tmap_traits@HUXMLLastError@@U?$less@H@std@@V?$allocator@U?$pair@$$CBHUXMLLastError@@@std@@@3@$0A@@std@@@0@IPAU120@@Z 100a02a0 f i XMLHelper.obj
 0001:0009f2f0       ??0TTreeState@@QAE@XZ      100a02f0 f   zip.obj
 0001:0009f3e0       ?filetime2dosdatetime@@YAXU_FILETIME@@PAG1@Z 100a03e0 f   zip.obj
 0001:0009f450       ?GetNow@@YAXPAJPAG1@Z      100a0450 f   zip.obj
 0001:0009f4c0       ?GetFileInfo@@YAKPAXPAKPAJPAUiztimes@@1@Z 100a04c0 f   zip.obj
 0001:0009f6b0       ?ct_init@@YAXAAUTState@@PAG@Z 100a06b0 f   zip.obj
 0001:0009f990       ?init_block@@YAXAAUTState@@@Z 100a0990 f   zip.obj
 0001:0009fa20       ?pqdownheap@@YAXAAUTState@@PAUct_data@@H@Z 100a0a20 f   zip.obj
 0001:0009faf0       ?gen_bitlen@@YAXAAUTState@@PAUtree_desc@@@Z 100a0af0 f   zip.obj
 0001:0009fd30       ?gen_codes@@YAXAAUTState@@PAUct_data@@H@Z 100a0d30 f   zip.obj
 0001:0009fde0       ?build_tree@@YAXAAUTState@@PAUtree_desc@@@Z 100a0de0 f   zip.obj
 0001:0009ffd0       ?scan_tree@@YAXAAUTState@@PAUct_data@@H@Z 100a0fd0 f   zip.obj
 0001:000a00c0       ?send_tree@@YAXAAUTState@@PAUct_data@@H@Z 100a10c0 f   zip.obj
 0001:000a0220       ?build_bl_tree@@YAHAAUTState@@@Z 100a1220 f   zip.obj
 0001:000a02f0       ?send_all_trees@@YAXAAUTState@@HHH@Z 100a12f0 f   zip.obj
 0001:000a03b0       ?flush_block@@YAKAAUTState@@PADKH@Z 100a13b0 f   zip.obj
 0001:000a0560       ?ct_tally@@YAHAAUTState@@HH@Z 100a1560 f   zip.obj
 0001:000a0770       ?compress_block@@YAXAAUTState@@PAUct_data@@1@Z 100a1770 f   zip.obj
 0001:000a08d0       ?set_file_type@@YAXAAUTState@@@Z 100a18d0 f   zip.obj
 0001:000a0950       ?send_bits@@YAXAAUTState@@HH@Z 100a1950 f   zip.obj
 0001:000a0a00       ?bi_windup@@YAXAAUTState@@@Z 100a1a00 f   zip.obj
 0001:000a0af0       ?copy_block@@YAXAAUTState@@PADIH@Z 100a1af0 f   zip.obj
 0001:000a0c20       ?lm_init@@YAXAAUTState@@HPAG@Z 100a1c20 f   zip.obj
 0001:000a0d60       ?longest_match@@YAHAAUTState@@I@Z 100a1d60 f   zip.obj
 0001:000a0f20       ?fill_window@@YAXAAUTState@@@Z 100a1f20 f   zip.obj
 0001:000a1060       ?deflate_fast@@YAKAAUTState@@@Z 100a2060 f   zip.obj
 0001:000a1290       ?deflate@@YAKAAUTState@@@Z 100a2290 f   zip.obj
 0001:000a15a0       ?putlocal@@YAHPAUzlist@@P6AIPAXPBDI@Z1@Z 100a25a0 f   zip.obj
 0001:000a1870       ?putextended@@YAHPAUzlist@@P6AIPAXPBDI@Z1@Z 100a2870 f   zip.obj
 0001:000a19d0       ?putcentral@@YAHPAUzlist@@P6AIPAXPBDI@Z1@Z 100a29d0 f   zip.obj
 0001:000a1e20       ?putend@@YAHHKKIPADP6AIPAXPBDI@Z1@Z 100a2e20 f   zip.obj
 0001:000a2000       ?crc32@@YAKKPBEI@Z         100a3000 f   zip.obj
 0001:000a2130       ?update_keys@@YAXPAKD@Z    100a3130 f   zip.obj
 0001:000a2180       ?lustricmp@@YAHPBD0@Z      100a3180 f   zip.obj
 0001:000a21e0       ?HasZipSuffix@@YA_NPBD@Z   100a31e0 f   zip.obj
 0001:000a22a0       ?Create@TZip@@QAEKPAXIK@Z  100a32a0 f   zip.obj
 0001:000a2310       ?sflush@TZip@@SAIPAXPBDPAI@Z 100a3310 f   zip.obj
 0001:000a2340       ?write@TZip@@QAEIPBDI@Z    100a3340 f   zip.obj
 0001:000a2490       ?oseek@TZip@@QAE_NI@Z      100a3490 f   zip.obj
 0001:000a24e0       ?Close@TZip@@QAEKXZ        100a34e0 f   zip.obj
 0001:000a2540       ?open_handle@TZip@@QAEKPAXI@Z 100a3540 f   zip.obj
 0001:000a2620       ?sread@TZip@@SAIAAUTState@@PADI@Z 100a3620 f   zip.obj
 0001:000a2640       ?read@TZip@@QAEIPADI@Z     100a3640 f   zip.obj
 0001:000a26d0       ?iclose@TZip@@QAEKXZ       100a36d0 f   zip.obj
 0001:000a2720       ?ideflate@TZip@@QAEKPAUzlist@@@Z 100a3720 f   zip.obj
 0001:000a2830       ?istore@TZip@@QAEKXZ       100a3830 f   zip.obj
 0001:000a2890       ?Add@TZip@@QAEKPBDPAXIK@Z  100a3890 f   zip.obj
 0001:000a3060       ?AddCentral@TZip@@QAEKXZ   100a4060 f   zip.obj
 0001:000a3120       ?CreateZipInternal@@YAPAUHZIP__@@PAXIKPBD@Z 100a4120 f   zip.obj
 0001:000a31f0       ??_GTZip@@QAEPAXI@Z        100a41f0 f i zip.obj
 0001:000a3240       ?CloseZipZ@@YAKPAUHZIP__@@@Z 100a4240 f   zip.obj
 0001:000a3290       ??0CTime@ATL@@QAE@ABU_SYSTEMTIME@@H@Z 100a4290 f i Helper.obj
 0001:000a33b0       ?getLwsToWs@WebSocketBase@@SAPAXPAUlws@@@Z 100a43b0 f   WebSocketBase.obj
 0001:000a3420       ?connectResult@WebSocketBase@@QAEX_N@Z 100a4420 f   WebSocketBase.obj
 0001:000a34e0       ?consumeSendMsg@WebSocketBase@@QAEXXZ 100a44e0 f   WebSocketBase.obj
 0001:000a3650       ?find@?$_Tree@V?$_Tmap_traits@PAUlws@@PAXU?$less@PAUlws@@@std@@V?$allocator@U?$pair@QAUlws@@PAX@std@@@3@$0A@@std@@@std@@QAE?AViterator@12@ABQAUlws@@@Z 100a4650 f i WebSocketBase.obj
 0001:000a36d0       ?lower_bound@?$_Tree@V?$_Tmap_traits@PAUlws@@PAXU?$less@PAUlws@@@std@@V?$allocator@U?$pair@QAUlws@@PAX@std@@@3@$0A@@std@@@std@@QAE?AViterator@12@ABQAUlws@@@Z 100a46d0 f i WebSocketBase.obj
 0001:000a3710       ?erase@?$_Tree@V?$_Tmap_traits@PAUlws@@PAXU?$less@PAUlws@@@std@@V?$allocator@U?$pair@QAUlws@@PAX@std@@@3@$0A@@std@@@std@@QAE?AViterator@12@V312@0@Z 100a4710 f i WebSocketBase.obj
 0001:000a37d0       ?erase@?$_Tree@V?$_Tmap_traits@PAUlws@@PAXU?$less@PAUlws@@@std@@V?$allocator@U?$pair@QAUlws@@PAX@std@@@3@$0A@@std@@@std@@QAE?AViterator@12@V312@@Z 100a47d0 f i WebSocketBase.obj
 0001:000a3ab0       ?clear@?$_Tree@V?$_Tmap_traits@PAUlws@@PAXU?$less@PAUlws@@@std@@V?$allocator@U?$pair@QAUlws@@PAX@std@@@3@$0A@@std@@@std@@QAEXXZ 100a4ab0 f i WebSocketBase.obj
 0001:000a3af0       ?_Buynode@?$_Tree@V?$_Tmap_traits@HHU?$less@H@std@@V?$allocator@U?$pair@$$CBHH@std@@@2@$0A@@std@@@std@@IAEPAU_Node@?$_Tree_nod@V?$_Tmap_traits@HHU?$less@H@std@@V?$allocator@U?$pair@$$CBHH@std@@@2@$0A@@std@@@2@XZ 100a4af0 f i PayHelper.obj
 0001:000a3af0       ?_Buynode@?$_Tree@V?$_Tmap_traits@PAUlws@@PAXU?$less@PAUlws@@@std@@V?$allocator@U?$pair@QAUlws@@PAX@std@@@3@$0A@@std@@@std@@IAEPAU_Node@?$_Tree_nod@V?$_Tmap_traits@PAUlws@@PAXU?$less@PAUlws@@@std@@V?$allocator@U?$pair@QAUlws@@PAX@std@@@3@$0A@@std@@@2@XZ 100a4af0 f i WebSocketBase.obj
 0001:000a3af0       ?_Buynode@?$_Tree@V?$_Tmap_traits@KIU?$less@K@std@@V?$allocator@U?$pair@$$CBKI@std@@@2@$0A@@std@@@std@@IAEPAU_Node@?$_Tree_nod@V?$_Tmap_traits@KIU?$less@K@std@@V?$allocator@U?$pair@$$CBKI@std@@@2@$0A@@std@@@2@XZ 100a4af0 f i LogUploader.obj
 0001:000a3b30       ?_Erase@?$_Tree@V?$_Tmap_traits@KIU?$less@K@std@@V?$allocator@U?$pair@$$CBKI@std@@@2@$0A@@std@@@std@@IAEXPAU_Node@?$_Tree_nod@V?$_Tmap_traits@KIU?$less@K@std@@V?$allocator@U?$pair@$$CBKI@std@@@2@$0A@@std@@@2@@Z 100a4b30 f i LogUploader.obj
 0001:000a3b30       ?_Erase@?$_Tree@V?$_Tmap_traits@HHU?$less@H@std@@V?$allocator@U?$pair@$$CBHH@std@@@2@$0A@@std@@@std@@IAEXPAU_Node@?$_Tree_nod@V?$_Tmap_traits@HHU?$less@H@std@@V?$allocator@U?$pair@$$CBHH@std@@@2@$0A@@std@@@2@@Z 100a4b30 f i PayHelper.obj
 0001:000a3b30       ?_Erase@?$_Tree@V?$_Tmap_traits@PAUlws@@PAXU?$less@PAUlws@@@std@@V?$allocator@U?$pair@QAUlws@@PAX@std@@@3@$0A@@std@@@std@@IAEXPAU_Node@?$_Tree_nod@V?$_Tmap_traits@PAUlws@@PAXU?$less@PAUlws@@@std@@V?$allocator@U?$pair@QAUlws@@PAX@std@@@3@$0A@@std@@@2@@Z 100a4b30 f i WebSocketBase.obj
 0001:000a3b70       ?_Lrotate@?$_Tree@V?$_Tmap_traits@PAUlws@@PAXU?$less@PAUlws@@@std@@V?$allocator@U?$pair@QAUlws@@PAX@std@@@3@$0A@@std@@@std@@IAEXPAU_Node@?$_Tree_nod@V?$_Tmap_traits@PAUlws@@PAXU?$less@PAUlws@@@std@@V?$allocator@U?$pair@QAUlws@@PAX@std@@@3@$0A@@std@@@2@@Z 100a4b70 f i WebSocketBase.obj
 0001:000a3bc0       ?_Rrotate@?$_Tree@V?$_Tmap_traits@PAUlws@@PAXU?$less@PAUlws@@@std@@V?$allocator@U?$pair@QAUlws@@PAX@std@@@3@$0A@@std@@@std@@IAEXPAU_Node@?$_Tree_nod@V?$_Tmap_traits@PAUlws@@PAXU?$less@PAUlws@@@std@@V?$allocator@U?$pair@QAUlws@@PAX@std@@@3@$0A@@std@@@2@@Z 100a4bc0 f i WebSocketBase.obj
 0001:000a3c10       ??$_Allocate@U_Node@?$_Tree_nod@V?$_Tmap_traits@PAUlws@@PAXU?$less@PAUlws@@@std@@V?$allocator@U?$pair@QAUlws@@PAX@std@@@3@$0A@@std@@@std@@@std@@YAPAU_Node@?$_Tree_nod@V?$_Tmap_traits@PAUlws@@PAXU?$less@PAUlws@@@std@@V?$allocator@U?$pair@QAUlws@@PAX@std@@@3@$0A@@std@@@0@IPAU120@@Z 100a4c10 f i WebSocketBase.obj
 0001:000a3c10       ??$_Allocate@U_Node@?$_Tree_nod@V?$_Tmap_traits@KIU?$less@K@std@@V?$allocator@U?$pair@$$CBKI@std@@@2@$0A@@std@@@std@@@std@@YAPAU_Node@?$_Tree_nod@V?$_Tmap_traits@KIU?$less@K@std@@V?$allocator@U?$pair@$$CBKI@std@@@2@$0A@@std@@@0@IPAU120@@Z 100a4c10 f i LogUploader.obj
 0001:000a3c10       ??$_Allocate@U_Node@?$_Tree_nod@V?$_Tmap_traits@HHU?$less@H@std@@V?$allocator@U?$pair@$$CBHH@std@@@2@$0A@@std@@@std@@@std@@YAPAU_Node@?$_Tree_nod@V?$_Tmap_traits@HHU?$less@H@std@@V?$allocator@U?$pair@$$CBHH@std@@@2@$0A@@std@@@0@IPAU120@@Z 100a4c10 f i PayHelper.obj
 0001:000a3cb0       ?valueToString@Json@@YA?AV?$basic_string@DU?$char_traits@D@std@@V?$allocator@D@2@@std@@H@Z 100a4cb0 f   json_vc71_libmt:json_writer.obj
 0001:000a3d40       ?valueToString@Json@@YA?AV?$basic_string@DU?$char_traits@D@std@@V?$allocator@D@2@@std@@I@Z 100a4d40 f   json_vc71_libmt:json_writer.obj
 0001:000a3db0       ?valueToString@Json@@YA?AV?$basic_string@DU?$char_traits@D@std@@V?$allocator@D@2@@std@@N@Z 100a4db0 f   json_vc71_libmt:json_writer.obj
 0001:000a3f10       ?valueToString@Json@@YA?AV?$basic_string@DU?$char_traits@D@std@@V?$allocator@D@2@@std@@_N@Z 100a4f10 f   json_vc71_libmt:json_writer.obj
 0001:000a3f60       ?valueToQuotedString@Json@@YA?AV?$basic_string@DU?$char_traits@D@std@@V?$allocator@D@2@@std@@PBD@Z 100a4f60 f   json_vc71_libmt:json_writer.obj
 0001:000a4400       ??_GWriter@Json@@UAEPAXI@Z 100a5400 f i json_vc71_libmt:json_writer.obj
 0001:000a4400       ??_EWriter@Json@@UAEPAXI@Z 100a5400 f i  CIL library: CIL module
 0001:000a4420       ?write@FastWriter@Json@@UAE?AV?$basic_string@DU?$char_traits@D@std@@V?$allocator@D@2@@std@@ABVValue@2@@Z 100a5420 f   json_vc71_libmt:json_writer.obj
 0001:000a4490       ?writeValue@FastWriter@Json@@AAEXABVValue@2@@Z 100a5490 f   json_vc71_libmt:json_writer.obj
 0001:000a48a0       ?resize@?$basic_string@DU?$char_traits@D@std@@V?$allocator@D@2@@std@@QAEXI@Z 100a58a0 f i json_vc71_libmt:json_writer.obj
 0001:000a48d0       ?reserve@?$basic_string@DU?$char_traits@D@std@@V?$allocator@D@2@@std@@QAEXI@Z 100a58d0 f i json_vc71_libmt:json_writer.obj
 0001:000a4920       ?reserve@?$vector@V?$basic_string@DU?$char_traits@D@std@@V?$allocator@D@2@@std@@V?$allocator@V?$basic_string@DU?$char_traits@D@std@@V?$allocator@D@2@@std@@@2@@std@@QAEXI@Z 100a5920 f i json_vc71_libmt:json_writer.obj
 0001:000a4a70       ?resize@?$basic_string@DU?$char_traits@D@std@@V?$allocator@D@2@@std@@QAEXID@Z 100a5a70 f i json_vc71_libmt:json_writer.obj
 0001:000a4aa0       ??_GValueAllocator@Json@@UAEPAXI@Z 100a5aa0 f i json_vc71_libmt:json_value.obj
 0001:000a4aa0       ??_GDefaultValueAllocator@Json@@UAEPAXI@Z 100a5aa0 f i json_vc71_libmt:json_value.obj
 0001:000a4aa0       ??_EValueAllocator@Json@@UAEPAXI@Z 100a5aa0 f i  CIL library: CIL module
 0001:000a4aa0       ??_EDefaultValueAllocator@Json@@UAEPAXI@Z 100a5aa0 f i  CIL library: CIL module
 0001:000a4ac0       ?makeMemberName@DefaultValueAllocator@Json@@UAEPADPBD@Z 100a5ac0 f i json_vc71_libmt:json_value.obj
 0001:000a4ae0       ?releaseMemberName@DefaultValueAllocator@Json@@UAEXPAD@Z 100a5ae0 f i json_vc71_libmt:json_value.obj
 0001:000a4af0       ?duplicateStringValue@DefaultValueAllocator@Json@@UAEPADPBDI@Z 100a5af0 f i json_vc71_libmt:json_value.obj
 0001:000a4b40       ?releaseStringValue@DefaultValueAllocator@Json@@UAEXPAD@Z 100a5b40 f i json_vc71_libmt:json_value.obj
 0001:000a4b90       ??0CommentInfo@Value@Json@@QAE@XZ 100a5b90 f   json_vc71_libmt:json_value.obj
 0001:000a4ba0       ??1CommentInfo@Value@Json@@QAE@XZ 100a5ba0 f   json_vc71_libmt:json_value.obj
 0001:000a4bf0       ?setComment@CommentInfo@Value@Json@@QAEXPBD@Z 100a5bf0 f   json_vc71_libmt:json_value.obj
 0001:000a4d00       ??0CZString@Value@Json@@QAE@ABV012@@Z 100a5d00 f   json_vc71_libmt:json_value.obj
 0001:000a4d70       ??1CZString@Value@Json@@QAE@XZ 100a5d70 f   json_vc71_libmt:json_value.obj
 0001:000a4dc0       ??8CZString@Value@Json@@QBE_NABV012@@Z 100a5dc0 f   json_vc71_libmt:json_value.obj
 0001:000a4e10       ??0Value@Json@@QAE@PBD@Z   100a5e10 f   json_vc71_libmt:json_value.obj
 0001:000a4e70       ??0Value@Json@@QAE@ABV?$basic_string@DU?$char_traits@D@std@@V?$allocator@D@2@@std@@@Z 100a5e70 f   json_vc71_libmt:json_value.obj
 0001:000a4ee0       ??0Value@Json@@QAE@ABV01@@Z 100a5ee0 f   json_vc71_libmt:json_value.obj
 0001:000a5050       ??1Value@Json@@QAE@XZ      100a6050 f   json_vc71_libmt:json_value.obj
 0001:000a50f0       ??4Value@Json@@QAEAAV01@ABV01@@Z 100a60f0 f   json_vc71_libmt:json_value.obj
 0001:000a5180       ?asString@Value@Json@@QBE?AV?$basic_string@DU?$char_traits@D@std@@V?$allocator@D@2@@std@@XZ 100a6180 f   json_vc71_libmt:json_value.obj
 0001:000a52b0       ?asInt@Value@Json@@QBEHXZ  100a62b0 f   json_vc71_libmt:json_value.obj
 0001:000a5450       ?asUInt@Value@Json@@QBEIXZ 100a6450 f   json_vc71_libmt:json_value.obj
 0001:000a5610       ?asDouble@Value@Json@@QBENXZ 100a6610 f   json_vc71_libmt:json_value.obj
 0001:000a5720       ?asBool@Value@Json@@QBE_NXZ 100a6720 f   json_vc71_libmt:json_value.obj
 0001:000a5790       ?size@Value@Json@@QBEIXZ   100a6790 f   json_vc71_libmt:json_value.obj
 0001:000a5810       ??AValue@Json@@QAEAAV01@I@Z 100a6810 f   json_vc71_libmt:json_value.obj
 0001:000a59d0       ??1?$pair@$$CBVCZString@Value@Json@@V23@@std@@QAE@XZ 100a69d0 f i json_vc71_libmt:json_value.obj
 0001:000a5a70       ??AValue@Json@@QBEABV01@I@Z 100a6a70 f   json_vc71_libmt:json_value.obj
 0001:000a5b40       ?resolveReference@Value@Json@@AAEAAV12@PBD_N@Z 100a6b40 f   json_vc71_libmt:json_value.obj
 0001:000a5d00       ??AValue@Json@@QBEABV01@PBD@Z 100a6d00 f   json_vc71_libmt:json_value.obj
 0001:000a5dd0       ?getMemberNames@Value@Json@@QBE?AV?$vector@V?$basic_string@DU?$char_traits@D@std@@V?$allocator@D@2@@std@@V?$allocator@V?$basic_string@DU?$char_traits@D@std@@V?$allocator@D@2@@std@@@2@@std@@XZ 100a6dd0 f   json_vc71_libmt:json_value.obj
 0001:000a5f40       ?setComment@Value@Json@@QAEXPBDW4CommentPlacement@2@@Z 100a6f40 f   json_vc71_libmt:json_value.obj
 0001:000a5fd0       ??0?$_Tree@V?$_Tmap_traits@VCZString@Value@Json@@V23@U?$less@VCZString@Value@Json@@@std@@V?$allocator@U?$pair@$$CBVCZString@Value@Json@@V23@@std@@@5@$0A@@std@@@std@@QAE@ABV01@@Z 100a6fd0 f i json_vc71_libmt:json_value.obj
 0001:000a6060       ??1?$_Tree@V?$_Tmap_traits@VCZString@Value@Json@@V23@U?$less@VCZString@Value@Json@@@std@@V?$allocator@U?$pair@$$CBVCZString@Value@Json@@V23@@std@@@5@$0A@@std@@@std@@QAE@XZ 100a7060 f i json_vc71_libmt:json_value.obj
 0001:000a60a0       ?insert@?$_Tree@V?$_Tmap_traits@VCZString@Value@Json@@V23@U?$less@VCZString@Value@Json@@@std@@V?$allocator@U?$pair@$$CBVCZString@Value@Json@@V23@@std@@@5@$0A@@std@@@std@@QAE?AViterator@12@V312@ABU?$pair@$$CBVCZString@Value@Json@@V23@@2@@Z 100a70a0 f i json_vc71_libmt:json_value.obj
 0001:000a62b0       ?erase@?$_Tree@V?$_Tmap_traits@VCZString@Value@Json@@V23@U?$less@VCZString@Value@Json@@@std@@V?$allocator@U?$pair@$$CBVCZString@Value@Json@@V23@@std@@@5@$0A@@std@@@std@@QAE?AViterator@12@V312@@Z 100a72b0 f i json_vc71_libmt:json_value.obj
 0001:000a6590       ?find@?$_Tree@V?$_Tmap_traits@VCZString@Value@Json@@V23@U?$less@VCZString@Value@Json@@@std@@V?$allocator@U?$pair@$$CBVCZString@Value@Json@@V23@@std@@@5@$0A@@std@@@std@@QAE?AViterator@12@ABVCZString@Value@Json@@@Z 100a7590 f i json_vc71_libmt:json_value.obj
 0001:000a6630       ??Dconst_iterator@?$_Tree@V?$_Tmap_traits@VCZString@Value@Json@@V23@U?$less@VCZString@Value@Json@@@std@@V?$allocator@U?$pair@$$CBVCZString@Value@Json@@V23@@std@@@5@$0A@@std@@@std@@QBEABU?$pair@$$CBVCZString@Value@Json@@V23@@2@XZ 100a7630 f i json_vc71_libmt:json_value.obj
 0001:000a6650       ??0?$pair@$$CBVCZString@Value@Json@@V23@@std@@QAE@ABVCZString@Value@Json@@ABV34@@Z 100a7650 f i json_vc71_libmt:json_value.obj
 0001:000a66b0       ?insert@?$_Tree@V?$_Tmap_traits@VCZString@Value@Json@@V23@U?$less@VCZString@Value@Json@@@std@@V?$allocator@U?$pair@$$CBVCZString@Value@Json@@V23@@std@@@5@$0A@@std@@@std@@QAE?AU?$pair@Viterator@?$_Tree@V?$_Tmap_traits@VCZString@Value@Json@@V23@U?$less@VCZString@Value@Json@@@std@@V?$allocator@U?$pair@$$CBVCZString@Value@Json@@V23@@std@@@5@$0A@@std@@@std@@_N@2@ABU?$pair@$$CBVCZString@Value@Json@@V23@@2@@Z 100a76b0 f i json_vc71_libmt:json_value.obj
 0001:000a67f0       ?erase@?$_Tree@V?$_Tmap_traits@VCZString@Value@Json@@V23@U?$less@VCZString@Value@Json@@@std@@V?$allocator@U?$pair@$$CBVCZString@Value@Json@@V23@@std@@@5@$0A@@std@@@std@@QAE?AViterator@12@V312@0@Z 100a77f0 f i json_vc71_libmt:json_value.obj
 0001:000a68c0       ?_Copy@?$_Tree@V?$_Tmap_traits@VCZString@Value@Json@@V23@U?$less@VCZString@Value@Json@@@std@@V?$allocator@U?$pair@$$CBVCZString@Value@Json@@V23@@std@@@5@$0A@@std@@@std@@IAEXABV12@@Z 100a78c0 f i json_vc71_libmt:json_value.obj
 0001:000a6930       ?_Erase@?$_Tree@V?$_Tmap_traits@VCZString@Value@Json@@V23@U?$less@VCZString@Value@Json@@@std@@V?$allocator@U?$pair@$$CBVCZString@Value@Json@@V23@@std@@@5@$0A@@std@@@std@@IAEXPAU_Node@?$_Tree_nod@V?$_Tmap_traits@VCZString@Value@Json@@V23@U?$less@VCZString@Value@Json@@@std@@V?$allocator@U?$pair@$$CBVCZString@Value@Json@@V23@@std@@@5@$0A@@std@@@2@@Z 100a7930 f i json_vc71_libmt:json_value.obj
 0001:000a6970       ?_Insert@?$_Tree@V?$_Tmap_traits@VCZString@Value@Json@@V23@U?$less@VCZString@Value@Json@@@std@@V?$allocator@U?$pair@$$CBVCZString@Value@Json@@V23@@std@@@5@$0A@@std@@@std@@IAE?AViterator@12@_NPAU_Node@?$_Tree_nod@V?$_Tmap_traits@VCZString@Value@Json@@V23@U?$less@VCZString@Value@Json@@@std@@V?$allocator@U?$pair@$$CBVCZString@Value@Json@@V23@@std@@@5@$0A@@std@@@2@ABU?$pair@$$CBVCZString@Value@Json@@V23@@2@@Z 100a7970 f i json_vc71_libmt:json_value.obj
 0001:000a6b60       ?_Lbound@?$_Tree@V?$_Tmap_traits@VCZString@Value@Json@@V23@U?$less@VCZString@Value@Json@@@std@@V?$allocator@U?$pair@$$CBVCZString@Value@Json@@V23@@std@@@5@$0A@@std@@@std@@IBEPAU_Node@?$_Tree_nod@V?$_Tmap_traits@VCZString@Value@Json@@V23@U?$less@VCZString@Value@Json@@@std@@V?$allocator@U?$pair@$$CBVCZString@Value@Json@@V23@@std@@@5@$0A@@std@@@2@ABVCZString@Value@Json@@@Z 100a7b60 f i json_vc71_libmt:json_value.obj
 0001:000a6bd0       ?_Rrotate@?$_Tree@V?$_Tmap_traits@VCZString@Value@Json@@V23@U?$less@VCZString@Value@Json@@@std@@V?$allocator@U?$pair@$$CBVCZString@Value@Json@@V23@@std@@@5@$0A@@std@@@std@@IAEXPAU_Node@?$_Tree_nod@V?$_Tmap_traits@VCZString@Value@Json@@V23@U?$less@VCZString@Value@Json@@@std@@V?$allocator@U?$pair@$$CBVCZString@Value@Json@@V23@@std@@@5@$0A@@std@@@2@@Z 100a7bd0 f i json_vc71_libmt:json_value.obj
 0001:000a6bd0       ?_Rrotate@?$_Tree@V?$_Tset_traits@V?$basic_string@DU?$char_traits@D@std@@V?$allocator@D@2@@std@@U?$less@V?$basic_string@DU?$char_traits@D@std@@V?$allocator@D@2@@std@@@2@V?$allocator@V?$basic_string@DU?$char_traits@D@std@@V?$allocator@D@2@@std@@@2@$0A@@std@@@std@@IAEXPAU_Node@?$_Tree_nod@V?$_Tset_traits@V?$basic_string@DU?$char_traits@D@std@@V?$allocator@D@2@@std@@U?$less@V?$basic_string@DU?$char_traits@D@std@@V?$allocator@D@2@@std@@@2@V?$allocator@V?$basic_string@DU?$char_traits@D@std@@V?$allocator@D@2@@std@@@2@$0A@@std@@@2@@Z 100a7bd0 f i LogFileExplorer.obj
 0001:000a6c20       ?_Tidy@?$_Tree@V?$_Tmap_traits@VCZString@Value@Json@@V23@U?$less@VCZString@Value@Json@@@std@@V?$allocator@U?$pair@$$CBVCZString@Value@Json@@V23@@std@@@5@$0A@@std@@@std@@IAEXXZ 100a7c20 f i json_vc71_libmt:json_value.obj
 0001:000a6c60       ??R?$less@VCZString@Value@Json@@@std@@QBE_NABVCZString@Value@Json@@0@Z 100a7c60 f i json_vc71_libmt:json_value.obj
 0001:000a6cb0       ?_Dec@const_iterator@?$_Tree@V?$_Tmap_traits@VCZString@Value@Json@@V23@U?$less@VCZString@Value@Json@@@std@@V?$allocator@U?$pair@$$CBVCZString@Value@Json@@V23@@std@@@5@$0A@@std@@@std@@QAEXXZ 100a7cb0 f i json_vc71_libmt:json_value.obj
 0001:000a6cb0       ?_Dec@const_iterator@?$_Tree@V?$_Tset_traits@V?$basic_string@DU?$char_traits@D@std@@V?$allocator@D@2@@std@@U?$less@V?$basic_string@DU?$char_traits@D@std@@V?$allocator@D@2@@std@@@2@V?$allocator@V?$basic_string@DU?$char_traits@D@std@@V?$allocator@D@2@@std@@@2@$0A@@std@@@std@@QAEXXZ 100a7cb0 f i MonitorPackageHelper.obj
 0001:000a6d30       ?_Inc@const_iterator@?$_Tree@V?$_Tset_traits@V?$basic_string@DU?$char_traits@D@std@@V?$allocator@D@2@@std@@U?$less@V?$basic_string@DU?$char_traits@D@std@@V?$allocator@D@2@@std@@@2@V?$allocator@V?$basic_string@DU?$char_traits@D@std@@V?$allocator@D@2@@std@@@2@$0A@@std@@@std@@QAEXXZ 100a7d30 f i LogFileExplorer.obj
 0001:000a6d30       ?_Inc@const_iterator@?$_Tree@V?$_Tmap_traits@VCZString@Value@Json@@V23@U?$less@VCZString@Value@Json@@@std@@V?$allocator@U?$pair@$$CBVCZString@Value@Json@@V23@@std@@@5@$0A@@std@@@std@@QAEXXZ 100a7d30 f i json_vc71_libmt:json_value.obj
 0001:000a6da0       ?_Copy@?$_Tree@V?$_Tmap_traits@VCZString@Value@Json@@V23@U?$less@VCZString@Value@Json@@@std@@V?$allocator@U?$pair@$$CBVCZString@Value@Json@@V23@@std@@@5@$0A@@std@@@std@@IAEPAU_Node@?$_Tree_nod@V?$_Tmap_traits@VCZString@Value@Json@@V23@U?$less@VCZString@Value@Json@@@std@@V?$allocator@U?$pair@$$CBVCZString@Value@Json@@V23@@std@@@5@$0A@@std@@@2@PAU342@0@Z 100a7da0 f i json_vc71_libmt:json_value.obj
 0001:000a6e60       ?_Buynode@?$_Tree@V?$_Tmap_traits@VCZString@Value@Json@@V23@U?$less@VCZString@Value@Json@@@std@@V?$allocator@U?$pair@$$CBVCZString@Value@Json@@V23@@std@@@5@$0A@@std@@@std@@IAEPAU_Node@?$_Tree_nod@V?$_Tmap_traits@VCZString@Value@Json@@V23@U?$less@VCZString@Value@Json@@@std@@V?$allocator@U?$pair@$$CBVCZString@Value@Json@@V23@@std@@@5@$0A@@std@@@2@XZ 100a7e60 f i json_vc71_libmt:json_value.obj
 0001:000a6ea0       ?_Buynode@?$_Tree@V?$_Tmap_traits@VCZString@Value@Json@@V23@U?$less@VCZString@Value@Json@@@std@@V?$allocator@U?$pair@$$CBVCZString@Value@Json@@V23@@std@@@5@$0A@@std@@@std@@IAEPAU_Node@?$_Tree_nod@V?$_Tmap_traits@VCZString@Value@Json@@V23@U?$less@VCZString@Value@Json@@@std@@V?$allocator@U?$pair@$$CBVCZString@Value@Json@@V23@@std@@@5@$0A@@std@@@2@PAU342@00ABU?$pair@$$CBVCZString@Value@Json@@V23@@2@D@Z 100a7ea0 f i json_vc71_libmt:json_value.obj
 0001:000a6f50       ??0?$pair@$$CBVCZString@Value@Json@@V23@@std@@QAE@ABU01@@Z 100a7f50 f i json_vc71_libmt:json_value.obj
 0001:000a6fb0       ??$_Allocate@U_Node@?$_Tree_nod@V?$_Tmap_traits@VCZString@Value@Json@@V23@U?$less@VCZString@Value@Json@@@std@@V?$allocator@U?$pair@$$CBVCZString@Value@Json@@V23@@std@@@5@$0A@@std@@@std@@@std@@YAPAU_Node@?$_Tree_nod@V?$_Tmap_traits@VCZString@Value@Json@@V23@U?$less@VCZString@Value@Json@@@std@@V?$allocator@U?$pair@$$CBVCZString@Value@Json@@V23@@std@@@5@$0A@@std@@@0@IPAU120@@Z 100a7fb0 f i json_vc71_libmt:json_value.obj
 0001:000a6fb0       ??$_Allocate@U_Node@?$_Tree_nod@V?$_Tmap_traits@HUJsonLastError@@U?$less@H@std@@V?$allocator@U?$pair@$$CBHUJsonLastError@@@std@@@3@$0A@@std@@@std@@@std@@YAPAU_Node@?$_Tree_nod@V?$_Tmap_traits@HUJsonLastError@@U?$less@H@std@@V?$allocator@U?$pair@$$CBHUJsonLastError@@@std@@@3@$0A@@std@@@0@IPAU120@@Z 100a7fb0 f i JsonHelper.obj
 0001:000a6fb0       ??$_Allocate@U_Node@?$_Tree_nod@V?$_Tmap_traits@HV?$basic_string@DU?$char_traits@D@std@@V?$allocator@D@2@@std@@U?$less@H@2@V?$allocator@U?$pair@$$CBHV?$basic_string@DU?$char_traits@D@std@@V?$allocator@D@2@@std@@@std@@@2@$0A@@std@@@std@@@std@@YAPAU_Node@?$_Tree_nod@V?$_Tmap_traits@HV?$basic_string@DU?$char_traits@D@std@@V?$allocator@D@2@@std@@U?$less@H@2@V?$allocator@U?$pair@$$CBHV?$basic_string@DU?$char_traits@D@std@@V?$allocator@D@2@@std@@@std@@@2@$0A@@std@@@0@IPAU120@@Z 100a7fb0 f i ThreadDevice.obj
 0001:000a7210       ??0Reader@Json@@QAE@XZ     100a8210 f   json_vc71_libmt:json_reader.obj
 0001:000a7250       ?parse@Reader@Json@@QAE_NABV?$basic_string@DU?$char_traits@D@std@@V?$allocator@D@2@@std@@AAVValue@2@_N@Z 100a8250 f   json_vc71_libmt:json_reader.obj
 0001:000a7290       ?parse@Reader@Json@@QAE_NPBD0AAVValue@2@_N@Z 100a8290 f   json_vc71_libmt:json_reader.obj
 0001:000a7410       ?readValue@Reader@Json@@AAE_NXZ 100a8410 f   json_vc71_libmt:json_reader.obj
 0001:000a7640       ?readToken@Reader@Json@@AAE_NAAVToken@12@@Z 100a8640 f   json_vc71_libmt:json_reader.obj
 0001:000a78d0       ?readComment@Reader@Json@@AAE_NXZ 100a88d0 f   json_vc71_libmt:json_reader.obj
 0001:000a7950       ?addComment@Reader@Json@@AAEXPBD0W4CommentPlacement@2@@Z 100a8950 f   json_vc71_libmt:json_reader.obj
 0001:000a7a50       ?readCStyleComment@Reader@Json@@AAE_NXZ 100a8a50 f   json_vc71_libmt:json_reader.obj
 0001:000a7ab0       ?readCppStyleComment@Reader@Json@@AAE_NXZ 100a8ab0 f   json_vc71_libmt:json_reader.obj
 0001:000a7af0       ?readNumber@Reader@Json@@AAEXXZ 100a8af0 f   json_vc71_libmt:json_reader.obj
 0001:000a7b30       ?readString@Reader@Json@@AAE_NXZ 100a8b30 f   json_vc71_libmt:json_reader.obj
 0001:000a7b80       ?readObject@Reader@Json@@AAE_NAAVToken@12@@Z 100a8b80 f   json_vc71_libmt:json_reader.obj
 0001:000a7fc0       ?readArray@Reader@Json@@AAE_NAAVToken@12@@Z 100a8fc0 f   json_vc71_libmt:json_reader.obj
 0001:000a8200       ?decodeNumber@Reader@Json@@AAE_NAAVToken@12@@Z 100a9200 f   json_vc71_libmt:json_reader.obj
 0001:000a8490       ?decodeDouble@Reader@Json@@AAE_NAAVToken@12@@Z 100a9490 f   json_vc71_libmt:json_reader.obj
 0001:000a86d0       ?decodeString@Reader@Json@@AAE_NAAVToken@12@@Z 100a96d0 f   json_vc71_libmt:json_reader.obj
 0001:000a87b0       ?decodeString@Reader@Json@@AAE_NAAVToken@12@AAV?$basic_string@DU?$char_traits@D@std@@V?$allocator@D@2@@std@@@Z 100a97b0 f   json_vc71_libmt:json_reader.obj
 0001:000a8a90       ?decodeUnicodeCodePoint@Reader@Json@@AAE_NAAVToken@12@AAPBDPBDAAI@Z 100a9a90 f   json_vc71_libmt:json_reader.obj
 0001:000a8bd0       ?decodeUnicodeEscapeSequence@Reader@Json@@AAE_NAAVToken@12@AAPBDPBDAAI@Z 100a9bd0 f   json_vc71_libmt:json_reader.obj
 0001:000a8d50       ?addError@Reader@Json@@AAE_NABV?$basic_string@DU?$char_traits@D@std@@V?$allocator@D@2@@std@@AAVToken@12@PBD@Z 100a9d50 f   json_vc71_libmt:json_reader.obj
 0001:000a8e10       ?recoverFromError@Reader@Json@@AAE_NW4TokenType@12@@Z 100a9e10 f   json_vc71_libmt:json_reader.obj
 0001:000a8e90       ?push_back@?$deque@VErrorInfo@Reader@Json@@V?$allocator@VErrorInfo@Reader@Json@@@std@@@std@@QAEXABVErrorInfo@Reader@Json@@@Z 100a9e90 f i json_vc71_libmt:json_reader.obj
 0001:000a8ee0       ?back@?$deque@PAVValue@Json@@V?$allocator@PAVValue@Json@@@std@@@std@@QAEAAPAVValue@Json@@XZ 100a9ee0 f i json_vc71_libmt:json_reader.obj
 0001:000a8f40       ?push_back@?$deque@PAVValue@Json@@V?$allocator@PAVValue@Json@@@std@@@std@@QAEXABQAVValue@Json@@@Z 100a9f40 f i json_vc71_libmt:json_reader.obj
 0001:000a8fc0       ?resize@?$deque@VErrorInfo@Reader@Json@@V?$allocator@VErrorInfo@Reader@Json@@@std@@@std@@QAEXIVErrorInfo@Reader@Json@@@Z 100a9fc0 f i json_vc71_libmt:json_reader.obj
 0001:000a90e0       ?_Growmap@?$deque@VErrorInfo@Reader@Json@@V?$allocator@VErrorInfo@Reader@Json@@@std@@@std@@IAEXI@Z 100aa0e0 f i json_vc71_libmt:json_reader.obj
 0001:000a9240       ?_Growmap@?$deque@PAVValue@Json@@V?$allocator@PAVValue@Json@@@std@@@std@@IAEXI@Z 100aa240 f i json_vc71_libmt:json_reader.obj
 0001:000a93b0       ?erase@?$deque@VErrorInfo@Reader@Json@@V?$allocator@VErrorInfo@Reader@Json@@@std@@@std@@QAE?AV?$_Deque_iterator@VErrorInfo@Reader@Json@@V?$allocator@VErrorInfo@Reader@Json@@@std@@$00@2@V32@0@Z 100aa3b0 f i json_vc71_libmt:json_reader.obj
 0001:000a95e0       ?_Insert_n@?$deque@VErrorInfo@Reader@Json@@V?$allocator@VErrorInfo@Reader@Json@@@std@@@std@@IAEXV?$_Deque_iterator@VErrorInfo@Reader@Json@@V?$allocator@VErrorInfo@Reader@Json@@@std@@$00@2@IABVErrorInfo@Reader@Json@@@Z 100aa5e0 f i json_vc71_libmt:json_reader.obj
 0001:000a9e10       ?_Xlen@?$deque@PAVValue@Json@@V?$allocator@PAVValue@Json@@@std@@@std@@KAXXZ 100aae10 f i json_vc71_libmt:json_reader.obj
 0001:000a9e10       ?_Xlen@?$deque@VErrorInfo@Reader@Json@@V?$allocator@VErrorInfo@Reader@Json@@@std@@@std@@KAXXZ 100aae10 f i json_vc71_libmt:json_reader.obj
 0001:000a9e90       ??H?$_Deque_iterator@VErrorInfo@Reader@Json@@V?$allocator@VErrorInfo@Reader@Json@@@std@@$00@std@@QBE?AV01@H@Z 100aae90 f i json_vc71_libmt:json_reader.obj
 0001:000a9ed0       ?pop_front@?$deque@VErrorInfo@Reader@Json@@V?$allocator@VErrorInfo@Reader@Json@@@std@@@std@@QAEXXZ 100aaed0 f i json_vc71_libmt:json_reader.obj
 0001:000a9f20       ??A?$_Deque_iterator@VErrorInfo@Reader@Json@@V?$allocator@VErrorInfo@Reader@Json@@@std@@$00@std@@QBEAAVErrorInfo@Reader@Json@@H@Z 100aaf20 f i json_vc71_libmt:json_reader.obj
 0001:000a9f80       ??$_Allocate@U_Node@?$_Tree_nod@V?$_Tset_traits@V?$basic_string@DU?$char_traits@D@std@@V?$allocator@D@2@@std@@U?$less@V?$basic_string@DU?$char_traits@D@std@@V?$allocator@D@2@@std@@@2@V?$allocator@V?$basic_string@DU?$char_traits@D@std@@V?$allocator@D@2@@std@@@2@$0A@@std@@@std@@@std@@YAPAU_Node@?$_Tree_nod@V?$_Tset_traits@V?$basic_string@DU?$char_traits@D@std@@V?$allocator@D@2@@std@@U?$less@V?$basic_string@DU?$char_traits@D@std@@V?$allocator@D@2@@std@@@2@V?$allocator@V?$basic_string@DU?$char_traits@D@std@@V?$allocator@D@2@@std@@@2@$0A@@std@@@0@IPAU120@@Z 100aaf80 f i LogFileExplorer.obj
 0001:000a9f80       ??$_Allocate@VErrorInfo@Reader@Json@@@std@@YAPAVErrorInfo@Reader@Json@@IPAV123@@Z 100aaf80 f i json_vc71_libmt:json_reader.obj
 0001:000a9fd0       ??$_Construct@VErrorInfo@Reader@Json@@V123@@std@@YAXPAVErrorInfo@Reader@Json@@ABV123@@Z 100aafd0 f i json_vc71_libmt:json_reader.obj
 0001:000aa050       ??$copy_backward@V?$_Deque_iterator@VErrorInfo@Reader@Json@@V?$allocator@VErrorInfo@Reader@Json@@@std@@$00@std@@V12@@std@@YA?AV?$_Deque_iterator@VErrorInfo@Reader@Json@@V?$allocator@VErrorInfo@Reader@Json@@@std@@$00@0@V10@00@Z 100ab050 f i json_vc71_libmt:json_reader.obj
 0001:000aa0c0       ??$copy@V?$_Deque_iterator@VErrorInfo@Reader@Json@@V?$allocator@VErrorInfo@Reader@Json@@@std@@$00@std@@V12@@std@@YA?AV?$_Deque_iterator@VErrorInfo@Reader@Json@@V?$allocator@VErrorInfo@Reader@Json@@@std@@$00@0@V10@00@Z 100ab0c0 f i json_vc71_libmt:json_reader.obj
 0001:000aa130       ??$_Allocate@PAPAVValue@Json@@@std@@YAPAPAPAVValue@Json@@IPAPAPAV12@@Z 100ab130 f i json_vc71_libmt:json_reader.obj
 0001:000aa130       ??$_Allocate@PAVValue@Json@@@std@@YAPAPAVValue@Json@@IPAPAV12@@Z 100ab130 f i json_vc71_libmt:json_reader.obj
 0001:000aa130       ??$_Allocate@PAVErrorInfo@Reader@Json@@@std@@YAPAPAVErrorInfo@Reader@Json@@IPAPAV123@@Z 100ab130 f i json_vc71_libmt:json_reader.obj
 0001:000aa180       ??$_Copy_backward_opt@V?$_Deque_iterator@VErrorInfo@Reader@Json@@V?$allocator@VErrorInfo@Reader@Json@@@std@@$0A@@std@@V?$_Deque_iterator@VErrorInfo@Reader@Json@@V?$allocator@VErrorInfo@Reader@Json@@@std@@$00@2@@std@@YA?AV?$_Deque_iterator@VErrorInfo@Reader@Json@@V?$allocator@VErrorInfo@Reader@Json@@@std@@$00@0@V?$_Deque_iterator@VErrorInfo@Reader@Json@@V?$allocator@VErrorInfo@Reader@Json@@@std@@$0A@@0@0V10@Urandom_access_iterator_tag@0@U_Nonscalar_ptr_iterator_tag@0@U_Range_checked_iterator_tag@0@@Z 100ab180 f i json_vc71_libmt:json_reader.obj
 0001:000aa240       ??$_Copy_opt@V?$_Deque_iterator@VErrorInfo@Reader@Json@@V?$allocator@VErrorInfo@Reader@Json@@@std@@$0A@@std@@V?$_Deque_iterator@VErrorInfo@Reader@Json@@V?$allocator@VErrorInfo@Reader@Json@@@std@@$00@2@@std@@YA?AV?$_Deque_iterator@VErrorInfo@Reader@Json@@V?$allocator@VErrorInfo@Reader@Json@@@std@@$00@0@V?$_Deque_iterator@VErrorInfo@Reader@Json@@V?$allocator@VErrorInfo@Reader@Json@@@std@@$0A@@0@0V10@Urandom_access_iterator_tag@0@U_Nonscalar_ptr_iterator_tag@0@U_Range_checked_iterator_tag@0@@Z 100ab240 f i json_vc71_libmt:json_reader.obj
 0001:000aa300       ??$_Fill@V?$_Deque_iterator@VErrorInfo@Reader@Json@@V?$allocator@VErrorInfo@Reader@Json@@@std@@$0A@@std@@VErrorInfo@Reader@Json@@@std@@YAXV?$_Deque_iterator@VErrorInfo@Reader@Json@@V?$allocator@VErrorInfo@Reader@Json@@@std@@$0A@@0@0ABVErrorInfo@Reader@Json@@@Z 100ab300 f i json_vc71_libmt:json_reader.obj
 0001:000aa370       ??$_Copy_backward_opt@V?$_Deque_iterator@VErrorInfo@Reader@Json@@V?$allocator@VErrorInfo@Reader@Json@@@std@@$0A@@std@@V12@Uforward_iterator_tag@2@@std@@YA?AV?$_Deque_iterator@VErrorInfo@Reader@Json@@V?$allocator@VErrorInfo@Reader@Json@@@std@@$0A@@0@V10@00Uforward_iterator_tag@0@U_Nonscalar_ptr_iterator_tag@0@U_Range_checked_iterator_tag@0@@Z 100ab370 f i json_vc71_libmt:json_reader.obj
 0001:000aa440       ??$_Copy_opt@V?$_Deque_iterator@VErrorInfo@Reader@Json@@V?$allocator@VErrorInfo@Reader@Json@@@std@@$0A@@std@@V12@Uforward_iterator_tag@2@@std@@YA?AV?$_Deque_iterator@VErrorInfo@Reader@Json@@V?$allocator@VErrorInfo@Reader@Json@@@std@@$0A@@0@V10@00Uforward_iterator_tag@0@U_Nonscalar_ptr_iterator_tag@0@U_Range_checked_iterator_tag@0@@Z 100ab440 f i json_vc71_libmt:json_reader.obj
 0001:000aa620       _curl_global_init          100ab620 f   libcurl:easy.obj
 0001:000aa640       _curl_global_cleanup       100ab640 f   libcurl:easy.obj
 0001:000aa680       _curl_easy_init            100ab680 f   libcurl:easy.obj
 0001:000aa6c0       _curl_easy_setopt          100ab6c0 f   libcurl:easy.obj
 0001:000aa900       _curl_easy_perform         100ab900 f   libcurl:easy.obj
 0001:000aa920       _curl_easy_cleanup         100ab920 f   libcurl:easy.obj
 0001:000aa940       _curl_version              100ab940 f   libcurl:version.obj
 0001:000aa9a0       _curl_version_info         100ab9a0 f   libcurl:version.obj
 0001:000aa9c0       _Curl_version_init         100ab9c0 f   libcurl:version.obj
 0001:000aa9d0       _Curl_wait_ms              100ab9d0 f   libcurl:select.obj
 0001:000aaa00       _Curl_socket_check         100aba00 f   libcurl:select.obj
 0001:000aae00       _Curl_poll                 100abe00 f   libcurl:select.obj
 0001:000ab1a0       _Curl_resolver_global_cleanup 100ac1a0 f   libcurl:asyn-thread.obj
 0001:000ab1a0       _Curl_resolver_cleanup     100ac1a0 f   libcurl:asyn-thread.obj
 0001:000ab510       _Curl_resolver_wait_resolv 100ac510 f   libcurl:asyn-thread.obj
 0001:000ab590       _Curl_resolver_is_resolved 100ac590 f   libcurl:asyn-thread.obj
 0001:000ab6f0       _Curl_resolver_getaddrinfo 100ac6f0 f   libcurl:asyn-thread.obj
 0001:000ab850       _Curl_resolver_cancel      100ac850 f   libcurl:asyn-thread.obj
 0001:000ab870       _Curl_global_host_cache_dtor 100ac870 f   libcurl:hostip.obj
 0001:000ab8a0       _Curl_num_addresses        100ac8a0 f   libcurl:hostip.obj
 0001:000ab8c0       _Curl_printable_address    100ac8c0 f   libcurl:hostip.obj
 0001:000ab9b0       _Curl_hostcache_prune      100ac9b0 f   libcurl:hostip.obj
 0001:000abad0       _Curl_fetch_addr           100acad0 f   libcurl:hostip.obj
 0001:000abb20       _Curl_cache_addr           100acb20 f   libcurl:hostip.obj
 0001:000abbf0       _Curl_resolv               100acbf0 f   libcurl:hostip.obj
 0001:000abd70       _Curl_resolv_timeout       100acd70 f   libcurl:hostip.obj
 0001:000abdd0       _Curl_mk_dnscache          100acdd0 f   libcurl:hostip.obj
 0001:000abdf0       _Curl_hostcache_clean      100acdf0 f   libcurl:hostip.obj
 0001:000abe30       _Curl_loadhostpairs        100ace30 f   libcurl:hostip.obj
 0001:000ac0a0       _Curl_global_host_cache_init 100ad0a0 f   libcurl:hostip.obj
 0001:000ac0f0       _Curl_resolv_unlock        100ad0f0 f   libcurl:hostip.obj
 0001:000ac130       _Curl_freeset              100ad130 f   libcurl:url.obj
 0001:000ac1e0       _Curl_init_userdefined     100ad1e0 f   libcurl:url.obj
 0001:000ac360       _Curl_open                 100ad360 f   libcurl:url.obj
 0001:000ac850       _Curl_removeHandleFromPipeline 100ad850 f   libcurl:url.obj
 0001:000ac8a0       _Curl_getoff_all_pipelines 100ad8a0 f   libcurl:url.obj
 0001:000ac980       _Curl_oldest_idle_connection 100ad980 f   libcurl:url.obj
 0001:000acba0       _Curl_connected_proxy      100adba0 f   libcurl:url.obj
 0001:000accc0       _Curl_verboseconnect       100adcc0 f   libcurl:url.obj
 0001:000acd30       _Curl_protocol_getsock     100add30 f   libcurl:url.obj
 0001:000acd50       _Curl_doing_getsock        100add50 f   libcurl:url.obj
 0001:000acd70       _Curl_protocol_connecting  100add70 f   libcurl:url.obj
 0001:000acdb0       _Curl_protocol_doing       100addb0 f   libcurl:url.obj
 0001:000acdf0       _Curl_protocol_connect     100addf0 f   libcurl:url.obj
 0001:000ad300       _Curl_free_request_state   100ae300 f   libcurl:url.obj
 0001:000ae4d0       _Curl_setup_conn           100af4d0 f   libcurl:url.obj
 0001:000ae630       _Curl_init_do              100af630 f   libcurl:url.obj
 0001:000ae990       _Curl_close                100af990 f   libcurl:url.obj
 0001:000aeb70       _Curl_setopt               100afb70 f   libcurl:url.obj
 0001:000b1580       _Curl_disconnect           100b2580 f   libcurl:url.obj
 0001:000b3b50       _Curl_connect              100b4b50 f   libcurl:url.obj
 0001:000b3d30       _Curl_multi_handle         100b4d30 f   libcurl:multi.obj
 0001:000b40b0       _Curl_pipeline_wanted      100b50b0 f   libcurl:multi.obj
 0001:000b40d0       _Curl_multi_handlePipeBreak 100b50d0 f   libcurl:multi.obj
 0001:000b4480       _curl_multi_cleanup        100b5480 f   libcurl:multi.obj
 0001:000b4570       _curl_multi_info_read      100b5570 f   libcurl:multi.obj
 0001:000b4830       _Curl_multi_closed         100b5830 f   libcurl:multi.obj
 0001:000b49b0       _curl_multi_setopt         100b59b0 f   libcurl:multi.obj
 0001:000b4e20       _Curl_expire               100b5e20 f   libcurl:multi.obj
 0001:000b4fe0       _Curl_expire_done          100b5fe0 f   libcurl:multi.obj
 0001:000b4ff0       _Curl_expire_clear         100b5ff0 f   libcurl:multi.obj
 0001:000b5090       _Curl_multi_max_host_connections 100b6090 f   libcurl:multi.obj
 0001:000b50b0       _Curl_multi_max_total_connections 100b60b0 f   libcurl:multi.obj
 0001:000b50d0       _Curl_multi_content_length_penalty_size 100b60d0 f   libcurl:multi.obj
 0001:000b50f0       _Curl_multi_chunk_length_penalty_size 100b60f0 f   libcurl:multi.obj
 0001:000b5110       _Curl_multi_pipelining_site_bl 100b6110 f   libcurl:multi.obj
 0001:000b5120       _Curl_multi_pipelining_server_bl 100b6120 f   libcurl:multi.obj
 0001:000b5130       _Curl_multi_process_pending_handles 100b6130 f   libcurl:multi.obj
 0001:000b5180       _curl_multi_add_handle     100b6180 f   libcurl:multi.obj
 0001:000b52c0       _curl_multi_remove_handle  100b62c0 f   libcurl:multi.obj
 0001:000b5450       _curl_multi_wait           100b6450 f   libcurl:multi.obj
 0001:000b68b0       _curl_multi_perform        100b78b0 f   libcurl:multi.obj
 0001:000b69d0       _curlx_tvnow               100b79d0 f   libcurl:timeval.obj
 0001:000b6a10       _curlx_tvdiff              100b7a10 f   libcurl:timeval.obj
 0001:000b6a60       _Curl_tvdiff_us            100b7a60 f   libcurl:timeval.obj
 0001:000b6ac0       _Curl_recv_has_postponed_data 100b7ac0 f   libcurl:sendf.obj
 0001:000b6b70       _Curl_write                100b7b70 f   libcurl:sendf.obj
 0001:000b6cd0       _Curl_read_plain           100b7cd0 f   libcurl:sendf.obj
 0001:000b6d10       _Curl_read                 100b7d10 f   libcurl:sendf.obj
 0001:000b6e90       _Curl_debug                100b7e90 f   libcurl:sendf.obj
 0001:000b6f90       _Curl_infof                100b7f90 f   libcurl:sendf.obj
 0001:000b7020       _Curl_failf                100b8020 f   libcurl:sendf.obj
 0001:000b70e0       _Curl_sendf                100b80e0 f   libcurl:sendf.obj
 0001:000b71c0       _Curl_recv_plain           100b81c0 f   libcurl:sendf.obj
 0001:000b7260       _Curl_client_chop_write    100b8260 f   libcurl:sendf.obj
 0001:000b73e0       _Curl_client_write         100b83e0 f   libcurl:sendf.obj
 0001:000b74d0       _Curl_send_plain           100b84d0 f   libcurl:sendf.obj
 0001:000b7560       _Curl_write_plain          100b8560 f   libcurl:sendf.obj
 0001:000b75a0       _Curl_initinfo             100b85a0 f   libcurl:getinfo.obj
 0001:000b76b0       _Curl_slist_append_nodup   100b86b0 f   libcurl:slist.obj
 0001:000b76f0       _curl_slist_append         100b86f0 f   libcurl:slist.obj
 0001:000b7730       _curl_slist_free_all       100b8730 f   libcurl:slist.obj
 0001:000b7a70       _Curl_cookie_add           100b8a70 f   libcurl:cookie.obj
 0001:000b86d0       _Curl_cookie_freelist      100b96d0 f   libcurl:cookie.obj
 0001:000b86f0       _Curl_cookie_clearsess     100b96f0 f   libcurl:cookie.obj
 0001:000b8760       _Curl_cookie_cleanup       100b9760 f   libcurl:cookie.obj
 0001:000b8940       _Curl_cookie_init          100b9940 f   libcurl:cookie.obj
 0001:000b8af0       _Curl_cookie_getlist       100b9af0 f   libcurl:cookie.obj
 0001:000b8c90       _Curl_cookie_clearall      100b9c90 f   libcurl:cookie.obj
 0001:000b8cc0       _Curl_cookie_loadfiles     100b9cc0 f   libcurl:cookie.obj
 0001:000b8d40       _Curl_flush_cookies        100b9d40 f   libcurl:cookie.obj
 0001:000b8ec0       _Curl_timeleft             100b9ec0 f   libcurl:connect.obj
 0001:000b9470       _Curl_persistconninfo      100ba470 f   libcurl:connect.obj
 0001:000b9540       _Curl_updateconninfo       100ba540 f   libcurl:connect.obj
 0001:000b96f0       _Curl_tcpnodelay           100ba6f0 f   libcurl:connect.obj
 0001:000b9750       _Curl_sndbufset            100ba750 f   libcurl:connect.obj
 0001:000b97f0       _Curl_connalive            100ba7f0 f   libcurl:connect.obj
 0001:000b9830       _Curl_closesocket          100ba830 f   libcurl:connect.obj
 0001:000b9890       _Curl_socket               100ba890 f   libcurl:connect.obj
 0001:000b9970       _Curl_conncontrol          100ba970 f   libcurl:connect.obj
 0001:000b99c0       _Curl_conn_data_pending    100ba9c0 f   libcurl:connect.obj
 0001:000b9cf0       _Curl_connecthost          100bacf0 f   libcurl:connect.obj
 0001:000b9ef0       _Curl_is_connected         100baef0 f   libcurl:connect.obj
 0001:000ba370       _WspiapiStrdup@4           100bb370 f i libcurl:curl_addrinfo.obj
 0001:000ba3c0       _WspiapiParseV4Address@8   100bb3c0 f i libcurl:curl_addrinfo.obj
 0001:000ba410       _WspiapiNewAddrInfo@16     100bb410 f i libcurl:curl_addrinfo.obj
 0001:000ba480       _WspiapiQueryDNS@24        100bb480 f i libcurl:curl_addrinfo.obj
 0001:000ba570       _WspiapiLookupNode@24      100bb570 f i libcurl:curl_addrinfo.obj
 0001:000ba700       _WspiapiClone@8            100bb700 f i libcurl:curl_addrinfo.obj
 0001:000ba790       _WspiapiLegacyFreeAddrInfo@4 100bb790 f i libcurl:curl_addrinfo.obj
 0001:000ba7e0       _WspiapiLegacyGetAddrInfo@16 100bb7e0 f i libcurl:curl_addrinfo.obj
 0001:000baad0       _WspiapiLegacyGetNameInfo@28 100bbad0 f i libcurl:curl_addrinfo.obj
 0001:000bad90       _WspiapiLoad@4             100bbd90 f i libcurl:curl_addrinfo.obj
 0001:000baf40       _Curl_freeaddrinfo         100bbf40 f   libcurl:curl_addrinfo.obj
 0001:000baf80       _Curl_getaddrinfo_ex       100bbf80 f   libcurl:curl_addrinfo.obj
 0001:000bb160       _Curl_he2ai                100bc160 f   libcurl:curl_addrinfo.obj
 0001:000bb290       _Curl_ip2addr              100bc290 f   libcurl:curl_addrinfo.obj
 0001:000bb340       _Curl_str2addr             100bc340 f   libcurl:curl_addrinfo.obj
 0001:000bb380       _Curl_addrinfo_callback    100bc380 f   libcurl:hostasyn.obj
 0001:000bb420       _Curl_async_resolved       100bc420 f   libcurl:hostasyn.obj
 0001:000bb470       _Curl_getaddrinfo          100bc470 f   libcurl:hostasyn.obj
 0001:000bbc00       _curl_mvsnprintf           100bcc00 f   libcurl:mprintf.obj
 0001:000bbc60       _curl_msnprintf            100bcc60 f   libcurl:mprintf.obj
 0001:000bc6f0       _curl_maprintf             100bd6f0 f   libcurl:mprintf.obj
 0001:000bc780       _curl_mvaprintf            100bd780 f   libcurl:mprintf.obj
 0001:000bc810       _curl_mfprintf             100bd810 f   libcurl:mprintf.obj
 0001:000bc830       _Curl_thread_create        100bd830 f   libcurl:curl_threads.obj
 0001:000bc860       _Curl_thread_destroy       100bd860 f   libcurl:curl_threads.obj
 0001:000bc870       _Curl_thread_join          100bd870 f   libcurl:curl_threads.obj
 0001:000bc8a0       _curl_easy_strerror        100bd8a0 f   libcurl:strerror.obj
 0001:000bcfc0       _Curl_strerror             100bdfc0 f   libcurl:strerror.obj
 0001:000bd180       _Curl_inet_pton            100be180 f   libcurl:inet_pton.obj
 0001:000bd1f0       _Curl_hash_init            100be1f0 f   libcurl:hash.obj
 0001:000bd2c0       _Curl_hash_add             100be2c0 f   libcurl:hash.obj
 0001:000bd360       _Curl_hash_delete          100be360 f   libcurl:hash.obj
 0001:000bd3e0       _Curl_hash_pick            100be3e0 f   libcurl:hash.obj
 0001:000bd450       _Curl_hash_destroy         100be450 f   libcurl:hash.obj
 0001:000bd4a0       _Curl_hash_clean_with_criterium 100be4a0 f   libcurl:hash.obj
 0001:000bd520       _Curl_hash_str             100be520 f   libcurl:hash.obj
 0001:000bd560       _Curl_str_key_compare      100be560 f   libcurl:hash.obj
 0001:000bd610       _Curl_hash_start_iterate   100be610 f   libcurl:hash.obj
 0001:000bd630       _Curl_hash_next_element    100be630 f   libcurl:hash.obj
 0001:000bd6a0       _Curl_hash_clean           100be6a0 f   libcurl:hash.obj
 0001:000bd760       _Curl_inet_ntop            100be760 f   libcurl:inet_ntop.obj
 0001:000bd790       _Curl_share_lock           100be790 f   libcurl:share.obj
 0001:000bd7d0       _Curl_share_unlock         100be7d0 f   libcurl:share.obj
 0001:000bd810       _Curl_ipvalid              100be810 f   libcurl:hostip4.obj
 0001:000bda50       _rtsp_connisdead           100bea50 f   libcurl:rtsp.obj
 0001:000be450       _Curl_rtsp_parseheader     100bf450 f   libcurl:rtsp.obj
 0001:000bf9c0       _Curl_smtp_escape_eob      100c09c0 f   libcurl:smtp.obj
 0001:000c1cf0       _Curl_pop3_write           100c2cf0 f   libcurl:pop3.obj
 0001:000ca790       _Curl_GetFTPResponse       100cb790 f   libcurl:ftp.obj
 0001:000cd4a0       _Curl_http_setup_conn      100ce4a0 f   libcurl:http.obj
 0001:000cd4d0       _Curl_checkheaders         100ce4d0 f   libcurl:http.obj
 0001:000cd530       _Curl_checkProxyheaders    100ce530 f   libcurl:http.obj
 0001:000cd5a0       _Curl_copy_header_value    100ce5a0 f   libcurl:http.obj
 0001:000cdaa0       _Curl_http_output_auth     100ceaa0 f   libcurl:http.obj
 0001:000cdbb0       _Curl_http_input_auth      100cebb0 f   libcurl:http.obj
 0001:000cde70       _Curl_add_buffer_init      100cee70 f   libcurl:http.obj
 0001:000cde80       _Curl_add_buffer_free      100cee80 f   libcurl:http.obj
 0001:000cdeb0       _Curl_add_buffer_send      100ceeb0 f   libcurl:http.obj
 0001:000ce070       _Curl_add_buffer           100cf070 f   libcurl:http.obj
 0001:000ce140       _Curl_compareheader        100cf140 f   libcurl:http.obj
 0001:000ce210       _Curl_http_connect         100cf210 f   libcurl:http.obj
 0001:000ce280       _Curl_http_done            100cf280 f   libcurl:http.obj
 0001:000ce400       _Curl_add_timecondition    100cf400 f   libcurl:http.obj
 0001:000ce750       _Curl_http_auth_act        100cf750 f   libcurl:http.obj
 0001:000ce920       _Curl_add_bufferf          100cf920 f   libcurl:http.obj
 0001:000cea00       _Curl_add_custom_headers   100cfa00 f   libcurl:http.obj
 0001:000cec50       _Curl_http                 100cfc50 f   libcurl:http.obj
 0001:000d0320       _Curl_http_readwrite_headers 100d1320 f   libcurl:http.obj
 0001:000d1310       _Curl_memdup               100d2310 f   libcurl:strdup.obj
 0001:000d1340       _Curl_saferealloc          100d2340 f   libcurl:strdup.obj
 0001:000d1370       _curlx_sltous              100d2370 f   libcurl:warnless.obj
 0001:000d1370       _curlx_ultous              100d2370 f   libcurl:warnless.obj
 0001:000d1380       _curlx_ultouc              100d2380 f   libcurl:warnless.obj
 0001:000d1390       _curlx_uztoui              100d2390 f   libcurl:warnless.obj
 0001:000d1390       _curlx_sotouz              100d2390 f   libcurl:warnless.obj
 0001:000d1390       _curlx_sltoui              100d2390 f   libcurl:warnless.obj
 0001:000d13a0       _curlx_uztosz              100d23a0 f   libcurl:warnless.obj
 0001:000d13a0       _curlx_sltosi              100d23a0 f   libcurl:warnless.obj
 0001:000d13a0       _curlx_uztosi              100d23a0 f   libcurl:warnless.obj
 0001:000d13b0       _curlx_read                100d23b0 f   libcurl:warnless.obj
 0001:000d13d0       _curlx_write               100d23d0 f   libcurl:warnless.obj
 0001:000d13f0       _Curl_ssl_config_matches   100d23f0 f   libcurl:vtls.obj
 0001:000d1480       _Curl_clone_primary_ssl_config 100d2480 f   libcurl:vtls.obj
 0001:000d1590       _Curl_free_primary_ssl_config 100d2590 f   libcurl:vtls.obj
 0001:000d15f0       _Curl_llist_init           100d25f0 f   libcurl:llist.obj
 0001:000d1610       _Curl_llist_insert_next    100d2610 f   libcurl:llist.obj
 0001:000d1690       _Curl_llist_remove         100d2690 f   libcurl:llist.obj
 0001:000d1700       _Curl_llist_destroy        100d2700 f   libcurl:llist.obj
 0001:000d1730       _Curl_llist_count          100d2730 f   libcurl:llist.obj
 0001:000d1730       _Curl_ftp_parselist_geterror 100d2730 f   libcurl:ftplistparser.obj
 0001:000d1740       _Curl_llist_move           100d2740 f   libcurl:llist.obj
 0001:000d1800       _Curl_pipeline_penalized   100d2800 f   libcurl:pipeline.obj
 0001:000d1900       _Curl_pipeline_site_blacklisted 100d2900 f   libcurl:pipeline.obj
 0001:000d1980       _Curl_pipeline_set_site_blacklist 100d2980 f   libcurl:pipeline.obj
 0001:000d1a60       _Curl_pipeline_server_blacklisted 100d2a60 f   libcurl:pipeline.obj
 0001:000d1ae0       _Curl_pipeline_set_server_blacklist 100d2ae0 f   libcurl:pipeline.obj
 0001:000d1ba0       _Curl_recvpipe_head        100d2ba0 f   libcurl:pipeline.obj
 0001:000d1bc0       _Curl_sendpipe_head        100d2bc0 f   libcurl:pipeline.obj
 0001:000d1be0       _Curl_pipeline_checkget_write 100d2be0 f   libcurl:pipeline.obj
 0001:000d1c30       _Curl_pipeline_checkget_read 100d2c30 f   libcurl:pipeline.obj
 0001:000d1c80       _Curl_pipeline_leave_write 100d2c80 f   libcurl:pipeline.obj
 0001:000d1c90       _Curl_pipeline_leave_read  100d2c90 f   libcurl:pipeline.obj
 0001:000d1ca0       _Curl_add_handle_to_pipeline 100d2ca0 f   libcurl:pipeline.obj
 0001:000d1cf0       _Curl_move_handle_from_send_to_recv_pipe 100d2cf0 f   libcurl:pipeline.obj
 0001:000d1d60       _Curl_raw_toupper          100d2d60 f   libcurl:strcase.obj
 0001:000d1d80       _Curl_strcasecompare       100d2d80 f   libcurl:strcase.obj
 0001:000d1de0       _Curl_safe_strcasecompare  100d2de0 f   libcurl:strcase.obj
 0001:000d1e10       _Curl_strncasecompare      100d2e10 f   libcurl:strcase.obj
 0001:000d1e90       _Curl_strntoupper          100d2e90 f   libcurl:strcase.obj
 0001:000d1ed0       _curl_strnequal            100d2ed0 f   libcurl:strcase.obj
 0001:000d1ee0       _Curl_blockread_all        100d2ee0 f   libcurl:socks.obj
 0001:000d1fa0       _Curl_SOCKS4               100d2fa0 f   libcurl:socks.obj
 0001:000d2490       _Curl_SOCKS5               100d3490 f   libcurl:socks.obj
 0001:000d2c80       _Curl_set_dns_local_ip4    100d3c80 f   libcurl:asyn-thread.obj
 0001:000d2c80       _Curl_set_dns_interface    100d3c80 f   libcurl:asyn-thread.obj
 0001:000d2c80       _Curl_set_dns_local_ip6    100d3c80 f   libcurl:asyn-thread.obj
 0001:000d2c80       _Curl_set_dns_servers      100d3c80 f   libcurl:asyn-thread.obj
 0001:000d2c90       _Curl_connect_complete     100d3c90 f   libcurl:http_proxy.obj
 0001:000d2cb0       _Curl_connect_ongoing      100d3cb0 f   libcurl:http_proxy.obj
 0001:000d3830       _Curl_connect_free         100d4830 f   libcurl:http_proxy.obj
 0001:000d3860       _Curl_proxyCONNECT         100d4860 f   libcurl:http_proxy.obj
 0001:000d38c0       _Curl_proxy_connect        100d48c0 f   libcurl:http_proxy.obj
 0001:000d3a50       _curl_getenv               100d4a50 f   libcurl:getenv.obj
 0001:000d3a60       _Curl_urldecode            100d4a60 f   libcurl:escape.obj
 0001:000d3b70       _curl_easy_unescape        100d4b70 f   libcurl:escape.obj
 0001:000d3bf0       _Curl_parsenetrc           100d4bf0 f   libcurl:netrc.obj
 0001:000d41e0       _Curl_pgrsTime             100d51e0 f   libcurl:progress.obj
 0001:000d43d0       _Curl_pgrsStartNow         100d53d0 f   libcurl:progress.obj
 0001:000d4450       _Curl_pgrsLimitWaitTime    100d5450 f   libcurl:progress.obj
 0001:000d4510       _Curl_pgrsSetDownloadCounter 100d5510 f   libcurl:progress.obj
 0001:000d4610       _Curl_pgrsSetUploadCounter 100d5610 f   libcurl:progress.obj
 0001:000d4710       _Curl_pgrsSetDownloadSize  100d5710 f   libcurl:progress.obj
 0001:000d4760       _Curl_pgrsSetUploadSize    100d5760 f   libcurl:progress.obj
 0001:000d47b0       _Curl_pgrsUpdate           100d57b0 f   libcurl:progress.obj
 0001:000d4f60       _Curl_pgrsDone             100d5f60 f   libcurl:progress.obj
 0001:000d4fc0       _Curl_pgrsResetTimesSizes  100d5fc0 f   libcurl:progress.obj
 0001:000d5010       _Curl_speedinit            100d6010 f   libcurl:speedcheck.obj
 0001:000d5030       _Curl_speedcheck           100d6030 f   libcurl:speedcheck.obj
 0001:000d5180       _Curl_wildcard_init        100d6180 f   libcurl:wildcard.obj
 0001:000d51a0       _Curl_wildcard_dtor        100d61a0 f   libcurl:wildcard.obj
 0001:000d5200       _Curl_input_digest         100d6200 f   libcurl:http_digest.obj
 0001:000d5270       _Curl_output_digest        100d6270 f   libcurl:http_digest.obj
 0001:000d53f0       _Curl_digest_cleanup       100d63f0 f   libcurl:http_digest.obj
 0001:000d5510       _Curl_conncache_init       100d6510 f   libcurl:conncache.obj
 0001:000d5540       _Curl_conncache_destroy    100d6540 f   libcurl:conncache.obj
 0001:000d55c0       _Curl_conncache_find_bundle 100d65c0 f   libcurl:conncache.obj
 0001:000d56d0       _Curl_conncache_add_conn   100d66d0 f   libcurl:conncache.obj
 0001:000d57c0       _Curl_conncache_remove_conn 100d67c0 f   libcurl:conncache.obj
 0001:000d5800       _Curl_conncache_foreach    100d6800 f   libcurl:conncache.obj
 0001:000d5880       _Curl_conncache_find_first_connection 100d6880 f   libcurl:conncache.obj
 0001:000d58d0       _Curl_output_ntlm          100d68d0 f   libcurl:http_ntlm.obj
 0001:000d5a80       _Curl_http_ntlm_cleanup    100d6a80 f   libcurl:http_ntlm.obj
 0001:000d5ab0       _Curl_input_ntlm           100d6ab0 f   libcurl:http_ntlm.obj
 0001:000d5ba0       _Curl_dedotdotify          100d6ba0 f   libcurl:dotdot.obj
 0001:000d5dc0       _Curl_fillreadbuffer       100d6dc0 f   libcurl:transfer.obj
 0001:000d5fc0       _Curl_readrewind           100d6fc0 f   libcurl:transfer.obj
 0001:000d60f0       _Curl_meets_timecondition  100d70f0 f   libcurl:transfer.obj
 0001:000d6d10       _Curl_readwrite            100d7d10 f   libcurl:transfer.obj
 0001:000d7110       _Curl_single_getsock       100d8110 f   libcurl:transfer.obj
 0001:000d71b0       _Curl_init_CONNECT         100d81b0 f   libcurl:transfer.obj
 0001:000d71d0       _Curl_pretransfer          100d81d0 f   libcurl:transfer.obj
 0001:000d7720       _Curl_follow               100d8720 f   libcurl:transfer.obj
 0001:000d7990       _Curl_retry_request        100d8990 f   libcurl:transfer.obj
 0001:000d7a80       _Curl_setup_transfer       100d8a80 f   libcurl:transfer.obj
 0001:000d7bd0       _Curl_splay                100d8bd0 f   libcurl:splay.obj
 0001:000d7d10       _Curl_splayinsert          100d8d10 f   libcurl:splay.obj
 0001:000d7e30       _Curl_splaygetbest         100d8e30 f   libcurl:splay.obj
 0001:000d7f10       _Curl_splayremovebyaddr    100d8f10 f   libcurl:splay.obj
 0001:000d8050       _Curl_strtok_r             100d9050 f   libcurl:strtok.obj
 0001:000d80d0       _Curl_memrchr              100d90d0 f   libcurl:curl_memrchr.obj
 0001:000d8840       _curl_getdate              100d9840 f   libcurl:parsedate.obj
 0001:000d8880       _Curl_gmtime               100d9880 f   libcurl:parsedate.obj
 0001:000d88b0       _Curl_resolver_global_init 100d98b0 f   libcurl:asyn-thread.obj
 0001:000d88b0       _Curl_posttransfer         100d98b0 f   libcurl:transfer.obj
 0001:000d88b0       _Curl_resolver_getsock     100d98b0 f   libcurl:asyn-thread.obj
 0001:000d88b0       _Curl_resolver_init        100d98b0 f   libcurl:asyn-thread.obj
 0001:000d88b0       _Curl_if2ip                100d98b0 f   libcurl:if2ip.obj
 0001:000d88b0       _Curl_ipv6_scope           100d98b0 f   libcurl:if2ip.obj
 0001:000d88c0       _Curl_verify_windows_version 100d98c0 f   libcurl:system_win32.obj
 0001:000d8a10       _Curl_load_library         100d9a10 f   libcurl:system_win32.obj
 0001:000d8b60       _curlx_nonblock            100d9b60 f   libcurl:nonblock.obj
 0001:000d8b90       _Curl_pp_state_timeout     100d9b90 f   libcurl:pingpong.obj
 0001:000d8c90       _Curl_pp_init              100d9c90 f   libcurl:pingpong.obj
 0001:000d8ce0       _Curl_pp_vsendf            100d9ce0 f   libcurl:pingpong.obj
 0001:000d8e10       _Curl_pp_sendf             100d9e10 f   libcurl:pingpong.obj
 0001:000d8e30       _Curl_pp_readresp          100d9e30 f   libcurl:pingpong.obj
 0001:000d90e0       _Curl_pp_getsock           100da0e0 f   libcurl:pingpong.obj
 0001:000d9110       _Curl_pp_flushsend         100da110 f   libcurl:pingpong.obj
 0001:000d91a0       _Curl_pp_disconnect        100da1a0 f   libcurl:pingpong.obj
 0001:000d91c0       _Curl_pp_moredata          100da1c0 f   libcurl:pingpong.obj
 0001:000d91e0       _Curl_pp_statemach         100da1e0 f   libcurl:pingpong.obj
 0001:000d9340       _Curl_sasl_cleanup         100da340 f   libcurl:curl_sasl.obj
 0001:000d9360       _Curl_sasl_decode_mech     100da360 f   libcurl:curl_sasl.obj
 0001:000d94b0       _Curl_sasl_parse_url_auth_option 100da4b0 f   libcurl:curl_sasl.obj
 0001:000d9540       _Curl_sasl_init            100da540 f   libcurl:curl_sasl.obj
 0001:000d9580       _Curl_sasl_can_authenticate 100da580 f   libcurl:curl_sasl.obj
 0001:000d95b0       _Curl_sasl_start           100da5b0 f   libcurl:curl_sasl.obj
 0001:000d9970       _Curl_sasl_continue        100da970 f   libcurl:curl_sasl.obj
 0001:000d9e30       _Curl_gethostname          100dae30 f   libcurl:curl_gethostname.obj
 0001:000d9e70       _Curl_read16_le            100dae70 f   libcurl:curl_endian.obj
 0001:000d9e80       _Curl_read32_le            100dae80 f   libcurl:curl_endian.obj
 0001:000d9ea0       _Curl_read16_be            100daea0 f   libcurl:curl_endian.obj
 0001:000d9eb0       _Curl_write32_le           100daeb0 f   libcurl:curl_endian.obj
 0001:000d9ee0       _Curl_write64_le           100daee0 f   libcurl:curl_endian.obj
 0001:000da0c0       _Curl_ntlm_core_lm_resp    100db0c0 f   libcurl:curl_ntlm_core.obj
 0001:000da100       _Curl_ntlm_core_mk_lm_hash 100db100 f   libcurl:curl_ntlm_core.obj
 0001:000da210       _Curl_ntlm_core_mk_nt_hash 100db210 f   libcurl:curl_ntlm_core.obj
 0001:000da2f0       _Curl_hmac_md5             100db2f0 f   libcurl:curl_ntlm_core.obj
 0001:000da340       _Curl_ntlm_core_mk_ntlmv2_hash 100db340 f   libcurl:curl_ntlm_core.obj
 0001:000da3c0       _Curl_ntlm_core_mk_ntlmv2_resp 100db3c0 f   libcurl:curl_ntlm_core.obj
 0001:000da530       _Curl_ntlm_core_mk_lmv2_resp 100db530 f   libcurl:curl_ntlm_core.obj
 0001:000da690       _Curl_md5it                100db690 f   libcurl:md5.obj
 0001:000da6f0       _Curl_MD5_init             100db6f0 f   libcurl:md5.obj
 0001:000da740       _Curl_HMAC_update          100db740 f   libcurl:hmac.obj
 0001:000da740       _Curl_MD5_update           100db740 f   libcurl:md5.obj
 0001:000da760       _Curl_MD5_final            100db760 f   libcurl:md5.obj
 0001:000da850       _Curl_base64_decode        100db850 f   libcurl:base64.obj
 0001:000dab30       _Curl_base64_encode        100dbb30 f   libcurl:base64.obj
 0001:000dab60       _Curl_ftp_parselist_data_alloc 100dbb60 f   libcurl:ftplistparser.obj
 0001:000dab70       _Curl_ftp_parselist_data_free 100dbb70 f   libcurl:ftplistparser.obj
 0001:000dade0       _Curl_ftp_parselist        100dbde0 f   libcurl:ftplistparser.obj
 0001:000dba20       _Curl_auth_digest_get_pair 100dca20 f   libcurl:digest.obj
 0001:000dbe50       _Curl_auth_create_digest_md5_message 100dce50 f   libcurl:digest.obj
 0001:000dc3e0       _Curl_auth_create_digest_http_message 100dd3e0 f   libcurl:digest.obj
 0001:000dc750       _Curl_auth_digest_cleanup  100dd750 f   libcurl:digest.obj
 0001:000dc7c0       _Curl_auth_decode_digest_http_message 100dd7c0 f   libcurl:digest.obj
 0001:000dcc00       _Curl_auth_is_digest_supported 100ddc00 f   libcurl:digest.obj
 0001:000dcc00       _Curl_auth_is_ntlm_supported 100ddc00 f   libcurl:ntlm.obj
 0001:000dcc10       _Curl_auth_decode_ntlm_type2_message 100ddc10 f   libcurl:ntlm.obj
 0001:000dce60       _Curl_auth_ntlm_cleanup    100dde60 f   libcurl:ntlm.obj
 0001:000dce80       _Curl_auth_create_ntlm_type1_message 100dde80 f   libcurl:ntlm.obj
 0001:000dcf30       _Curl_auth_create_ntlm_type3_message 100ddf30 f   libcurl:ntlm.obj
 0001:000dd6c0       _Curl_formclean            100de6c0 f   libcurl:formdata.obj
 0001:000dd860       _Curl_FormInit             100de860 f   libcurl:formdata.obj
 0001:000dd910       _Curl_FormReader           100de910 f   libcurl:formdata.obj
 0001:000dd9d0       _Curl_formpostheader       100de9d0 f   libcurl:formdata.obj
 0001:000dda40       _Curl_getformdata          100dea40 f   libcurl:formdata.obj
 0001:000ddfc0       _Curl_httpchunk_init       100defc0 f   libcurl:http_chunks.obj
 0001:000ddfd0       _Curl_httpchunk_read       100defd0 f   libcurl:http_chunks.obj
 0001:000de430       _Curl_chunked_strerror     100df430 f   libcurl:http_chunks.obj
 0001:000de490       _Curl_fileinfo_alloc       100df490 f   libcurl:fileinfo.obj
 0001:000de4a0       _Curl_fileinfo_dtor        100df4a0 f   libcurl:fileinfo.obj
 0001:000de4d0       _Curl_auth_create_plain_message 100df4d0 f   libcurl:cleartext.obj
 0001:000de5b0       _Curl_auth_create_login_message 100df5b0 f   libcurl:cleartext.obj
 0001:000de620       _Curl_auth_create_external_message 100df620 f   libcurl:cleartext.obj
 0001:000de630       _Curl_auth_create_oauth_bearer_message 100df630 f   libcurl:oauth2.obj
 0001:000de6f0       _Curl_auth_decode_cram_md5_message 100df6f0 f   libcurl:cram.obj
 0001:000de730       _Curl_auth_create_cram_md5_message 100df730 f   libcurl:cram.obj
 0001:000de8a0       _Curl_des_set_odd_parity   100df8a0 f   libcurl:curl_des.obj
 0001:000de8f0       _Curl_HMAC_init            100df8f0 f   libcurl:hmac.obj
 0001:000dea10       _Curl_HMAC_final           100dfa10 f   libcurl:hmac.obj
 0001:000df360       _Curl_fnmatch              100e0360 f   libcurl:curl_fnmatch.obj
 0001:000df390       _Curl_auth_build_spn       100e0390 f   libcurl:vauth.obj
 0001:000df4a0       _Curl_rand                 100e04a0 f   libcurl:rand.obj
 0001:000df510       _Curl_rand_hex             100e0510 f   libcurl:rand.obj
 0001:000df5d4       ___WSAFDIsSet@8            100e05d4 f   ws2_32:WS2_32.dll
 0001:000df5da       ?AfxGetStaticModuleState@@YGPAVAFX_MODULE_STATE@@XZ 100e05da f   nafxcw:dllmodul.obj
 0001:000df5df       _RawDllMain@12             100e05df f   nafxcw:dllmodul.obj
 0001:000df5e5       ?AfxTermDllState@@YAXXZ    100e05e5 f   nafxcw:dllmodul.obj
 0001:000df5f8       _InternalDllMain@12        100e05f8 f   nafxcw:dllmodul.obj
 0001:000df6bf       _DllMain@12                100e06bf f   nafxcw:dllmodul.obj
 0001:000df6ef       ?AfxNewHandler@@YAHI@Z     100e06ef f   nafxcw:afxmem.obj
 0001:000df6f4       ?AfxSetNewHandler@@YGP6AHI@ZP6AHI@Z@Z 100e06f4 f   nafxcw:afxmem.obj
 0001:000df706       ??2@YAPAXI@Z               100e0706 f   nafxcw:afxmem.obj
 0001:000df731       ??_U@YAPAXI@Z              100e0731 f   nafxcw:afxmem.obj
 0001:000df736       ??_V@YAXPAX@Z              100e0736 f   nafxcw:afxmem.obj
 0001:000df736       ??3@YAXPAX@Z               100e0736 f   nafxcw:afxmem.obj
 0001:000df73b       ?AfxLoadString@@YGHIPADI@Z 100e073b f   nafxcw:winstr.obj
 0001:000df792       ?AfxFindStringResourceHandle@@YGPAUHINSTANCE__@@I@Z 100e0792 f   nafxcw:winstr.obj
 0001:000df79d       ?GetBufferSetLength@?$CSimpleStringT@D$0A@@ATL@@QAEPADH@Z 100e079d f i nafxcw:winstr.obj
 0001:000df7be       ?Delete@CException@@QAEXXZ 100e07be f   nafxcw:except.obj
 0001:000df7cc       ?GetErrorMessage@CException@@UAEHPADIPAI@Z 100e07cc f   nafxcw:except.obj
 0001:000df7d1       ?ReportError@CException@@UAEHII@Z 100e07d1 f   nafxcw:except.obj
 0001:000df843       ?GetRuntimeClass@CMemoryException@@UBEPAUCRuntimeClass@@XZ 100e0843 f   nafxcw:except.obj
 0001:000df849       ?GetRuntimeClass@CNotSupportedException@@UBEPAUCRuntimeClass@@XZ 100e0849 f   nafxcw:except.obj
 0001:000df84f       ?GetRuntimeClass@CInvalidArgException@@UBEPAUCRuntimeClass@@XZ 100e084f f   nafxcw:except.obj
 0001:000df855       ?InitString@CSimpleException@@QAEXXZ 100e0855 f   nafxcw:except.obj
 0001:000df87e       ?AfxThrowMemoryException@@YGXXZ 100e087e f   nafxcw:except.obj
 0001:000df898       ?AfxThrowNotSupportedException@@YGXXZ 100e0898 f   nafxcw:except.obj
 0001:000df8b2       ?AfxThrowInvalidArgException@@YGXXZ 100e08b2 f   nafxcw:except.obj
 0001:000df8cc       ?CreateObject@?$CThreadLocal@V_AFX_THREAD_STATE@@@@SGPAVCNoTrackObject@@XZ 100e08cc f i nafxcw:except.obj
 0001:000df8fb       ?tcsncpy_s@Checked@ATL@@YAHPADIPBDI@Z 100e08fb f i nafxcw:except.obj
 0001:000df91a       ??0CException@@QAE@XZ      100e091a f   nafxcw:except.obj
 0001:000df924       ??0CException@@QAE@H@Z     100e0924 f   nafxcw:except.obj
 0001:000df930       ?GetErrorMessage@CSimpleException@@UBEHPADIPAI@Z 100e0930 f   nafxcw:except.obj
 0001:000df982       ??_GCMemoryException@@UAEPAXI@Z 100e0982 f i nafxcw:except.obj
 0001:000df982       ??_ECMemoryException@@UAEPAXI@Z 100e0982 f i nafxcw:except.obj
 0001:000df99f       ??_GCNotSupportedException@@UAEPAXI@Z 100e099f f i nafxcw:except.obj
 0001:000df99f       ??_ECNotSupportedException@@UAEPAXI@Z 100e099f f i nafxcw:except.obj
 0001:000df9bc       ??_GCInvalidArgException@@UAEPAXI@Z 100e09bc f i nafxcw:except.obj
 0001:000df9bc       ??_ECInvalidArgException@@UAEPAXI@Z 100e09bc f i nafxcw:except.obj
 0001:000df9d9       ?AfxGetStringManager@@YGPAUIAtlStringMgr@ATL@@XZ 100e09d9 f   nafxcw:strcore.obj
 0001:000df9df       ?Allocate@CAfxStringMgr@@UAEPAUCStringData@ATL@@HH@Z 100e09df f   nafxcw:strcore.obj
 0001:000dfa1a       ?Free@CAfxStringMgr@@UAEXPAUCStringData@ATL@@@Z 100e0a1a f   nafxcw:strcore.obj
 0001:000dfa27       ?Reallocate@CAfxStringMgr@@UAEPAUCStringData@ATL@@PAU23@HH@Z 100e0a27 f   nafxcw:strcore.obj
 0001:000dfa56       ?Clone@CAfxStringMgr@@UAEPAUIAtlStringMgr@ATL@@XZ 100e0a56 f   nafxcw:strcore.obj
 0001:000dfa59       ?FreeHeap@?$CTempBuffer@_W$0IA@VCCRTAllocator@ATL@@@ATL@@AAEXXZ 100e0a59 f i nafxcw:strcore.obj
 0001:000dfa59       ??1_Timevec@std@@QAE@XZ    100e0a59 f i libcpmt:wlocale.obj
 0001:000dfa62       ?AllocateHeap@?$CTempBuffer@_W$0IA@VCCRTAllocator@ATL@@@ATL@@AAEXI@Z 100e0a62 f i nafxcw:strcore.obj
 0001:000dfa83       ??0CAfxStringMgr@@QAE@XZ   100e0a83 f i nafxcw:strcore.obj
 0001:000dfaa6       ?GetNilString@CAfxStringMgr@@UAEPAUCStringData@ATL@@XZ 100e0aa6 f   nafxcw:strcore.obj
 0001:000dfab4       ??1?$CTempBuffer@_W$0IA@VCCRTAllocator@ATL@@@ATL@@QAE@XZ 100e0ab4 f i nafxcw:strcore.obj
 0001:000dfac1       ?AllocateBytes@?$CTempBuffer@_W$0IA@VCCRTAllocator@ATL@@@ATL@@QAEPA_WI@Z 100e0ac1 f i nafxcw:strcore.obj
 0001:000dfae4       ??$?6DV?$StrTraitMFC@DV?$ChTraitsCRT@D@ATL@@@@@CArchive@@QAEAAV0@ABV?$CStringT@DV?$StrTraitMFC@DV?$ChTraitsCRT@D@ATL@@@@@ATL@@@Z 100e0ae4 f i nafxcw:strcore.obj
 0001:000dfb0d       ?Allocate@?$CTempBuffer@_W$0IA@VCCRTAllocator@ATL@@@ATL@@QAEPA_WI@Z 100e0b0d f i nafxcw:strcore.obj
 0001:000dfb29       ??0?$CStringT@DV?$StrTraitMFC@DV?$ChTraitsCRT@D@ATL@@@@@ATL@@QAE@PB_WH@Z 100e0b29 f i nafxcw:strcore.obj
 0001:000dfb96       ??$?5DV?$StrTraitMFC@DV?$ChTraitsCRT@D@ATL@@@@@CArchive@@QAEAAV0@AAV?$CStringT@DV?$StrTraitMFC@DV?$ChTraitsCRT@D@ATL@@@@@ATL@@@Z 100e0b96 f i nafxcw:strcore.obj
 0001:000dfccd       ?GetRuntimeClass@COleException@@UBEPAUCRuntimeClass@@XZ 100e0ccd f   nafxcw:olemisc.obj
 0001:000dfcd3       ??0COleException@@QAE@XZ   100e0cd3 f i nafxcw:olemisc.obj
 0001:000dfce9       ?AfxThrowOleException@@YGXJ@Z 100e0ce9 f   nafxcw:olemisc.obj
 0001:000dfd2c       ?GetErrorMessage@COleException@@UBEHPADIPAI@Z 100e0d2c f   nafxcw:olemisc.obj
 0001:000dfd86       ?AtlCrtErrorCheck@ATL@@YAHH@Z 100e0d86 f i nafxcw:olemisc.obj
 0001:000dfdbb       ??_ECOleException@@UAEPAXI@Z 100e0dbb f i nafxcw:olemisc.obj
 0001:000dfdbb       ??_GCOleException@@UAEPAXI@Z 100e0dbb f i nafxcw:olemisc.obj
 0001:000dfdd8       ?Read@CArchive@@QAEIPAXI@Z 100e0dd8 f   nafxcw:arccore.obj
 0001:000dff07       ?Flush@CArchive@@QAEXXZ    100e0f07 f   nafxcw:arccore.obj
 0001:000dff7e       ?FillBuffer@CArchive@@QAEXI@Z 100e0f7e f   nafxcw:arccore.obj
 0001:000e006b       ??6CArchive@@QAEAAV0@E@Z   100e106b f i nafxcw:arccore.obj
 0001:000e00a1       ??6CArchive@@QAEAAV0@_K@Z  100e10a1 f i nafxcw:arccore.obj
 0001:000e00e1       ??6CArchive@@QAEAAV0@G@Z   100e10e1 f i nafxcw:arccore.obj
 0001:000e011b       ??6CArchive@@QAEAAV0@K@Z   100e111b f i nafxcw:arccore.obj
 0001:000e0154       ??5CArchive@@QAEAAV0@AAE@Z 100e1154 f i nafxcw:arccore.obj
 0001:000e0193       ??5CArchive@@QAEAAV0@AA_K@Z 100e1193 f i nafxcw:arccore.obj
 0001:000e01db       ??5CArchive@@QAEAAV0@AAG@Z 100e11db f i nafxcw:arccore.obj
 0001:000e021e       ??5CArchive@@QAEAAV0@AAK@Z 100e121e f i nafxcw:arccore.obj
 0001:000e0260       ?AfxReadStringLength@@YGIAAVCArchive@@AAH@Z 100e1260 f   nafxcw:arccore.obj
 0001:000e0309       ?AfxWriteStringLength@@YGXAAVCArchive@@IH@Z 100e1309 f   nafxcw:arccore.obj
 0001:000e038a       ?Write@CArchive@@QAEXPBXI@Z 100e138a f   nafxcw:arccore.obj
 0001:000e044f       ?WriteCount@CArchive@@QAEXK@Z 100e144f f   nafxcw:arccore.obj
 0001:000e047b       ?ReadCount@CArchive@@QAEKXZ 100e147b f   nafxcw:arccore.obj
 0001:000e04aa       ?GetRuntimeClass@CArchiveException@@UBEPAUCRuntimeClass@@XZ 100e14aa f   nafxcw:arcex.obj
 0001:000e04b0       ?GetErrorMessage@CArchiveException@@UBEHPADIPAI@Z 100e14b0 f   nafxcw:arcex.obj
 0001:000e0567       ??0CArchiveException@@QAE@HPBD@Z 100e1567 f i nafxcw:arcex.obj
 0001:000e05ab       ??_ECArchiveException@@UAEPAXI@Z 100e15ab f i nafxcw:arcex.obj
 0001:000e05ab       ??_GCArchiveException@@UAEPAXI@Z 100e15ab f i nafxcw:arcex.obj
 0001:000e05d3       ?AfxThrowArchiveException@@YGXHPBD@Z 100e15d3 f   nafxcw:arcex.obj
 0001:000e0616       ?GetRuntimeClass@CObject@@UBEPAUCRuntimeClass@@XZ 100e1616 f   nafxcw:objcore.obj
 0001:000e061c       ?CreateObject@CRuntimeClass@@QAEPAVCObject@@XZ 100e161c f   nafxcw:objcore.obj
 0001:000e0666       ?IsDerivedFrom@CRuntimeClass@@QBEHPBU1@@Z 100e1666 f   nafxcw:objcore.obj
 0001:000e068d       ?IsKindOf@CObject@@QBEHPBUCRuntimeClass@@@Z 100e168d f   nafxcw:objcore.obj
 0001:000e06a5       ?AfxClassInit@@YGXPAUCRuntimeClass@@@Z 100e16a5 f   nafxcw:objcore.obj
 0001:000e06cb       ?GetRuntimeClass@CStringArray@@UBEPAUCRuntimeClass@@XZ 100e16cb f   nafxcw:array_s.obj
 0001:000e06d1       ??0CStringArray@@QAE@XZ    100e16d1 f   nafxcw:array_s.obj
 0001:000e06e8       ?CreateObject@CStringArray@@SGPAVCObject@@XZ 100e16e8 f   nafxcw:array_s.obj
 0001:000e074e       ?SetSize@CStringArray@@QAEXHH@Z 100e174e f   nafxcw:array_s.obj
 0001:000e0882       ??1CStringArray@@UAE@XZ    100e1882 f   nafxcw:array_s.obj
 0001:000e097d       ??_GCStringArray@@UAEPAXI@Z 100e197d f i nafxcw:array_s.obj
 0001:000e097d       ??_ECStringArray@@UAEPAXI@Z 100e197d f i nafxcw:array_s.obj
 0001:000e0999       ?SetAtGrow@CStringArray@@QAEXHABV?$CStringT@DV?$StrTraitMFC@DV?$ChTraitsCRT@D@ATL@@@@@ATL@@@Z 100e1999 f   nafxcw:array_s.obj
 0001:000e09e9       ?Serialize@CStringArray@@UAEXAAVCArchive@@@Z 100e19e9 f   nafxcw:array_s.obj
 0001:000e0a52       ?Close@CFileFind@@QAEXXZ   100e1a52 f   nafxcw:filefind.obj
 0001:000e0a92       ?CloseContext@CFileFind@@MAEXXZ 100e1a92 f   nafxcw:filefind.obj
 0001:000e0a9c       ?MatchesMask@CFileFind@@UBEHK@Z 100e1a9c f   nafxcw:filefind.obj
 0001:000e0ab6       ?GetLastAccessTime@CFileFind@@UBEHPAU_FILETIME@@@Z 100e1ab6 f   nafxcw:filefind.obj
 0001:000e0ada       ?GetLastWriteTime@CFileFind@@UBEHPAU_FILETIME@@@Z 100e1ada f   nafxcw:filefind.obj
 0001:000e0afe       ?GetCreationTime@CFileFind@@UBEHPAU_FILETIME@@@Z 100e1afe f   nafxcw:filefind.obj
 0001:000e0b22       ?FindNextFileA@CFileFind@@UAEHXZ 100e1b22 f   nafxcw:filefind.obj
 0001:000e0b5c       ?GetRuntimeClass@CFileFind@@UBEPAUCRuntimeClass@@XZ 100e1b5c f   nafxcw:filefind.obj
 0001:000e0b62       ?tcscpy_s@Checked@ATL@@YAXPADIPBD@Z 100e1b62 f i nafxcw:filefind.obj
 0001:000e0b7d       ?IsValidFILETIME@CTime@ATL@@SGHABU_FILETIME@@@Z 100e1b7d f i nafxcw:filefind.obj
 0001:000e0bac       ??0CTime@ATL@@QAE@ABU_FILETIME@@H@Z 100e1bac f i nafxcw:filefind.obj
 0001:000e0c0a       ?GetLastAccessTime@CFileFind@@UBEHAAVCTime@ATL@@@Z 100e1c0a f   nafxcw:filefind.obj
 0001:000e0c5c       ?GetLastWriteTime@CFileFind@@UBEHAAVCTime@ATL@@@Z 100e1c5c f   nafxcw:filefind.obj
 0001:000e0cae       ?GetCreationTime@CFileFind@@UBEHAAVCTime@ATL@@@Z 100e1cae f   nafxcw:filefind.obj
 0001:000e0d00       ?IsDots@CFileFind@@UBEHXZ  100e1d00 f   nafxcw:filefind.obj
 0001:000e0d39       ??0CFileFind@@QAE@XZ       100e1d39 f   nafxcw:filefind.obj
 0001:000e0d5d       ??1CFileFind@@UAE@XZ       100e1d5d f   nafxcw:filefind.obj
 0001:000e0d8e       ?GetRoot@CFileFind@@UBE?AV?$CStringT@DV?$StrTraitMFC@DV?$ChTraitsCRT@D@ATL@@@@@ATL@@XZ 100e1d8e f   nafxcw:filefind.obj
 0001:000e0d8e       ?GetServerName@CInternetConnection@@QBE?AV?$CStringT@DV?$StrTraitMFC@DV?$ChTraitsCRT@D@ATL@@@@@ATL@@XZ 100e1d8e f   nafxcw:inet.obj
 0001:000e0da9       ??_GCFileFind@@UAEPAXI@Z   100e1da9 f i nafxcw:filefind.obj
 0001:000e0da9       ??_ECFileFind@@UAEPAXI@Z   100e1da9 f i nafxcw:filefind.obj
 0001:000e0dc5       ?FindFile@CFileFind@@UAEHPBDK@Z 100e1dc5 f   nafxcw:filefind.obj
 0001:000e0ef0       ?GetFileTitle@CFileFind@@UBE?AV?$CStringT@DV?$StrTraitMFC@DV?$ChTraitsCRT@D@ATL@@@@@ATL@@XZ 100e1ef0 f   nafxcw:filefind.obj
 0001:000e0f64       ?GetFilePath@CFileFind@@UBE?AV?$CStringT@DV?$StrTraitMFC@DV?$ChTraitsCRT@D@ATL@@@@@ATL@@XZ 100e1f64 f   nafxcw:filefind.obj
 0001:000e0ff4       ?GetFileName@CFileFind@@UBE?AV?$CStringT@DV?$StrTraitMFC@DV?$ChTraitsCRT@D@ATL@@@@@ATL@@XZ 100e1ff4 f   nafxcw:filefind.obj
 0001:000e1037       ?GetFileURL@CFileFind@@UBE?AV?$CStringT@DV?$StrTraitMFC@DV?$ChTraitsCRT@D@ATL@@@@@ATL@@XZ 100e2037 f   nafxcw:filefind.obj
 0001:000e108e       ??1?$CThreadLocal@VAFX_MODULE_THREAD_STATE@@@@QAE@XZ 100e208e f i nafxcw:afxstate.obj
 0001:000e1093       ?_AfxInitContextAPI@@YGXXZ 100e2093 f   nafxcw:afxstate.obj
 0001:000e1101       ?AfxCreateActCtxW@@YGPAXPBUtagACTCTXW@@@Z 100e2101 f   nafxcw:afxstate.obj
 0001:000e1112       ?AfxReleaseActCtx@@YGXPAX@Z 100e2112 f   nafxcw:afxstate.obj
 0001:000e1120       ?AfxActivateActCtx@@YGHPAXPAK@Z 100e2120 f   nafxcw:afxstate.obj
 0001:000e1130       ?AfxDeactivateActCtx@@YGHKK@Z 100e2130 f   nafxcw:afxstate.obj
 0001:000e1140       ?AfxActivateActCtxWrapper@@YG?AW4eActCtxResult@@PAXPAK@Z 100e2140 f   nafxcw:afxstate.obj
 0001:000e1170       ?CreateActivationContext@AFX_MODULE_STATE@@QAEXXZ 100e2170 f   nafxcw:afxstate.obj
 0001:000e125d       ?Unlock@CTypeLibCache@@QAEXXZ 100e225d f   nafxcw:afxstate.obj
 0001:000e1292       ??0_AFX_THREAD_STATE@@QAE@XZ 100e2292 f   nafxcw:afxstate.obj
 0001:000e12ab       ??1_AFX_THREAD_STATE@@UAE@XZ 100e22ab f   nafxcw:afxstate.obj
 0001:000e12e0       ??1AFX_MODULE_THREAD_STATE@@UAE@XZ 100e22e0 f   nafxcw:afxstate.obj
 0001:000e138c       ??_E_AFX_THREAD_STATE@@UAEPAXI@Z 100e238c f i nafxcw:afxstate.obj
 0001:000e138c       ??_G_AFX_THREAD_STATE@@UAEPAXI@Z 100e238c f i nafxcw:afxstate.obj
 0001:000e13a7       ??0AFX_MODULE_THREAD_STATE@@QAE@XZ 100e23a7 f   nafxcw:afxstate.obj
 0001:000e13d1       ??_EAFX_MODULE_THREAD_STATE@@UAEPAXI@Z 100e23d1 f i nafxcw:afxstate.obj
 0001:000e13d1       ??_GAFX_MODULE_THREAD_STATE@@UAEPAXI@Z 100e23d1 f i nafxcw:afxstate.obj
 0001:000e13ec       ?CreateObject@?$CThreadLocal@VAFX_MODULE_THREAD_STATE@@@@SGPAVCNoTrackObject@@XZ 100e23ec f i nafxcw:afxstate.obj
 0001:000e1401       ?AfxGetThreadState@@YGPAV_AFX_THREAD_STATE@@XZ 100e2401 f   nafxcw:afxstate.obj
 0001:000e141a       ??1AFX_MODULE_STATE@@UAE@XZ 100e241a f   nafxcw:afxstate.obj
 0001:000e14bd       ?GetData@?$CThreadLocal@VAFX_MODULE_THREAD_STATE@@@@QAEPAVAFX_MODULE_THREAD_STATE@@XZ 100e24bd f i nafxcw:afxstate.obj
 0001:000e14d1       ??0CDllIsolationWrapperBase@@QAE@ABV?$CStringT@DV?$StrTraitMFC@DV?$ChTraitsCRT@D@ATL@@@@@ATL@@@Z 100e24d1 f i nafxcw:afxstate.obj
 0001:000e14f4       ??1CDllIsolationWrapperBase@@UAE@XZ 100e24f4 f i nafxcw:afxstate.obj
 0001:000e1518       ??_GCDllIsolationWrapperBase@@UAEPAXI@Z 100e2518 f i nafxcw:afxstate.obj
 0001:000e1518       ??_GCCommDlgWrapper@@UAEPAXI@Z 100e2518 f i nafxcw:afxstate.obj
 0001:000e1518       ??_GCComCtlWrapper@@UAEPAXI@Z 100e2518 f i nafxcw:afxstate.obj
 0001:000e1518       ??_ECDllIsolationWrapperBase@@UAEPAXI@Z 100e2518 f i nafxcw:afxstate.obj
 0001:000e1518       ??_ECComCtlWrapper@@UAEPAXI@Z 100e2518 f i nafxcw:afxstate.obj
 0001:000e1518       ??_ECCommDlgWrapper@@UAEPAXI@Z 100e2518 f i nafxcw:afxstate.obj
 0001:000e1533       ??0CComCtlWrapper@@QAE@XZ  100e2533 f i nafxcw:afxstate.obj
 0001:000e1757       ??0CCommDlgWrapper@@QAE@XZ 100e2757 f i nafxcw:afxstate.obj
 0001:000e17da       ??0AFX_MODULE_STATE@@QAE@H@Z 100e27da f   nafxcw:afxstate.obj
 0001:000e18e3       ??0_AFX_BASE_MODULE_STATE@@QAE@XZ 100e28e3 f i nafxcw:afxstate.obj
 0001:000e18f7       ??_G_AFX_BASE_MODULE_STATE@@UAEPAXI@Z 100e28f7 f i nafxcw:afxstate.obj
 0001:000e18f7       ??_EAFX_MODULE_STATE@@UAEPAXI@Z 100e28f7 f i nafxcw:afxstate.obj
 0001:000e18f7       ??_GAFX_MODULE_STATE@@UAEPAXI@Z 100e28f7 f i nafxcw:afxstate.obj
 0001:000e18f7       ??_E_AFX_BASE_MODULE_STATE@@UAEPAXI@Z 100e28f7 f i nafxcw:afxstate.obj
 0001:000e1912       ?CreateObject@?$CProcessLocal@V_AFX_BASE_MODULE_STATE@@@@SGPAVCNoTrackObject@@XZ 100e2912 f i nafxcw:afxstate.obj
 0001:000e1941       ?AfxGetModuleState@@YGPAVAFX_MODULE_STATE@@XZ 100e2941 f   nafxcw:afxstate.obj
 0001:000e1974       ?AfxGetModuleThreadState@@YGPAVAFX_MODULE_THREAD_STATE@@XZ 100e2974 f   nafxcw:afxstate.obj
 0001:000e198d       ??0AFX_MAINTAIN_STATE2@@QAE@PAVAFX_MODULE_STATE@@@Z 100e298d f   nafxcw:afxstate.obj
 0001:000e19c0       ?_AfxParseURLWorker@@YGHPBDPAUURL_COMPONENTSA@@AAKAAGK@Z 100e29c0 f   nafxcw:inet.obj
 0001:000e1b9c       ?SetOption@CInternetSession@@QAEHKPAXKK@Z 100e2b9c f   nafxcw:inet.obj
 0001:000e1bb8       ?OnStatusCallback@CInternetSession@@UAEXKKPAXK@Z 100e2bb8 f   nafxcw:inet.obj
 0001:000e1bd7       ?GetLength@CInternetFile@@UBE_KXZ 100e2bd7 f   nafxcw:inet.obj
 0001:000e1c03       ?LockRange@CInternetFile@@UAEX_K0@Z 100e2c03 f   nafxcw:inet.obj
 0001:000e1c03       ?UnlockRange@CInternetFile@@UAEX_K0@Z 100e2c03 f   nafxcw:inet.obj
 0001:000e1c03       ?UnlockRange@CStdioFile@@UAEX_K0@Z 100e2c03 f   nafxcw:filetxt.obj
 0001:000e1c03       ?SetLength@CInternetFile@@UAEX_K@Z 100e2c03 f   nafxcw:inet.obj
 0001:000e1c03       ?LockRange@CStdioFile@@UAEX_K0@Z 100e2c03 f   nafxcw:filetxt.obj
 0001:000e1c09       ?AddRequestHeaders@CHttpFile@@QAEHPBDKH@Z 100e2c09 f   nafxcw:inet.obj
 0001:000e1c3c       ?QueryInfoStatusCode@CHttpFile@@QBEHAAK@Z 100e2c3c f   nafxcw:inet.obj
 0001:000e1c93       ?GetRuntimeClass@CInternetException@@UBEPAUCRuntimeClass@@XZ 100e2c93 f   nafxcw:inet.obj
 0001:000e1c99       ?GetRuntimeClass@CInternetFile@@UBEPAUCRuntimeClass@@XZ 100e2c99 f   nafxcw:inet.obj
 0001:000e1c9f       ?GetRuntimeClass@CHttpFile@@UBEPAUCRuntimeClass@@XZ 100e2c9f f   nafxcw:inet.obj
 0001:000e1ca5       ?GetRuntimeClass@CInternetSession@@UBEPAUCRuntimeClass@@XZ 100e2ca5 f   nafxcw:inet.obj
 0001:000e1cab       ?GetRuntimeClass@CInternetConnection@@UBEPAUCRuntimeClass@@XZ 100e2cab f   nafxcw:inet.obj
 0001:000e1cb1       ?GetRuntimeClass@CHttpConnection@@UBEPAUCRuntimeClass@@XZ 100e2cb1 f   nafxcw:inet.obj
 0001:000e1cb7       ?AfxCtxLoadLibraryA@@YAPAUHINSTANCE__@@PBD@Z 100e2cb7 f i nafxcw:inet.obj
 0001:000e1d45       ?Init@CCriticalSection@@AAEHXZ 100e2d45 f i nafxcw:inet.obj
 0001:000e1d91       ??0CCriticalSection@@QAE@XZ 100e2d91 f i nafxcw:inet.obj
 0001:000e1dcb       ?Unlock@CSyncObject@@UAEHJPAJ@Z 100e2dcb f i nafxcw:inet.obj
 0001:000e1dd1       ??1CCriticalSection@@UAE@XZ 100e2dd1 f i nafxcw:inet.obj
 0001:000e1dec       ?Lock@CCriticalSection@@QAEHXZ 100e2dec f i nafxcw:inet.obj
 0001:000e1e32       ?Lock@CCriticalSection@@UAEHK@Z 100e2e32 f i nafxcw:inet.obj
 0001:000e1e3a       ?Unlock@CCriticalSection@@UAEHXZ 100e2e3a f i nafxcw:inet.obj
 0001:000e1e48       ??0CSessionMapPtrToPtr@@QAE@XZ 100e2e48 f i nafxcw:inet.obj
 0001:000e1e7a       ??1CSessionMapPtrToPtr@@UAE@XZ 100e2e7a f i nafxcw:inet.obj
 0001:000e1eae       ?SetAt@CSessionMapPtrToPtr@@QAEXPAXPAVCInternetSession@@@Z 100e2eae f i nafxcw:inet.obj
 0001:000e1ed9       ?RemoveKey@CSessionMapPtrToPtr@@QAEXPAX@Z 100e2ed9 f i nafxcw:inet.obj
 0001:000e1efe       ?Lookup@CSessionMapPtrToPtr@@QAEHPAXAAPAVCInternetSession@@@Z 100e2efe f i nafxcw:inet.obj
 0001:000e1f2b       ??_GCSessionMapPtrToPtr@@UAEPAXI@Z 100e2f2b f i nafxcw:inet.obj
 0001:000e1f2b       ??_ECSessionMapPtrToPtr@@UAEPAXI@Z 100e2f2b f i nafxcw:inet.obj
 0001:000e1f47       ?AfxInternetStatusCallback@@YGXPAXKK0K@Z 100e2f47 f   nafxcw:inet.obj
 0001:000e1f77       ?SetReadBufferSize@CInternetFile@@QAEHI@Z 100e2f77 f   nafxcw:inet.obj
 0001:000e2020       ?Close@CInternetFile@@UAEXXZ 100e3020 f   nafxcw:inet.obj
 0001:000e206e       ?Close@CInternetConnection@@UAEXXZ 100e306e f   nafxcw:inet.obj
 0001:000e2092       ?GetErrorMessage@CInternetException@@UBEHPADIPAI@Z 100e3092 f   nafxcw:inet.obj
 0001:000e21aa       ??0CInternetException@@QAE@K@Z 100e31aa f   nafxcw:inet.obj
 0001:000e21c5       ??_GCCriticalSection@@UAEPAXI@Z 100e31c5 f i nafxcw:inet.obj
 0001:000e21c5       ??_ECCriticalSection@@UAEPAXI@Z 100e31c5 f i nafxcw:inet.obj
 0001:000e21e1       ?Abort@CInternetFile@@UAEXXZ 100e31e1 f   nafxcw:inet.obj
 0001:000e21f8       ?AddRequestHeaders@CHttpFile@@QAEHAAV?$CStringT@DV?$StrTraitMFC@DV?$ChTraitsCRT@D@ATL@@@@@ATL@@K@Z 100e31f8 f   nafxcw:inet.obj
 0001:000e220e       ?AfxThrowInternetException@@YGXKK@Z 100e320e f   nafxcw:inet.obj
 0001:000e2266       ??_GCInternetException@@UAEPAXI@Z 100e3266 f i nafxcw:inet.obj
 0001:000e2266       ??_ECInternetException@@UAEPAXI@Z 100e3266 f i nafxcw:inet.obj
 0001:000e2283       ??0CInternetSession@@QAE@PBDKK00K@Z 100e3283 f   nafxcw:inet.obj
 0001:000e22e2       ?EnableStatusCallback@CInternetSession@@QAEHH@Z 100e32e2 f   nafxcw:inet.obj
 0001:000e233c       ?Seek@CInternetFile@@UAE_K_JI@Z 100e333c f   nafxcw:inet.obj
 0001:000e23b2       ??1CInternetFile@@UAE@XZ   100e33b2 f   nafxcw:inet.obj
 0001:000e2413       ?Flush@CInternetFile@@UAEXXZ 100e3413 f   nafxcw:inet.obj
 0001:000e2454       ?Read@CInternetFile@@UAEIPAXI@Z 100e3454 f   nafxcw:inet.obj
 0001:000e258b       ?Write@CInternetFile@@UAEXPBXI@Z 100e358b f   nafxcw:inet.obj
 0001:000e2641       ?WriteString@CInternetFile@@UAEXPBD@Z 100e3641 f   nafxcw:inet.obj
 0001:000e2670       ?ReadString@CInternetFile@@UAEPADPADI@Z 100e3670 f   nafxcw:inet.obj
 0001:000e274d       ??1CInternetConnection@@UAE@XZ 100e374d f   nafxcw:inet.obj
 0001:000e2784       ??1CHttpConnection@@UAE@XZ 100e3784 f   nafxcw:inet.obj
 0001:000e27a0       ??_ECHttpConnection@@UAEPAXI@Z 100e37a0 f i nafxcw:inet.obj
 0001:000e27a0       ??_GCHttpConnection@@UAEPAXI@Z 100e37a0 f i nafxcw:inet.obj
 0001:000e27bc       ??1CHttpFile@@UAE@XZ       100e37bc f   nafxcw:inet.obj
 0001:000e27e3       ?SendRequest@CHttpFile@@QAEHPBDKPAXK@Z 100e37e3 f   nafxcw:inet.obj
 0001:000e2810       ?EndRequest@CHttpFile@@QAEHKPAU_INTERNET_BUFFERSA@@K@Z 100e3810 f   nafxcw:inet.obj
 0001:000e2842       ?SendRequestEx@CHttpFile@@QAEHPAU_INTERNET_BUFFERSA@@0KK@Z 100e3842 f   nafxcw:inet.obj
 0001:000e287c       ?AfxParseURL@@YGHPBDAAKAAV?$CStringT@DV?$StrTraitMFC@DV?$ChTraitsCRT@D@ATL@@@@@ATL@@2AAG@Z 100e387c f   nafxcw:inet.obj
 0001:000e290a       ?Close@CInternetSession@@UAEXXZ 100e390a f   nafxcw:inet.obj
 0001:000e293b       ??_GCInternetFile@@UAEPAXI@Z 100e393b f i nafxcw:inet.obj
 0001:000e293b       ??_ECInternetFile@@UAEPAXI@Z 100e393b f i nafxcw:inet.obj
 0001:000e2957       ??_GCInternetConnection@@UAEPAXI@Z 100e3957 f i nafxcw:inet.obj
 0001:000e2957       ??_ECInternetConnection@@UAEPAXI@Z 100e3957 f i nafxcw:inet.obj
 0001:000e2973       ??_ECHttpFile@@UAEPAXI@Z   100e3973 f i nafxcw:inet.obj
 0001:000e2973       ??_GCHttpFile@@UAEPAXI@Z   100e3973 f i nafxcw:inet.obj
 0001:000e298f       ?SendRequestEx@CHttpFile@@QAEHKKK@Z 100e398f f   nafxcw:inet.obj
 0001:000e29d6       ??1CInternetSession@@UAE@XZ 100e39d6 f   nafxcw:inet.obj
 0001:000e29e1       ??_ECInternetSession@@UAEPAXI@Z 100e39e1 f i nafxcw:inet.obj
 0001:000e29e1       ??_GCInternetSession@@UAEPAXI@Z 100e39e1 f i nafxcw:inet.obj
 0001:000e2a03       ??0CInternetFile@@IAE@PAXPBDPAVCInternetConnection@@H@Z 100e3a03 f   nafxcw:inet.obj
 0001:000e2aa2       ?ReadString@CInternetFile@@UAEHAAV?$CStringT@DV?$StrTraitMFC@DV?$ChTraitsCRT@D@ATL@@@@@ATL@@@Z 100e3aa2 f   nafxcw:inet.obj
 0001:000e2b54       ?SetFilePath@CFile@@UAEXPBD@Z 100e3b54 f i nafxcw:inet.obj
 0001:000e2b69       ??0CInternetConnection@@QAE@PAVCInternetSession@@PBDGK@Z 100e3b69 f   nafxcw:inet.obj
 0001:000e2ba7       ??0CHttpConnection@@QAE@PAVCInternetSession@@PBDG11K@Z 100e3ba7 f   nafxcw:inet.obj
 0001:000e2c25       ??0CHttpFile@@IAE@PAXPBD1PAVCHttpConnection@@@Z 100e3c25 f   nafxcw:inet.obj
 0001:000e2c74       ?GetFileURL@CHttpFile@@UBE?AV?$CStringT@DV?$StrTraitMFC@DV?$ChTraitsCRT@D@ATL@@@@@ATL@@XZ 100e3c74 f   nafxcw:inet.obj
 0001:000e2cf6       ?GetHttpConnection@CInternetSession@@QAEPAVCHttpConnection@@PBDG00@Z 100e3cf6 f   nafxcw:inet.obj
 0001:000e2d37       ?OpenRequest@CHttpConnection@@QAEPAVCHttpFile@@PBD00KPAPBD0K@Z 100e3d37 f   nafxcw:inet.obj
 0001:000e2dad       ?OpenRequest@CHttpConnection@@QAEPAVCHttpFile@@HPBD0KPAPBD0K@Z 100e3dad f   nafxcw:inet.obj
 0001:000e2de2       ?GetStatus@CFile@@QBEHAAUCFileStatus@@@Z 100e3de2 f   nafxcw:filest.obj
 0001:000e2f3b       ?GetFileName@CFile@@UBE?AV?$CStringT@DV?$StrTraitMFC@DV?$ChTraitsCRT@D@ATL@@@@@ATL@@XZ 100e3f3b f   nafxcw:filest.obj
 0001:000e2fe4       ?GetFileTitle@CFile@@UBE?AV?$CStringT@DV?$StrTraitMFC@DV?$ChTraitsCRT@D@ATL@@@@@ATL@@XZ 100e3fe4 f   nafxcw:filest.obj
 0001:000e308d       ?GetFilePath@CFile@@UBE?AV?$CStringT@DV?$StrTraitMFC@DV?$ChTraitsCRT@D@ATL@@@@@ATL@@XZ 100e408d f   nafxcw:filest.obj
 0001:000e30f4       ?AfxGetThread@@YGPAVCWinThread@@XZ 100e40f4 f   nafxcw:thrdcore.obj
 0001:000e30fd       ?AfxGetCurrentMessage@@YGPAUtagMSG@@XZ 100e40fd f   nafxcw:thrdcore.obj
 0001:000e3106       ?AfxInternalProcessWndProcException@@YGJPAVCException@@PBUtagMSG@@@Z 100e4106 f   nafxcw:thrdcore.obj
 0001:000e312b       ?AfxProcessWndProcException@@YGJPAVCException@@PBUtagMSG@@@Z 100e412b f   nafxcw:thrdcore.obj
 0001:000e3141       ?AfxTermThread@@YGXPAUHINSTANCE__@@@Z 100e4141 f   nafxcw:thrdcore.obj
 0001:000e31e0       ?CommonConstruct@CWinThread@@QAEXXZ 100e41e0 f   nafxcw:thrdcore.obj
 0001:000e3217       ??1CWinThread@@UAE@XZ      100e4217 f   nafxcw:thrdcore.obj
 0001:000e325f       ?Delete@CWinThread@@UAEXXZ 100e425f f   nafxcw:thrdcore.obj
 0001:000e326d       ?Run@CWinThread@@UAEHXZ    100e426d f   nafxcw:thrdcore.obj
 0001:000e32fa       ?ExitInstance@CWinThread@@UAEHXZ 100e42fa f   nafxcw:thrdcore.obj
 0001:000e3303       ?DispatchThreadMessageEx@CWinThread@@IAEHPAUtagMSG@@@Z 100e4303 f   nafxcw:thrdcore.obj
 0001:000e337b       ?ProcessWndProcException@CWinThread@@UAEJPAVCException@@PBUtagMSG@@@Z 100e437b f   nafxcw:thrdcore.obj
 0001:000e3380       ?IsEnterKey@@YAHPAUtagMSG@@@Z 100e4380 f i nafxcw:thrdcore.obj
 0001:000e339a       ?GetRuntimeClass@CWinThread@@UBEPAUCRuntimeClass@@XZ 100e439a f   nafxcw:thrdcore.obj
 0001:000e33a0       ??8CPoint@@QBEHUtagPOINT@@@Z 100e43a0 f i nafxcw:thrdcore.obj
 0001:000e33bb       ?AfxGetMainWnd@@YGPAVCWnd@@XZ 100e43bb f i nafxcw:thrdcore.obj
 0001:000e33cf       ?AfxInternalPreTranslateMessage@@YAHPAUtagMSG@@@Z 100e43cf f   nafxcw:thrdcore.obj
 0001:000e343b       ?AfxPreTranslateMessage@@YAHPAUtagMSG@@@Z 100e443b f   nafxcw:thrdcore.obj
 0001:000e3456       ?AfxInternalIsIdleMessage@@YAHPAUtagMSG@@@Z 100e4456 f   nafxcw:thrdcore.obj
 0001:000e34c2       ?AfxEndThread@@YGXIH@Z     100e44c2 f   nafxcw:thrdcore.obj
 0001:000e3507       ??0CWinThread@@QAE@P6AIPAX@Z0@Z 100e4507 f   nafxcw:thrdcore.obj
 0001:000e3544       ??_GCWinThread@@UAEPAXI@Z  100e4544 f i nafxcw:thrdcore.obj
 0001:000e3544       ??_ECWinThread@@UAEPAXI@Z  100e4544 f i nafxcw:thrdcore.obj
 0001:000e3560       ??0CWinThread@@QAE@XZ      100e4560 f   nafxcw:thrdcore.obj
 0001:000e3596       ?IsIdleMessage@CWinThread@@UAEHPAUtagMSG@@@Z 100e4596 f   nafxcw:thrdcore.obj
 0001:000e35a3       ?PreTranslateMessage@CWinThread@@UAEHPAUtagMSG@@@Z 100e45a3 f   nafxcw:thrdcore.obj
 0001:000e35b0       ?GetMainWnd@CWinThread@@UAEPAVCWnd@@XZ 100e45b0 f   nafxcw:thrdcore.obj
 0001:000e35cb       ?AfxInternalPumpMessage@@YGHXZ 100e45cb f   nafxcw:thrdcore.obj
 0001:000e360f       ?_AfxMsgFilterHook@@YGJHIJ@Z 100e460f f   nafxcw:thrdcore.obj
 0001:000e3671       ?ProcessMessageFilter@CWinThread@@UAEHHPAUtagMSG@@@Z 100e4671 f   nafxcw:thrdcore.obj
 0001:000e379e       ?PumpMessage@CWinThread@@UAEHXZ 100e479e f   nafxcw:thrdcore.obj
 0001:000e37a3       ?AfxInitThread@@YGXXZ      100e47a3 f   nafxcw:thrdcore.obj
 0001:000e37d1       ?OnIdle@CWinThread@@UAEHJ@Z 100e47d1 f   nafxcw:thrdcore.obj
 0001:000e38cc       ?_AfxThreadEntry@@YGIPAX@Z 100e48cc f   nafxcw:thrdcore.obj
 0001:000e39e8       ?CreateThread@CWinThread@@QAEHKIPAU_SECURITY_ATTRIBUTES@@@Z 100e49e8 f   nafxcw:thrdcore.obj
 0001:000e3ad5       ?AfxBeginThread@@YGPAVCWinThread@@P6AIPAX@Z0HIKPAU_SECURITY_ATTRIBUTES@@@Z 100e4ad5 f   nafxcw:thrdcore.obj
 0001:000e3b50       ?AfxBeginThread@@YGPAVCWinThread@@PAUCRuntimeClass@@HIKPAU_SECURITY_ATTRIBUTES@@@Z 100e4b50 f   nafxcw:thrdcore.obj
 0001:000e3bba       ?StringLengthWorkerA@@YGJPBDIPAI@Z 100e4bba f i nafxcw:filecore.obj
 0001:000e3bf5       ?GetBufferPtr@CFile@@UAEIIIPAPAX0@Z 100e4bf5 f   nafxcw:filecore.obj
 0001:000e3bfa       ?GetRuntimeClass@CFile@@UBEPAUCRuntimeClass@@XZ 100e4bfa f   nafxcw:filecore.obj
 0001:000e3c00       ?StringCchLengthA@@YGJPBDIPAI@Z 100e4c00 f i nafxcw:filecore.obj
 0001:000e3c39       ?Read@CFile@@UAEIPAXI@Z    100e4c39 f   nafxcw:filecore.obj
 0001:000e3c79       ?Write@CFile@@UAEXPBXI@Z   100e4c79 f   nafxcw:filecore.obj
 0001:000e3cc4       ?Seek@CFile@@UAE_K_JI@Z    100e4cc4 f   nafxcw:filecore.obj
 0001:000e3d15       ?GetPosition@CFile@@UBE_KXZ 100e4d15 f   nafxcw:filecore.obj
 0001:000e3d5f       ?Flush@CFile@@UAEXXZ       100e4d5f f   nafxcw:filecore.obj
 0001:000e3d86       ?LockRange@CFile@@UAEX_K0@Z 100e4d86 f   nafxcw:filecore.obj
 0001:000e3db9       ?UnlockRange@CFile@@UAEX_K0@Z 100e4db9 f   nafxcw:filecore.obj
 0001:000e3dec       ?SetLength@CFile@@UAEX_K@Z 100e4dec f   nafxcw:filecore.obj
 0001:000e3e1e       ?GetLength@CFile@@UBE_KXZ  100e4e1e f   nafxcw:filecore.obj
 0001:000e3e5d       ?AfxGetFileTitle@@YGIPBDPADI@Z 100e4e5d f   nafxcw:filecore.obj
 0001:000e3ec9       ?Close@CFile@@UAEXXZ       100e4ec9 f   nafxcw:filecore.obj
 0001:000e3f0c       ?Abort@CFile@@UAEXXZ       100e4f0c f   nafxcw:filecore.obj
 0001:000e3f2b       ??0CFile@@QAE@XZ           100e4f2b f   nafxcw:filecore.obj
 0001:000e3f48       ?Duplicate@CFile@@UBEPAV1@XZ 100e4f48 f   nafxcw:filecore.obj
 0001:000e3fbc       ?AfxGetRoot@@YGXPBDAAV?$CStringT@DV?$StrTraitMFC@DV?$ChTraitsCRT@D@ATL@@@@@ATL@@@Z 100e4fbc f   nafxcw:filecore.obj
 0001:000e3fff       ??_ECFileException@@UAEPAXI@Z 100e4fff f i nafxcw:filecore.obj
 0001:000e3fff       ??_GCFileException@@UAEPAXI@Z 100e4fff f i nafxcw:filecore.obj
 0001:000e4027       ??1CFile@@UAE@XZ           100e5027 f   nafxcw:filecore.obj
 0001:000e413f       ??_GCFile@@UAEPAXI@Z       100e513f f i nafxcw:filecore.obj
 0001:000e413f       ??_ECFile@@UAEPAXI@Z       100e513f f i nafxcw:filecore.obj
 0001:000e415b       ?_AfxFillExceptionInfo@@YGXPAVCFileException@@PBD@Z 100e515b f   nafxcw:filecore.obj
 0001:000e4186       ?_AfxFullPath2@@YGHPADPBDPAVCFileException@@@Z 100e5186 f   nafxcw:filecore.obj
 0001:000e4338       ??0CFileException@@QAE@HJPBD@Z 100e5338 f i nafxcw:filecore.obj
 0001:000e4382       ?Open@CFile@@UAEHPBDIPAVCFileException@@@Z 100e5382 f   nafxcw:filecore.obj
 0001:000e4541       ??0CStdioFile@@QAE@XZ      100e5541 f   nafxcw:filetxt.obj
 0001:000e4557       ?Open@CStdioFile@@UAEHPBDIPAVCFileException@@@Z 100e5557 f   nafxcw:filetxt.obj
 0001:000e463c       ?Abort@CStdioFile@@UAEXXZ  100e563c f   nafxcw:filetxt.obj
 0001:000e4665       ?Duplicate@CInternetFile@@UBEPAVCFile@@XZ 100e5665 f   nafxcw:inet.obj
 0001:000e4665       ?Duplicate@CStdioFile@@UBEPAVCFile@@XZ 100e5665 f   nafxcw:filetxt.obj
 0001:000e466a       ?GetRuntimeClass@CStdioFile@@UBEPAUCRuntimeClass@@XZ 100e566a f   nafxcw:filetxt.obj
 0001:000e4670       ?Read@CStdioFile@@UAEIPAXI@Z 100e5670 f   nafxcw:filetxt.obj
 0001:000e46eb       ?Write@CStdioFile@@UAEXPBXI@Z 100e56eb f   nafxcw:filetxt.obj
 0001:000e472b       ?WriteString@CStdioFile@@UAEXPBD@Z 100e572b f   nafxcw:filetxt.obj
 0001:000e4763       ?ReadString@CStdioFile@@UAEPADPADI@Z 100e5763 f   nafxcw:filetxt.obj
 0001:000e47c2       ?Seek@CStdioFile@@UAE_K_JI@Z 100e57c2 f   nafxcw:filetxt.obj
 0001:000e481f       ?GetLength@CStdioFile@@UBE_KXZ 100e581f f   nafxcw:filetxt.obj
 0001:000e48b2       ?GetPosition@CStdioFile@@UBE_KXZ 100e58b2 f   nafxcw:filetxt.obj
 0001:000e48d8       ?Flush@CStdioFile@@UAEXXZ  100e58d8 f   nafxcw:filetxt.obj
 0001:000e4901       ?Close@CStdioFile@@UAEXXZ  100e5901 f   nafxcw:filetxt.obj
 0001:000e493d       ??1CStdioFile@@UAE@XZ      100e593d f   nafxcw:filetxt.obj
 0001:000e4a54       ??_GCStdioFile@@UAEPAXI@Z  100e5a54 f i nafxcw:filetxt.obj
 0001:000e4a54       ??_ECStdioFile@@UAEPAXI@Z  100e5a54 f i nafxcw:filetxt.obj
 0001:000e4a70       ?ReadString@CStdioFile@@UAEHAAV?$CStringT@DV?$StrTraitMFC@DV?$ChTraitsCRT@D@ATL@@@@@ATL@@@Z 100e5a70 f   nafxcw:filetxt.obj
 0001:000e4b43       _IsEqualGUID               100e5b43 f i nafxcw:cmdtarg.obj
 0001:000e4b5b       ?_AfxDispatchCmdMsg@@YGHPAVCCmdTarget@@IHP81@AEXXZPAXIPAUAFX_CMDHANDLERINFO@@@Z 100e5b5b f   nafxcw:cmdtarg.obj
 0001:000e4c93       ?OnCmdMsg@CCmdTarget@@UAEHIHPAXPAUAFX_CMDHANDLERINFO@@@Z 100e5c93 f   nafxcw:cmdtarg.obj
 0001:000e4dad       ?IsInvokeAllowed@CCmdTarget@@UAEHJ@Z 100e5dad f   nafxcw:cmdtarg.obj
 0001:000e4db3       ?GetTypeLib@CCmdTarget@@UAEJKPAPAUITypeLib@@@Z 100e5db3 f   nafxcw:cmdtarg.obj
 0001:000e4dbb       ?GetDispatchMap@CCmdTarget@@MBEPBUAFX_DISPMAP@@XZ 100e5dbb f   nafxcw:cmdtarg.obj
 0001:000e4dc1       ?GetEventSinkMap@CCmdTarget@@MBEPBUAFX_EVENTSINKMAP@@XZ 100e5dc1 f   nafxcw:cmdtarg.obj
 0001:000e4dc7       ?GetInterfaceMap@CCmdTarget@@MBEPBUAFX_INTERFACEMAP@@XZ 100e5dc7 f   nafxcw:cmdtarg.obj
 0001:000e4dcd       ?OnFinalRelease@CCmdTarget@@UAEXXZ 100e5dcd f   nafxcw:cmdtarg.obj
 0001:000e4dfb       ?Register@CWinApp@@UAEHXZ  100e5dfb f   nafxcw:appui2.obj
 0001:000e4dfb       ?OnCreateAggregates@CCmdTarget@@UAEHXZ 100e5dfb f   nafxcw:cmdtarg.obj
 0001:000e4dfb       ?CheckAutoCenter@CWnd@@UAEHXZ 100e5dfb f   nafxcw:wincore.obj
 0001:000e4dff       ?GetConnectionMap@CCmdTarget@@MBEPBUAFX_CONNECTIONMAP@@XZ 100e5dff f   nafxcw:cmdtarg.obj
 0001:000e4e05       ?GetCommandMap@CCmdTarget@@MBEPBUAFX_OLECMDMAP@@XZ 100e5e05 f   nafxcw:cmdtarg.obj
 0001:000e4e0b       ??0CCmdUI@@QAE@XZ          100e5e0b f   nafxcw:cmdtarg.obj
 0001:000e4e31       ?ModifyMenuA@CMenu@@QAEHIIIPBD@Z 100e5e31 f i nafxcw:cmdtarg.obj
 0001:000e4e4d       ??0CCmdTarget@@QAE@XZ      100e5e4d f   nafxcw:cmdtarg.obj
 0001:000e4e73       ??1CCmdTarget@@UAE@XZ      100e5e73 f   nafxcw:cmdtarg.obj
 0001:000e4e88       ?BeginWaitCursor@CCmdTarget@@QAEXXZ 100e5e88 f   nafxcw:cmdtarg.obj
 0001:000e4e9d       ?EndWaitCursor@CCmdTarget@@QAEXXZ 100e5e9d f   nafxcw:cmdtarg.obj
 0001:000e4eb2       ?GetThisMessageMap@CCmdTarget@@KGPBUAFX_MSGMAP@@XZ 100e5eb2 f   nafxcw:cmdtarg.obj
 0001:000e4eb2       ?GetMessageMap@CCmdTarget@@MBEPBUAFX_MSGMAP@@XZ 100e5eb2 f   nafxcw:cmdtarg.obj
 0001:000e4eb8       ?Enable@CCmdUI@@UAEXH@Z    100e5eb8 f   nafxcw:cmdtarg.obj
 0001:000e4f47       ?SetCheck@CCmdUI@@UAEXH@Z  100e5f47 f   nafxcw:cmdtarg.obj
 0001:000e4fbc       ?SetText@CCmdUI@@UAEXPBD@Z 100e5fbc f   nafxcw:cmdtarg.obj
 0001:000e5023       ?_AfxLoadDotBitmap@@YGXXZ  100e6023 f   nafxcw:cmdtarg.obj
 0001:000e5121       ?SetRadio@CCmdUI@@UAEXH@Z  100e6121 f   nafxcw:cmdtarg.obj
 0001:000e5184       ?DoWaitCursor@CWinApp@@UAEXH@Z 100e6184 f   nafxcw:appui.obj
 0001:000e51fe       ?SaveAllModified@CWinApp@@UAEHXZ 100e61fe f   nafxcw:appui.obj
 0001:000e5210       ?AddToRecentFileList@CWinApp@@UAEXPBD@Z 100e6210 f   nafxcw:appui.obj
 0001:000e5233       ?OpenDocumentFile@CWinApp@@UAEPAVCDocument@@PBD@Z 100e6233 f   nafxcw:appui.obj
 0001:000e5246       ?OnUpdateRecentFileMenu@CWinApp@@IAEXPAVCCmdUI@@@Z 100e6246 f   nafxcw:appui.obj
 0001:000e5274       ?OnDDECommand@CWinApp@@UAEHPAD@Z 100e6274 f   nafxcw:appui.obj
 0001:000e5287       ??ACRecentFileList@@QAEAAV?$CStringT@DV?$StrTraitMFC@DV?$ChTraitsCRT@D@ATL@@@@@ATL@@H@Z 100e6287 f i nafxcw:appui.obj
 0001:000e52a2       ?OnAppExit@CWinApp@@IAEXXZ 100e62a2 f   nafxcw:appui.obj
 0001:000e52b5       ?OnOpenRecentFile@CWinApp@@IAEHI@Z 100e62b5 f   nafxcw:appui.obj
 0001:000e5313       ?GetRoutingFrame_@CCmdTarget@@KGPAVCFrameWnd@@XZ 100e6313 f   nafxcw:appui1.obj
 0001:000e531f       ?AfxCtxMessageBoxA@@YAHPAUHWND__@@PBD1I@Z 100e631f f i nafxcw:appui1.obj
 0001:000e53b6       ?DoEnableModeless@CWinApp@@SAXH@Z 100e63b6 f   nafxcw:appui1.obj
 0001:000e53ea       ?GetSafeOwner_@CWnd@@SGPAUHWND__@@PAU2@PAPAU2@@Z 100e63ea f   nafxcw:appui1.obj
 0001:000e5488       ?ShowAppMessageBox@CWinApp@@SAHPAV1@PBDII@Z 100e6488 f   nafxcw:appui1.obj
 0001:000e55e3       ?AfxMessageBox@@YGHPBDII@Z 100e65e3 f   nafxcw:appui1.obj
 0001:000e5614       ?DoMessageBox@CWinApp@@UAEHPBDII@Z 100e6614 f   nafxcw:appui1.obj
 0001:000e562c       ?AfxMessageBox@@YGHIII@Z   100e662c f   nafxcw:appui1.obj
 0001:000e5681       ?GetThisMessageMap@CWinApp@@KGPBUAFX_MSGMAP@@XZ 100e6681 f   nafxcw:appcore.obj
 0001:000e5681       ?GetMessageMap@CWinApp@@MBEPBUAFX_MSGMAP@@XZ 100e6681 f   nafxcw:appcore.obj
 0001:000e569d       ??0CActivationContext@@QAE@PAX@Z 100e669d f i nafxcw:appcore.obj
 0001:000e574d       ?Create@CActivationContext@@QAE_NPBUtagACTCTXA@@@Z 100e674d f i nafxcw:appcore.obj
 0001:000e5783       ?Activate@CActivationContext@@QAE_NXZ 100e6783 f i nafxcw:appcore.obj
 0001:000e57b0       ?Deactivate@CActivationContext@@QAE_NXZ 100e67b0 f i nafxcw:appcore.obj
 0001:000e57d6       ?_LoadSysPolicies@CWinApp@@IAEHXZ 100e67d6 f   nafxcw:appcore.obj
 0001:000e5899       ?InitApplication@CWinApp@@UAEHXZ 100e6899 f   nafxcw:appcore.obj
 0001:000e58d9       ?SaveStdProfileSettings@CWinApp@@IAEXXZ 100e68d9 f   nafxcw:appcore.obj
 0001:000e590e       ?ExitInstance@CWinApp@@UAEHXZ 100e690e f   nafxcw:appcore.obj
 0001:000e596f       ?AfxPostQuitMessage@@YGXH@Z 100e696f f   nafxcw:appcore.obj
 0001:000e598b       ?ProcessWndProcException@CWinApp@@UAEJPAVCException@@PBUtagMSG@@@Z 100e698b f   nafxcw:appcore.obj
 0001:000e5a0a       ?OnIdle@CWinApp@@UAEHJ@Z   100e6a0a f   nafxcw:appcore.obj
 0001:000e5a6e       ?DevModeChange@CWinApp@@QAEXPAD@Z 100e6a6e f   nafxcw:appcore.obj
 0001:000e5b0c       ?GetRuntimeClass@CWinApp@@UBEPAUCRuntimeClass@@XZ 100e6b0c f   nafxcw:appcore.obj
 0001:000e5b12       ?AfxInvariantStrICmp@@YAHPBD0@Z 100e6b12 f i nafxcw:appcore.obj
 0001:000e5bfe       ?Release@CActivationContext@@QAEXXZ 100e6bfe f i nafxcw:appcore.obj
 0001:000e5c1e       ?LoadSysPolicies@CWinApp@@UAEHXZ 100e6c1e f   nafxcw:appcore.obj
 0001:000e5c23       ?InitInstance@CWinApp@@UAEHXZ 100e6c23 f   nafxcw:appcore.obj
 0001:000e5c5b       ?Run@CWinApp@@UAEHXZ       100e6c5b f   nafxcw:appcore.obj
 0001:000e5c7c       ?WinHelpA@CWinApp@@UAEXKI@Z 100e6c7c f   nafxcw:appcore.obj
 0001:000e5cb9       ?HtmlHelpA@CWinApp@@UAEXKI@Z 100e6cb9 f   nafxcw:appcore.obj
 0001:000e5cf6       ?WinHelpInternal@CWinApp@@UAEXKI@Z 100e6cf6 f   nafxcw:appcore.obj
 0001:000e5d33       ??1CActivationContext@@QAE@XZ 100e6d33 f i nafxcw:appcore.obj
 0001:000e6029       ?LoadAppLangResourceDLL@CWinApp@@UAEPAUHINSTANCE__@@XZ 100e7029 f   nafxcw:appcore.obj
 0001:000e609d       ??0CWinApp@@QAE@PBD@Z      100e709d f   nafxcw:appcore.obj
 0001:000e6172       ??1CWinApp@@UAE@XZ         100e7172 f   nafxcw:appcore.obj
 0001:000e6366       ??_GCWinApp@@UAEPAXI@Z     100e7366 f i nafxcw:appcore.obj
 0001:000e6366       ??_ECWinApp@@UAEPAXI@Z     100e7366 f i nafxcw:appcore.obj
 0001:000e6382       ?PostNcDestroy@CWnd@@MAEXXZ 100e7382 f   nafxcw:wincore.obj
 0001:000e6382       ?InitLibId@CWinApp@@UAEXXZ 100e7382 f   nafxcw:appui2.obj
 0001:000e6382       ?PreSubclassWindow@CWnd@@UAEXXZ 100e7382 f   nafxcw:wincore.obj
 0001:000e6382       __fpclear                  100e7382 f   libcmt:fpinit.obj
 0001:000e6382       __initp_misc_winxfltr      100e7382 f   libcmt:winxfltr.obj
 0001:000e6383       ?GetFirstDocTemplatePosition@CWinApp@@QBEPAU__POSITION@@XZ 100e7383 f   nafxcw:appui2.obj
 0001:000e6394       ?GetNextDocTemplate@CWinApp@@QBEPAVCDocTemplate@@AAPAU__POSITION@@@Z 100e7394 f   nafxcw:appui2.obj
 0001:000e63a7       ?AfxDelRegTreeHelper@@YGJPAUHKEY__@@ABV?$CStringT@DV?$StrTraitMFC@DV?$ChTraitsCRT@D@ATL@@@@@ATL@@@Z 100e73a7 f   nafxcw:appui2.obj
 0001:000e64b6       ?Unregister@CWinApp@@UAEHXZ 100e74b6 f   nafxcw:appui2.obj
 0001:000e6616       ??2CNoTrackObject@@SGPAXI@Z 100e7616 f   nafxcw:afxtls.obj
 0001:000e662e       ??3CNoTrackObject@@SGXPAX@Z 100e762e f   nafxcw:afxtls.obj
 0001:000e663e       ?GetThreadValue@CThreadSlotData@@QAEPAXH@Z 100e763e f i nafxcw:afxtls.obj
 0001:000e668b       ?AssignInstance@CThreadSlotData@@QAEXPAUHINSTANCE__@@@Z 100e768b f   nafxcw:afxtls.obj
 0001:000e66cb       ?GetDataNA@CThreadLocalObject@@QAEPAVCNoTrackObject@@XZ 100e76cb f   nafxcw:afxtls.obj
 0001:000e66e5       ?GetData@CProcessLocalObject@@QAEPAVCNoTrackObject@@P6GPAV2@XZ@Z 100e76e5 f   nafxcw:afxtls.obj
 0001:000e6735       ??1CProcessLocalObject@@QAE@XZ 100e7735 f   nafxcw:afxtls.obj
 0001:000e675c       ?AfxInitLocalData@@YGXPAUHINSTANCE__@@@Z 100e775c f   nafxcw:afxtls.obj
 0001:000e676e       ?AfxTlsAddRef@@YGXXZ       100e776e f   nafxcw:afxtls.obj
 0001:000e6775       ?GetNextPtr@CSimpleList@@QBEPAPAXPAX@Z 100e7775 f i nafxcw:afxtls.obj
 0001:000e678b       ?AddHead@CSimpleList@@QAEXPAX@Z 100e778b f   nafxcw:afxtls.obj
 0001:000e67a4       ?Remove@CSimpleList@@QAEHPAX@Z 100e77a4 f   nafxcw:afxtls.obj
 0001:000e680a       ?AllocSlot@CThreadSlotData@@QAEHXZ 100e780a f   nafxcw:afxtls.obj
 0001:000e691a       ??0CThreadSlotData@@QAE@XZ 100e791a f   nafxcw:afxtls.obj
 0001:000e6959       ?FreeSlot@CThreadSlotData@@QAEXH@Z 100e7959 f   nafxcw:afxtls.obj
 0001:000e69bc       ?SetValue@CThreadSlotData@@QAEXHPAX@Z 100e79bc f   nafxcw:afxtls.obj
 0001:000e6af1       ??_ECThreadData@@UAEPAXI@Z 100e7af1 f i nafxcw:afxtls.obj
 0001:000e6af1       ??_GCThreadData@@UAEPAXI@Z 100e7af1 f i nafxcw:afxtls.obj
 0001:000e6b07       ?DeleteValues@CThreadSlotData@@QAEXPAUCThreadData@@PAUHINSTANCE__@@@Z 100e7b07 f   nafxcw:afxtls.obj
 0001:000e6b9c       ?DeleteValues@CThreadSlotData@@QAEXPAUHINSTANCE__@@H@Z 100e7b9c f   nafxcw:afxtls.obj
 0001:000e6bf5       ?GetData@CThreadLocalObject@@QAEPAVCNoTrackObject@@P6GPAV2@XZ@Z 100e7bf5 f   nafxcw:afxtls.obj
 0001:000e6c7f       ??1CThreadLocalObject@@QAE@XZ 100e7c7f f   nafxcw:afxtls.obj
 0001:000e6c9d       ?AfxTermLocalData@@YGXPAUHINSTANCE__@@H@Z 100e7c9d f   nafxcw:afxtls.obj
 0001:000e6caf       ??1CThreadSlotData@@QAE@XZ 100e7caf f   nafxcw:afxtls.obj
 0001:000e6d06       ?AfxTlsRelease@@YGXXZ      100e7d06 f   nafxcw:afxtls.obj
 0001:000e6d2e       ?AfxCriticalInit@@YGHXZ    100e7d2e f   nafxcw:afxcrit.obj
 0001:000e6d52       ?AfxCriticalTerm@@YGXXZ    100e7d52 f   nafxcw:afxcrit.obj
 0001:000e6d97       ?AfxLockGlobals@@YGXH@Z    100e7d97 f   nafxcw:afxcrit.obj
 0001:000e6e04       ?AfxUnlockGlobals@@YGXH@Z  100e7e04 f   nafxcw:afxcrit.obj
 0001:000e6e24       ?AfxLockTempMaps@@YGXXZ    100e7e24 f   nafxcw:winhand.obj
 0001:000e6e2d       ??0CHandleMap@@QAE@PAUCRuntimeClass@@P6GXPAVCObject@@@Z2IH@Z 100e7e2d f   nafxcw:winhand.obj
 0001:000e6eb6       ?FromHandle@CHandleMap@@QAEPAVCObject@@PAX@Z 100e7eb6 f   nafxcw:winhand.obj
 0001:000e6f69       ?DeleteTemp@CHandleMap@@QAEXXZ 100e7f69 f   nafxcw:winhand.obj
 0001:000e6fcc       ??1CHandleMap@@UAE@XZ      100e7fcc f i nafxcw:winhand.obj
 0001:000e7019       ??_GCHandleMap@@UAEPAXI@Z  100e8019 f i nafxcw:winhand.obj
 0001:000e7019       ??_ECHandleMap@@UAEPAXI@Z  100e8019 f i nafxcw:winhand.obj
 0001:000e7035       ?AfxUnlockTempMaps@@YGHH@Z 100e8035 f   nafxcw:winhand.obj
 0001:000e712e       ??0?$CStringT@DV?$StrTraitMFC@DV?$ChTraitsCRT@D@ATL@@@@@ATL@@QAE@PBDPAUIAtlStringMgr@1@@Z 100e812e f i nafxcw:appterm.obj
 0001:000e716d       ?Tokenize@?$CStringT@DV?$StrTraitMFC@DV?$ChTraitsCRT@D@ATL@@@@@ATL@@QBE?AV12@PBDAAH@Z 100e816d f i nafxcw:appterm.obj
 0001:000e7220       ?AfxUnregisterWndClasses@@YGXXZ 100e8220 f   nafxcw:appterm.obj
 0001:000e72bf       ?AfxWinTerm@@YGXXZ         100e82bf f   nafxcw:appterm.obj
 0001:000e7333       ?AfxGetFileName@@YGIPBDPADI@Z 100e8333 f   nafxcw:appinit.obj
 0001:000e7371       ?SetCurrentHandles@CWinApp@@QAEXXZ 100e8371 f   nafxcw:appinit.obj
 0001:000e74f0       ?AfxWinInit@@YGHPAUHINSTANCE__@@0PADH@Z 100e84f0 f   nafxcw:appinit.obj
 0001:000e7574       ?AfxIsValidString@@YGHPBDH@Z 100e8574 f   nafxcw:validadd.obj
 0001:000e7580       ?GetInterface@CCmdTarget@@QAEPAUIUnknown@@PBX@Z 100e8580 f   nafxcw:oleunk.obj
 0001:000e762e       ?QueryAggregates@CCmdTarget@@QAEPAUIUnknown@@PBX@Z 100e862e f   nafxcw:oleunk.obj
 0001:000e768e       ?ExternalAddRef@CCmdTarget@@QAEKXZ 100e868e f   nafxcw:oleunk.obj
 0001:000e76a9       ?InternalRelease@CCmdTarget@@QAEKXZ 100e86a9 f   nafxcw:oleunk.obj
 0001:000e76ff       ?ExternalRelease@CCmdTarget@@QAEKXZ 100e86ff f   nafxcw:oleunk.obj
 0001:000e7714       ?InternalQueryInterface@CCmdTarget@@QAEKPBXPAPAX@Z 100e8714 f   nafxcw:oleunk.obj
 0001:000e7754       ?ExternalQueryInterface@CCmdTarget@@QAEKPBXPAPAX@Z 100e8754 f   nafxcw:oleunk.obj
 0001:000e7772       ?UpdateSysColors@AUX_DATA@@QAEXXZ 100e8772 f   nafxcw:auxdata.obj
 0001:000e77b6       ?UpdateSysMetrics@AUX_DATA@@QAEXXZ 100e87b6 f   nafxcw:auxdata.obj
 0001:000e7810       ??0AUX_DATA@@QAE@XZ        100e8810 f   nafxcw:auxdata.obj
 0001:000e7865       ??1AUX_DATA@@QAE@XZ        100e8865 f   nafxcw:auxdata.obj
 0001:000e794d       ?InitHashTable@CMapPtrToPtr@@QAEXIH@Z 100e894d f   nafxcw:map_pp.obj
 0001:000e79a7       ?RemoveAll@CMapPtrToPtr@@QAEXXZ 100e89a7 f   nafxcw:map_pp.obj
 0001:000e79d2       ?FreeAssoc@CMapPtrToPtr@@IAEXPAUCAssoc@1@@Z 100e89d2 f   nafxcw:map_pp.obj
 0001:000e79eb       ?GetAssocAt@CMapPtrToPtr@@IBEPAUCAssoc@1@PAXAAI1@Z 100e89eb f   nafxcw:map_pp.obj
 0001:000e7a23       ?GetValueAt@CMapPtrToPtr@@QBEPAXPAX@Z 100e8a23 f   nafxcw:map_pp.obj
 0001:000e7a63       ?Lookup@CMapPtrToPtr@@QBEHPAXAAPAX@Z 100e8a63 f   nafxcw:map_pp.obj
 0001:000e7a8a       ?RemoveKey@CMapPtrToPtr@@QAEHPAX@Z 100e8a8a f   nafxcw:map_pp.obj
 0001:000e7acd       ?GetNextAssoc@CMapPtrToPtr@@QBEXAAPAU__POSITION@@AAPAX1@Z 100e8acd f   nafxcw:map_pp.obj
 0001:000e7b48       ?GetRuntimeClass@CMapPtrToPtr@@UBEPAUCRuntimeClass@@XZ 100e8b48 f   nafxcw:map_pp.obj
 0001:000e7b4e       ??0CMapPtrToPtr@@QAE@H@Z   100e8b4e f   nafxcw:map_pp.obj
 0001:000e7b7c       ??1CMapPtrToPtr@@UAE@XZ    100e8b7c f   nafxcw:map_pp.obj
 0001:000e7b87       ?NewAssoc@CMapPtrToPtr@@IAEPAUCAssoc@1@XZ 100e8b87 f   nafxcw:map_pp.obj
 0001:000e7bd5       ??ACMapPtrToPtr@@QAEAAPAXPAX@Z 100e8bd5 f   nafxcw:map_pp.obj
 0001:000e7c2a       ??_ECMapPtrToPtr@@UAEPAXI@Z 100e8c2a f i nafxcw:map_pp.obj
 0001:000e7c2a       ??_GCMapPtrToPtr@@UAEPAXI@Z 100e8c2a f i nafxcw:map_pp.obj
 0001:000e7c4c       ?AfxFormatStrings@@YGXAAV?$CStringT@DV?$StrTraitMFC@DV?$ChTraitsCRT@D@ATL@@@@@ATL@@PBDPBQBDH@Z 100e8c4c f   nafxcw:apphelp.obj
 0001:000e7d8e       ?AfxFormatStrings@@YGXAAV?$CStringT@DV?$StrTraitMFC@DV?$ChTraitsCRT@D@ATL@@@@@ATL@@IPBQBDH@Z 100e8d8e f   nafxcw:apphelp.obj
 0001:000e7de5       ?AfxFormatString1@@YGXAAV?$CStringT@DV?$StrTraitMFC@DV?$ChTraitsCRT@D@ATL@@@@@ATL@@IPBD@Z 100e8de5 f   nafxcw:apphelp.obj
 0001:000e7dfc       ?RemoveAll@CPtrList@@QAEXXZ 100e8dfc f   nafxcw:list_p.obj
 0001:000e7e1c       ?FreeNode@CPtrList@@IAEXPAUCNode@1@@Z 100e8e1c f   nafxcw:list_p.obj
 0001:000e7e3e       ?RemoveHead@CPtrList@@QAEPAXXZ 100e8e3e f   nafxcw:list_p.obj
 0001:000e7e6f       ?Lock@CSyncObject@@UAEHK@Z 100e8e6f f   nafxcw:mtcore.obj
 0001:000e7e91       ?GetRuntimeClass@CCriticalSection@@UBEPAUCRuntimeClass@@XZ 100e8e91 f   nafxcw:mtcore.obj
 0001:000e7e97       ?GetRuntimeClass@CSyncObject@@UBEPAUCRuntimeClass@@XZ 100e8e97 f   nafxcw:mtcore.obj
 0001:000e7e9d       ??0CSyncObject@@QAE@PBD@Z  100e8e9d f   nafxcw:mtcore.obj
 0001:000e7eac       ??1CSyncObject@@UAE@XZ     100e8eac f   nafxcw:mtcore.obj
 0001:000e7ec9       ??_ECSyncObject@@UAEPAXI@Z 100e8ec9 f i nafxcw:mtcore.obj
 0001:000e7ec9       ??_GCSyncObject@@UAEPAXI@Z 100e8ec9 f i nafxcw:mtcore.obj
 0001:000e7ee5       ?OsErrorToException@CFileException@@SGHJ@Z 100e8ee5 f   nafxcw:filex.obj
 0001:000e8179       ?GetRuntimeClass@CFileException@@UBEPAUCRuntimeClass@@XZ 100e9179 f   nafxcw:filex.obj
 0001:000e817f       ?GetErrorMessage@CFileException@@UBEHPADIPAI@Z 100e917f f   nafxcw:filex.obj
 0001:000e8233       ?AfxThrowFileException@@YGXHJPBD@Z 100e9233 f   nafxcw:filex.obj
 0001:000e8279       ?ThrowOsError@CFileException@@SGXJPBD@Z 100e9279 f   nafxcw:filex.obj
 0001:000e829a       _IsPlatformNT              100e929a f   nafxcw:wincore.obj
 0001:000e82f2       _InitMultipleMonitorStubs  100e92f2 f   nafxcw:wincore.obj
 0001:000e83e7       _xMonitorFromRect@8        100e93e7 f   nafxcw:wincore.obj
 0001:000e8433       _xMonitorFromWindow@8      100e9433 f   nafxcw:wincore.obj
 0001:000e849e       _xGetMonitorInfo@8         100e949e f   nafxcw:wincore.obj
 0001:000e8537       ?AtlIAccessibleInvokeHelper@ATL@@YGJPAUIAccessible@@JABU_GUID@@KGPAUtagDISPPARAMS@@PAUtagVARIANT@@PAUtagEXCEPINFO@@PAI@Z 100e9537 f i nafxcw:wincore.obj
 0001:000e8b03       ?AtlIAccessibleGetIDsOfNamesHelper@ATL@@YGJABU_GUID@@PAPA_WIKPAJ@Z 100e9b03 f i nafxcw:wincore.obj
 0001:000e8b63       ??0CWnd@@AAE@PAUHWND__@@@Z 100e9b63 f   nafxcw:wincore.obj
 0001:000e8ba9       ?OnFinalRelease@CWnd@@UAEXXZ 100e9ba9 f   nafxcw:wincore.obj
 0001:000e8bba       ?DefWindowProcA@CWnd@@MAEJIIJ@Z 100e9bba f   nafxcw:wincore.obj
 0001:000e8c01       ?GetSuperWndProcAddr@CWnd@@MAEPAP6GJPAUHWND__@@IIJ@ZXZ 100e9c01 f   nafxcw:wincore.obj
 0001:000e8c05       ?PreTranslateMessage@CWnd@@UAEHPAUtagMSG@@@Z 100e9c05 f   nafxcw:wincore.obj
 0001:000e8c21       ?OnToolHitTest@CWnd@@UBEHVCPoint@@PAUtagTOOLINFOA@@@Z 100e9c21 f   nafxcw:wincore.obj
 0001:000e8c93       ?AfxFindMessageEntry@@YGPBUAFX_MSGMAP_ENTRY@@PBU1@III@Z 100e9c93 f   nafxcw:wincore.obj
 0001:000e8cd3       ?WindowProc@CWnd@@MAEJIIJ@Z 100e9cd3 f   nafxcw:wincore.obj
 0001:000e8d17       ??0CTestCmdUI@@QAE@XZ      100e9d17 f   nafxcw:wincore.obj
 0001:000e8d30       ?Enable@CTestCmdUI@@UAEXH@Z 100e9d30 f   nafxcw:wincore.obj
 0001:000e8d41       ?CalcWindowRect@CWnd@@UAEXPAUtagRECT@@I@Z 100e9d41 f   nafxcw:wincore.obj
 0001:000e8d6e       ?GetInterfaceMap@CWnd@@MBEPBUAFX_INTERFACEMAP@@XZ 100e9d6e f   nafxcw:wincore.obj
 0001:000e8d74       ?GetIDsOfNames@XAccessible@CWnd@@UAGJABU_GUID@@PAPA_WIKPAJ@Z 100e9d74 f   nafxcw:wincore.obj
 0001:000e8d8f       ?GetTypeInfoCount@XAccessible@CWnd@@UAGJPAI@Z 100e9d8f f   nafxcw:wincore.obj
 0001:000e8da9       ?GetTypeInfo@XAccessible@CWnd@@UAGJIKPAPAUITypeInfo@@@Z 100e9da9 f   nafxcw:wincore.obj
 0001:000e8db1       ?GetEnumVariant@XAccessibleServer@CWnd@@UAGJPAPAUIEnumVARIANT@@@Z 100e9db1 f   nafxcw:wincore.obj
 0001:000e8dcb       ?EnsureStdObj@CWnd@@UAEJXZ 100e9dcb f   nafxcw:wincore.obj
 0001:000e8dea       ?get_accParent@CWnd@@UAEJPAPAUIDispatch@@@Z 100e9dea f   nafxcw:wincore.obj
 0001:000e8dfa       ?get_accChildCount@CWnd@@UAEJPAJ@Z 100e9dfa f   nafxcw:wincore.obj
 0001:000e8e0a       ?get_accChild@CWnd@@UAEJUtagVARIANT@@PAPAUIDispatch@@@Z 100e9e0a f   nafxcw:wincore.obj
 0001:000e8e2b       ?get_accName@CWnd@@UAEJUtagVARIANT@@PAPA_W@Z 100e9e2b f   nafxcw:wincore.obj
 0001:000e8e4c       ?get_accValue@CWnd@@UAEJUtagVARIANT@@PAPA_W@Z 100e9e4c f   nafxcw:wincore.obj
 0001:000e8e6d       ?get_accDescription@CWnd@@UAEJUtagVARIANT@@PAPA_W@Z 100e9e6d f   nafxcw:wincore.obj
 0001:000e8e8e       ?get_accRole@CWnd@@UAEJUtagVARIANT@@PAU2@@Z 100e9e8e f   nafxcw:wincore.obj
 0001:000e8eaf       ?get_accState@CWnd@@UAEJUtagVARIANT@@PAU2@@Z 100e9eaf f   nafxcw:wincore.obj
 0001:000e8ed0       ?get_accHelp@CWnd@@UAEJUtagVARIANT@@PAPA_W@Z 100e9ed0 f   nafxcw:wincore.obj
 0001:000e8ef1       ?get_accHelpTopic@CWnd@@UAEJPAPA_WUtagVARIANT@@PAJ@Z 100e9ef1 f   nafxcw:wincore.obj
 0001:000e8f16       ?get_accKeyboardShortcut@CWnd@@UAEJUtagVARIANT@@PAPA_W@Z 100e9f16 f   nafxcw:wincore.obj
 0001:000e8f37       ?get_accFocus@CWnd@@UAEJPAUtagVARIANT@@@Z 100e9f37 f   nafxcw:wincore.obj
 0001:000e8f47       ?get_accSelection@CWnd@@UAEJPAUtagVARIANT@@@Z 100e9f47 f   nafxcw:wincore.obj
 0001:000e8f57       ?get_accDefaultAction@CWnd@@UAEJUtagVARIANT@@PAPA_W@Z 100e9f57 f   nafxcw:wincore.obj
 0001:000e8f78       ?accSelect@CWnd@@UAEJJUtagVARIANT@@@Z 100e9f78 f   nafxcw:wincore.obj
 0001:000e8f99       ?accLocation@CWnd@@UAEJPAJ000UtagVARIANT@@@Z 100e9f99 f   nafxcw:wincore.obj
 0001:000e8fc5       ?accNavigate@CWnd@@UAEJJUtagVARIANT@@PAU2@@Z 100e9fc5 f   nafxcw:wincore.obj
 0001:000e8fea       ?accHitTest@CWnd@@UAEJJJPAUtagVARIANT@@@Z 100e9fea f   nafxcw:wincore.obj
 0001:000e9002       ?accDoDefaultAction@CWnd@@UAEJUtagVARIANT@@@Z 100ea002 f   nafxcw:wincore.obj
 0001:000e901f       ?put_accValue@CWnd@@UAEJUtagVARIANT@@PA_W@Z 100ea01f f   nafxcw:wincore.obj
 0001:000e901f       ?put_accName@CWnd@@UAEJUtagVARIANT@@PA_W@Z 100ea01f f   nafxcw:wincore.obj
 0001:000e9040       ?SetProxy@CWnd@@UAEJPAUIAccessibleProxy@@@Z 100ea040 f   nafxcw:wincore.obj
 0001:000e904c       ??3CObject@@SGXPAX0@Z      100ea04c f i nafxcw:wincore.obj
 0001:000e9059       ?ContinueModal@CWnd@@UAEHXZ 100ea059 f   nafxcw:wincore.obj
 0001:000e9060       ?GetDispatchIID@CCmdTarget@@UAEHPAU_GUID@@@Z 100ea060 f   nafxcw:cmdtarg.obj
 0001:000e9060       ?GetExtraConnectionPoints@CCmdTarget@@MAEHPAVCPtrArray@@@Z 100ea060 f   nafxcw:cmdtarg.obj
 0001:000e9060       ?GetConnectionHook@CCmdTarget@@MAEPAUIConnectionPoint@@ABU_GUID@@@Z 100ea060 f   nafxcw:cmdtarg.obj
 0001:000e9060       ?GetScrollBarCtrl@CWnd@@UBEPAVCScrollBar@@H@Z 100ea060 f   nafxcw:wincore.obj
 0001:000e9060       ?SetOccDialogInfo@CWnd@@MAEHPAU_AFX_OCC_DIALOG_INFO@@@Z 100ea060 f   nafxcw:wincore.obj
 0001:000e9060       ?GetInterfaceHook@CCmdTarget@@UAEPAUIUnknown@@PBX@Z 100ea060 f   nafxcw:cmdtarg.obj
 0001:000e9065       ?IsTracking@CFrameWnd@@QBEHXZ 100ea065 f   nafxcw:wincore.obj
 0001:000e9084       ?CreateControlContainer@CWnd@@MAEHPAPAVCOleControlContainer@@@Z 100ea084 f   nafxcw:wincore.obj
 0001:000e909a       ?CreateControlSite@CWnd@@MAEHPAVCOleControlContainer@@PAPAVCOleControlSite@@IABU_GUID@@@Z 100ea09a f   nafxcw:wincore.obj
 0001:000e90b0       ?GetRuntimeClass@CWnd@@UBEPAUCRuntimeClass@@XZ 100ea0b0 f   nafxcw:wincore.obj
 0001:000e90b6       ?AfxCtxRegisterClassA@@YAGPBUtagWNDCLASSA@@@Z 100ea0b6 f i nafxcw:wincore.obj
 0001:000e9149       ?AfxCtxGetClassInfoA@@YAHPAUHINSTANCE__@@PBDPAUtagWNDCLASSA@@@Z 100ea149 f i nafxcw:wincore.obj
 0001:000e91dd       ?AfxCtxGetClassInfoExA@@YAHPAUHINSTANCE__@@PBDPAUtagWNDCLASSEXA@@@Z 100ea1dd f i nafxcw:wincore.obj
 0001:000e9271       ?AfxCtxCreateWindowExA@@YAPAUHWND__@@KPBD0KHHHHPAU1@PAUHMENU__@@PAUHINSTANCE__@@PAX@Z 100ea271 f i nafxcw:wincore.obj
 0001:000e9320       ?GetSubMenu@CMenu@@QBEPAV1@H@Z 100ea320 f i nafxcw:wincore.obj
 0001:000e9336       ?BeginModalState@CWnd@@UAEXXZ 100ea336 f i nafxcw:wincore.obj
 0001:000e9342       ?EndModalState@CWnd@@UAEXXZ 100ea342 f i nafxcw:wincore.obj
 0001:000e934e       ?Lock@CInternalGlobalLock@@QAEXH@Z 100ea34e f i nafxcw:wincore.obj
 0001:000e937d       ?Unlock@CInternalGlobalLock@@QAEXXZ 100ea37d f i nafxcw:wincore.obj
 0001:000e9397       ??0CWnd@@QAE@XZ            100ea397 f   nafxcw:wincore.obj
 0001:000e93da       ?_AfxPreInitDialog@@YGXPAVCWnd@@PAUtagRECT@@PAK@Z 100ea3da f   nafxcw:wincore.obj
 0001:000e93fd       ?CreateEx@CWnd@@UAEHKPBD0KABUtagRECT@@PAV1@IPAX@Z 100ea3fd f   nafxcw:wincore.obj
 0001:000e9446       ?Create@CWnd@@UAEHPBD0KABUtagRECT@@PAV1@IPAUCCreateContext@@@Z 100ea446 f   nafxcw:wincore.obj
 0001:000e9494       ?CancelToolTips@CWnd@@SGXH@Z 100ea494 f   nafxcw:wincore.obj
 0001:000e94e5       ?_AfxFindPopupMenuFromID@@YGPAVCMenu@@PAV1@I@Z 100ea4e5 f   nafxcw:wincore.obj
 0001:000e9551       ??1_AFX_HTMLHELP_STATE@@UAE@XZ 100ea551 f   nafxcw:wincore.obj
 0001:000e9566       ??_E_AFX_HTMLHELP_STATE@@UAEPAXI@Z 100ea566 f i nafxcw:wincore.obj
 0001:000e9566       ??_G_AFX_HTMLHELP_STATE@@UAEPAXI@Z 100ea566 f i nafxcw:wincore.obj
 0001:000e9581       ?WinHelpInternal@CWnd@@UAEXKI@Z 100ea581 f   nafxcw:wincore.obj
 0001:000e95d2       ?OnActivateTopLevel@CWnd@@IAEJIJ@Z 100ea5d2 f   nafxcw:wincore.obj
 0001:000e95fb       ?AddRef@XAccessible@CWnd@@UAGKXZ 100ea5fb f   nafxcw:wincore.obj
 0001:000e9643       ?Release@XAccessible@CWnd@@UAGKXZ 100ea643 f   nafxcw:wincore.obj
 0001:000e968b       ?QueryInterface@XAccessible@CWnd@@UAGJABU_GUID@@PAPAX@Z 100ea68b f   nafxcw:wincore.obj
 0001:000e96d9       ?Invoke@XAccessible@CWnd@@UAGJJABU_GUID@@KGPAUtagDISPPARAMS@@PAUtagVARIANT@@PAUtagEXCEPINFO@@PAI@Z 100ea6d9 f   nafxcw:wincore.obj
 0001:000e9735       ?get_accParent@XAccessible@CWnd@@UAGJPAPAUIDispatch@@@Z 100ea735 f   nafxcw:wincore.obj
 0001:000e9783       ?get_accChildCount@XAccessible@CWnd@@UAGJPAJ@Z 100ea783 f   nafxcw:wincore.obj
 0001:000e97d1       ?get_accChild@XAccessible@CWnd@@UAGJUtagVARIANT@@PAPAUIDispatch@@@Z 100ea7d1 f   nafxcw:wincore.obj
 0001:000e982b       ?get_accName@XAccessible@CWnd@@UAGJUtagVARIANT@@PAPA_W@Z 100ea82b f   nafxcw:wincore.obj
 0001:000e9885       ?get_accValue@XAccessible@CWnd@@UAGJUtagVARIANT@@PAPA_W@Z 100ea885 f   nafxcw:wincore.obj
 0001:000e98df       ?get_accDescription@XAccessible@CWnd@@UAGJUtagVARIANT@@PAPA_W@Z 100ea8df f   nafxcw:wincore.obj
 0001:000e9939       ?get_accRole@XAccessible@CWnd@@UAGJUtagVARIANT@@PAU3@@Z 100ea939 f   nafxcw:wincore.obj
 0001:000e9993       ?get_accState@XAccessible@CWnd@@UAGJUtagVARIANT@@PAU3@@Z 100ea993 f   nafxcw:wincore.obj
 0001:000e99ed       ?get_accHelp@XAccessible@CWnd@@UAGJUtagVARIANT@@PAPA_W@Z 100ea9ed f   nafxcw:wincore.obj
 0001:000e9a47       ?get_accHelpTopic@XAccessible@CWnd@@UAGJPAPA_WUtagVARIANT@@PAJ@Z 100eaa47 f   nafxcw:wincore.obj
 0001:000e9aa4       ?get_accKeyboardShortcut@XAccessible@CWnd@@UAGJUtagVARIANT@@PAPA_W@Z 100eaaa4 f   nafxcw:wincore.obj
 0001:000e9afe       ?get_accFocus@XAccessible@CWnd@@UAGJPAUtagVARIANT@@@Z 100eaafe f   nafxcw:wincore.obj
 0001:000e9b4c       ?get_accSelection@XAccessible@CWnd@@UAGJPAUtagVARIANT@@@Z 100eab4c f   nafxcw:wincore.obj
 0001:000e9b9a       ?get_accDefaultAction@XAccessible@CWnd@@UAGJUtagVARIANT@@PAPA_W@Z 100eab9a f   nafxcw:wincore.obj
 0001:000e9bf4       ?accSelect@XAccessible@CWnd@@UAGJJUtagVARIANT@@@Z 100eabf4 f   nafxcw:wincore.obj
 0001:000e9c4e       ?accLocation@XAccessible@CWnd@@UAGJPAJ000UtagVARIANT@@@Z 100eac4e f   nafxcw:wincore.obj
 0001:000e9cb1       ?accNavigate@XAccessible@CWnd@@UAGJJUtagVARIANT@@PAU3@@Z 100eacb1 f   nafxcw:wincore.obj
 0001:000e9d0e       ?accHitTest@XAccessible@CWnd@@UAGJJJPAUtagVARIANT@@@Z 100ead0e f   nafxcw:wincore.obj
 0001:000e9d62       ?accDoDefaultAction@XAccessible@CWnd@@UAGJUtagVARIANT@@@Z 100ead62 f   nafxcw:wincore.obj
 0001:000e9db9       ?put_accName@XAccessible@CWnd@@UAGJUtagVARIANT@@PA_W@Z 100eadb9 f   nafxcw:wincore.obj
 0001:000e9e13       ?put_accValue@XAccessible@CWnd@@UAGJUtagVARIANT@@PA_W@Z 100eae13 f   nafxcw:wincore.obj
 0001:000e9e6d       ?AddRef@XAccessibleServer@CWnd@@UAGKXZ 100eae6d f   nafxcw:wincore.obj
 0001:000e9eb5       ?Release@XAccessibleServer@CWnd@@UAGKXZ 100eaeb5 f   nafxcw:wincore.obj
 0001:000e9efd       ?QueryInterface@XAccessibleServer@CWnd@@UAGJABU_GUID@@PAPAX@Z 100eaefd f   nafxcw:wincore.obj
 0001:000e9f4b       ?SetProxy@XAccessibleServer@CWnd@@UAGJPAUIAccessibleProxy@@@Z 100eaf4b f   nafxcw:wincore.obj
 0001:000e9f99       ?GetHWND@XAccessibleServer@CWnd@@UAGJPAPAUHWND__@@@Z 100eaf99 f   nafxcw:wincore.obj
 0001:000e9fd9       ??1?$CComPtr@UIAccessibleProxy@@@ATL@@QAE@XZ 100eafd9 f i nafxcw:wincore.obj
 0001:000e9fe6       ?CenterWindow@CWnd@@QAEXPAV1@@Z 100eafe6 f   nafxcw:wincore.obj
 0001:000ea1a8       ?EndModalLoop@CWnd@@UAEXH@Z 100eb1a8 f   nafxcw:wincore.obj
 0001:000ea1cd       ?CreateObject@CWnd@@SGPAVCObject@@XZ 100eb1cd f   nafxcw:wincore.obj
 0001:000ea1fa       ?Construct@?$ConstructDestruct@VCWnd@@@@SGXPAVCObject@@@Z 100eb1fa f i nafxcw:wincore.obj
 0001:000ea221       ?GetModuleHandleA@CDllIsolationWrapperBase@@QAEPAUHINSTANCE__@@XZ 100eb221 f i nafxcw:wincore.obj
 0001:000ea253       ?GetProcAddress_InitCommonControls@CComCtlWrapper@@QAE?AUInitCommonControls_Type@1@XZ 100eb253 f i nafxcw:wincore.obj
 0001:000ea27d       ?_InitCommonControls@CComCtlWrapper@@QAEXXZ 100eb27d f i nafxcw:wincore.obj
 0001:000ea2f1       ?GetProcAddress_InitCommonControlsEx@CComCtlWrapper@@QAE?AUInitCommonControlsEx_Type@1@XZ 100eb2f1 f i nafxcw:wincore.obj
 0001:000ea31b       ?_InitCommonControlsEx@CComCtlWrapper@@QAEHPAUtagINITCOMMONCONTROLSEX@@@Z 100eb31b f i nafxcw:wincore.obj
 0001:000ea3c6       ?AfxInitCommonControlsEx@@YGHPAUtagINITCOMMONCONTROLSEX@@@Z 100eb3c6 f i nafxcw:wincore.obj
 0001:000ea3dc       ??1CInternalGlobalLock@@QAE@XZ 100eb3dc f i nafxcw:wincore.obj
 0001:000ea3e1       ?GetCurrentMessage@CWnd@@KGPBUtagMSG@@XZ 100eb3e1 f   nafxcw:wincore.obj
 0001:000ea41f       ?Default@CWnd@@IAEJXZ      100eb41f f   nafxcw:wincore.obj
 0001:000ea44f       ?afxMapHWND@@YGPAVCHandleMap@@H@Z 100eb44f f   nafxcw:wincore.obj
 0001:000ea4c3       ?FromHandle@CWnd@@SGPAV1@PAUHWND__@@@Z 100eb4c3 f   nafxcw:wincore.obj
 0001:000ea4ea       ?FromHandlePermanent@CWnd@@SGPAV1@PAUHWND__@@@Z 100eb4ea f   nafxcw:wincore.obj
 0001:000ea504       ?Attach@CWnd@@QAEHPAUHWND__@@@Z 100eb504 f   nafxcw:wincore.obj
 0001:000ea53d       ?Detach@CWnd@@QAEPAUHWND__@@XZ 100eb53d f   nafxcw:wincore.obj
 0001:000ea56b       ?AfxUnhookWindowCreate@@YGHXZ 100eb56b f   nafxcw:wincore.obj
 0001:000ea5b6       ?OnDestroy@CWnd@@IAEXXZ    100eb5b6 f   nafxcw:wincore.obj
 0001:000ea5f1       ?OnNcDestroy@CWnd@@IAEXXZ  100eb5f1 f   nafxcw:wincore.obj
 0001:000ea702       ?DestroyWindow@CWnd@@UAEHXZ 100eb702 f   nafxcw:wincore.obj
 0001:000ea75f       ?OnNTCtlColor@CWnd@@IAEJIJ@Z 100eb75f f   nafxcw:wincore.obj
 0001:000ea7ae       ?GetDescendantWindow@CWnd@@SGPAV1@PAUHWND__@@HH@Z 100eb7ae f   nafxcw:wincore.obj
 0001:000ea825       ?WalkPreTranslateTree@CWnd@@SGHPAUHWND__@@PAUtagMSG@@@Z 100eb825 f   nafxcw:wincore.obj
 0001:000ea867       ?SendChildNotifyLastMsg@CWnd@@QAEHPAJ@Z 100eb867 f   nafxcw:wincore.obj
 0001:000ea89d       ?OnSetFocus@CWnd@@IAEXPAV1@@Z 100eb89d f   nafxcw:wincore.obj
 0001:000ea8c0       ?OnHelpInfo@CWnd@@IAEHPAUtagHELPINFO@@@Z 100eb8c0 f   nafxcw:wincore.obj
 0001:000ea92a       ?OnGetObject@CWnd@@IAEJIJ@Z 100eb92a f   nafxcw:wincore.obj
 0001:000ea966       ?OnVScroll@CWnd@@IAEXIIPAVCScrollBar@@@Z 100eb966 f   nafxcw:wincore.obj
 0001:000ea966       ?OnHScroll@CWnd@@IAEXIIPAVCScrollBar@@@Z 100eb966 f   nafxcw:wincore.obj
 0001:000ea987       ?OnEnterIdle@CWnd@@IAEXIPAV1@@Z 100eb987 f   nafxcw:wincore.obj
 0001:000ea9c7       ?OnCtlColor@CWnd@@IAEPAUHBRUSH__@@PAVCDC@@PAV1@I@Z 100eb9c7 f   nafxcw:wincore.obj
 0001:000ea9ee       ?_AfxInitCommonControls@@YGJPAUtagINITCOMMONCONTROLSEX@@J@Z 100eb9ee f   nafxcw:wincore.obj
 0001:000eaa45       ?CreateObject@?$CProcessLocal@V_AFX_HTMLHELP_STATE@@@@SGPAVCNoTrackObject@@XZ 100eba45 f i nafxcw:wincore.obj
 0001:000eaa5a       ?_AfxPostInitDialog@@YGXPAVCWnd@@ABUtagRECT@@K@Z 100eba5a f   nafxcw:wincore.obj
 0001:000eaad6       ?AfxCallWndProc@@YGJPAVCWnd@@PAUHWND__@@IIJ@Z 100ebad6 f   nafxcw:wincore.obj
 0001:000eabc9       ?AfxWndProc@@YGJPAUHWND__@@IIJ@Z 100ebbc9 f   nafxcw:wincore.obj
 0001:000eac14       ??1CWnd@@UAE@XZ            100ebc14 f   nafxcw:wincore.obj
 0001:000eac89       ?OnVKeyToItem@CWnd@@IAEHIPAVCListBox@@I@Z 100ebc89 f   nafxcw:wincore.obj
 0001:000eac89       ?OnCharToItem@CWnd@@IAEHIPAVCListBox@@I@Z 100ebc89 f   nafxcw:wincore.obj
 0001:000eacb4       ?OnMeasureItem@CWnd@@IAEXHPAUtagMEASUREITEMSTRUCT@@@Z 100ebcb4 f   nafxcw:wincore.obj
 0001:000ead39       ?GetParentFrame@CWnd@@QBEPAVCFrameWnd@@XZ 100ebd39 f   nafxcw:wincore.obj
 0001:000ead78       ?GetTopLevelFrame@CWnd@@QBEPAVCFrameWnd@@XZ 100ebd78 f   nafxcw:wincore.obj
 0001:000eadb7       ?SendMessageToDescendants@CWnd@@SGXPAUHWND__@@IIJHH@Z 100ebdb7 f   nafxcw:wincore.obj
 0001:000eae34       ?ReflectLastMsg@CWnd@@KGHPAUHWND__@@PAJ@Z 100ebe34 f   nafxcw:wincore.obj
 0001:000eaed4       ?OnParentNotify@CWnd@@IAEXIJ@Z 100ebed4 f   nafxcw:wincore.obj
 0001:000eaf01       ?OnDragList@CWnd@@IAEJIJ@Z 100ebf01 f   nafxcw:wincore.obj
 0001:000eaf2b       ?get_accParent@?$IAccessibleProxyImpl@VCAccessibleProxy@ATL@@@ATL@@UAGJPAPAUIDispatch@@@Z 100ebf2b f i nafxcw:wincore.obj
 0001:000eaf5a       ?get_accChildCount@?$IAccessibleProxyImpl@VCAccessibleProxy@ATL@@@ATL@@UAGJPAJ@Z 100ebf5a f i nafxcw:wincore.obj
 0001:000eaf89       ?get_accChild@?$IAccessibleProxyImpl@VCAccessibleProxy@ATL@@@ATL@@UAGJUtagVARIANT@@PAPAUIDispatch@@@Z 100ebf89 f i nafxcw:wincore.obj
 0001:000eafc9       ?get_accName@?$IAccessibleProxyImpl@VCAccessibleProxy@ATL@@@ATL@@UAGJUtagVARIANT@@PAPA_W@Z 100ebfc9 f i nafxcw:wincore.obj
 0001:000eb009       ?get_accValue@?$IAccessibleProxyImpl@VCAccessibleProxy@ATL@@@ATL@@UAGJUtagVARIANT@@PAPA_W@Z 100ec009 f i nafxcw:wincore.obj
 0001:000eb049       ?get_accDescription@?$IAccessibleProxyImpl@VCAccessibleProxy@ATL@@@ATL@@UAGJUtagVARIANT@@PAPA_W@Z 100ec049 f i nafxcw:wincore.obj
 0001:000eb089       ?get_accRole@?$IAccessibleProxyImpl@VCAccessibleProxy@ATL@@@ATL@@UAGJUtagVARIANT@@PAU3@@Z 100ec089 f i nafxcw:wincore.obj
 0001:000eb0c9       ?get_accState@?$IAccessibleProxyImpl@VCAccessibleProxy@ATL@@@ATL@@UAGJUtagVARIANT@@PAU3@@Z 100ec0c9 f i nafxcw:wincore.obj
 0001:000eb109       ?get_accHelp@?$IAccessibleProxyImpl@VCAccessibleProxy@ATL@@@ATL@@UAGJUtagVARIANT@@PAPA_W@Z 100ec109 f i nafxcw:wincore.obj
 0001:000eb149       ?get_accHelpTopic@?$IAccessibleProxyImpl@VCAccessibleProxy@ATL@@@ATL@@UAGJPAPA_WUtagVARIANT@@PAJ@Z 100ec149 f i nafxcw:wincore.obj
 0001:000eb191       ?get_accKeyboardShortcut@?$IAccessibleProxyImpl@VCAccessibleProxy@ATL@@@ATL@@UAGJUtagVARIANT@@PAPA_W@Z 100ec191 f i nafxcw:wincore.obj
 0001:000eb1d1       ?get_accFocus@?$IAccessibleProxyImpl@VCAccessibleProxy@ATL@@@ATL@@UAGJPAUtagVARIANT@@@Z 100ec1d1 f i nafxcw:wincore.obj
 0001:000eb200       ?get_accSelection@?$IAccessibleProxyImpl@VCAccessibleProxy@ATL@@@ATL@@UAGJPAUtagVARIANT@@@Z 100ec200 f i nafxcw:wincore.obj
 0001:000eb22f       ?get_accDefaultAction@?$IAccessibleProxyImpl@VCAccessibleProxy@ATL@@@ATL@@UAGJUtagVARIANT@@PAPA_W@Z 100ec22f f i nafxcw:wincore.obj
 0001:000eb26f       ?accSelect@?$IAccessibleProxyImpl@VCAccessibleProxy@ATL@@@ATL@@UAGJJUtagVARIANT@@@Z 100ec26f f i nafxcw:wincore.obj
 0001:000eb2a1       ?accLocation@?$IAccessibleProxyImpl@VCAccessibleProxy@ATL@@@ATL@@UAGJPAJ000UtagVARIANT@@@Z 100ec2a1 f i nafxcw:wincore.obj
 0001:000eb2f9       ?accNavigate@?$IAccessibleProxyImpl@VCAccessibleProxy@ATL@@@ATL@@UAGJJUtagVARIANT@@PAU3@@Z 100ec2f9 f i nafxcw:wincore.obj
 0001:000eb33c       ?accHitTest@?$IAccessibleProxyImpl@VCAccessibleProxy@ATL@@@ATL@@UAGJJJPAUtagVARIANT@@@Z 100ec33c f i nafxcw:wincore.obj
 0001:000eb372       ?accDoDefaultAction@?$IAccessibleProxyImpl@VCAccessibleProxy@ATL@@@ATL@@UAGJUtagVARIANT@@@Z 100ec372 f i nafxcw:wincore.obj
 0001:000eb3a0       ?put_accName@?$IAccessibleProxyImpl@VCAccessibleProxy@ATL@@@ATL@@UAGJUtagVARIANT@@PA_W@Z 100ec3a0 f i nafxcw:wincore.obj
 0001:000eb3a0       ?put_accValue@?$IAccessibleProxyImpl@VCAccessibleProxy@ATL@@@ATL@@UAGJUtagVARIANT@@PA_W@Z 100ec3a0 f i nafxcw:wincore.obj
 0001:000eb3b8       ?SetServer@?$IAccessibleProxyImpl@VCAccessibleProxy@ATL@@@ATL@@UAGJPAUIAccessible@@PAUIAccessibleServer@@@Z 100ec3b8 f i nafxcw:wincore.obj
 0001:000eb3cf       ?Invoke@?$IAccessibleProxyImpl@VCAccessibleProxy@ATL@@@ATL@@UAGJJABU_GUID@@KGPAUtagDISPPARAMS@@PAUtagVARIANT@@PAUtagEXCEPINFO@@PAI@Z 100ec3cf f i nafxcw:wincore.obj
 0001:000eb407       ?GetIDsOfNames@?$IAccessibleProxyImpl@VCAccessibleProxy@ATL@@@ATL@@UAGJABU_GUID@@PAPA_WIKPAJ@Z 100ec407 f i nafxcw:wincore.obj
 0001:000eb436       ?GetTypeInfoCount@?$IAccessibleProxyImpl@VCAccessibleProxy@ATL@@@ATL@@UAGJPAI@Z 100ec436 f i nafxcw:wincore.obj
 0001:000eb457       ?GetTypeInfo@?$IAccessibleProxyImpl@VCAccessibleProxy@ATL@@@ATL@@UAGJIKPAPAUITypeInfo@@@Z 100ec457 f i nafxcw:wincore.obj
 0001:000eb480       ?GetOwner@CWnd@@QBEPAV1@XZ 100ec480 f i nafxcw:wincore.obj
 0001:000eb497       ??_GCWnd@@UAEPAXI@Z        100ec497 f i nafxcw:wincore.obj
 0001:000eb497       ??_ECWnd@@UAEPAXI@Z        100ec497 f i nafxcw:wincore.obj
 0001:000eb4b3       ?OnDrawItem@CWnd@@IAEXHPAUtagDRAWITEMSTRUCT@@@Z 100ec4b3 f   nafxcw:wincore.obj
 0001:000eb4f0       ?OnCompareItem@CWnd@@IAEHHPAUtagCOMPAREITEMSTRUCT@@@Z 100ec4f0 f   nafxcw:wincore.obj
 0001:000eb51a       ?OnDeleteItem@CWnd@@IAEXHPAUtagDELETEITEMSTRUCT@@@Z 100ec51a f   nafxcw:wincore.obj
 0001:000eb53a       ?AfxHtmlHelp@@YGPAUHWND__@@PAU1@PBDIK@Z 100ec53a f   nafxcw:wincore.obj
 0001:000eb5b8       ?OnCommand@CWnd@@MAEHIJ@Z  100ec5b8 f   nafxcw:wincore.obj
 0001:000eb64f       ?OnNotify@CWnd@@MAEHIJPAJ@Z 100ec64f f   nafxcw:wincore.obj
 0001:000eb6d2       ?AfxGetParentOwner@@YGPAUHWND__@@PAU1@@Z 100ec6d2 f   nafxcw:wincore.obj
 0001:000eb717       ?GetTopLevelParent@CWnd@@QBEPAV1@XZ 100ec717 f   nafxcw:wincore.obj
 0001:000eb73f       ?OnSysColorChange@CWnd@@IAEXXZ 100ec73f f   nafxcw:wincore.obj
 0001:000eb785       ?OnDevModeChange@CWnd@@IAEXPAD@Z 100ec785 f   nafxcw:wincore.obj
 0001:000eb7d0       ?OnDisplayChange@CWnd@@IAEJIJ@Z 100ec7d0 f   nafxcw:wincore.obj
 0001:000eb819       ??0?$CMFCComObject@VCAccessibleProxy@ATL@@@@QAE@PAX@Z 100ec819 f i nafxcw:wincore.obj
 0001:000eb846       _InlineIsEqualGUID         100ec846 f i nafxcw:wincore.obj
 0001:000eb873       ?GetWindow@CAccessibleProxy@ATL@@UAGJPAPAUHWND__@@@Z 100ec873 f i nafxcw:wincore.obj
 0001:000eb878       ?ContextSensitiveHelp@CAccessibleProxy@ATL@@UAGJH@Z 100ec878 f i nafxcw:wincore.obj
 0001:000eb880       ?FinalRelease@CAccessibleProxy@ATL@@QAEJXZ 100ec880 f i nafxcw:wincore.obj
 0001:000eb895       ?InlineIsEqualUnknown@ATL@@YGHABU_GUID@@@Z 100ec895 f i nafxcw:wincore.obj
 0001:000eb8c0       ?AtlInternalQueryInterface@ATL@@YGJPAXPBU_ATL_INTMAP_ENTRY@1@ABU_GUID@@PAPAX@Z 100ec8c0 f i nafxcw:wincore.obj
 0001:000eb961       ??1?$CMFCComObject@VCAccessibleProxy@ATL@@@@UAE@XZ 100ec961 f i nafxcw:wincore.obj
 0001:000eb986       ?AddRef@?$CMFCComObject@VCAccessibleProxy@ATL@@@@UAGKXZ 100ec986 f i nafxcw:wincore.obj
 0001:000eb993       ?Release@?$CMFCComObject@VCAccessibleProxy@ATL@@@@UAGKXZ 100ec993 f i nafxcw:wincore.obj
 0001:000eb9b1       ?QueryInterface@?$CMFCComObject@VCAccessibleProxy@ATL@@@@UAGJABU_GUID@@PAPAX@Z 100ec9b1 f i nafxcw:wincore.obj
 0001:000eb9ca       ??_E?$CMFCComObject@VCAccessibleProxy@ATL@@@@UAEPAXI@Z 100ec9ca f i nafxcw:wincore.obj
 0001:000eb9ca       ??_G?$CMFCComObject@VCAccessibleProxy@ATL@@@@UAEPAXI@Z 100ec9ca f i nafxcw:wincore.obj
 0001:000eb9e6       ?Release@?$CMFCComObject@VCAccessibleProxy@ATL@@@@WBA@AGKXZ 100ec9e6 f i nafxcw:wincore.obj
 0001:000eb9f0       ?AddRef@?$CMFCComObject@VCAccessibleProxy@ATL@@@@WBA@AGKXZ 100ec9f0 f i nafxcw:wincore.obj
 0001:000eb9fa       ?QueryInterface@?$CMFCComObject@VCAccessibleProxy@ATL@@@@W3AGJABU_GUID@@PAPAX@Z 100ec9fa f i nafxcw:wincore.obj
 0001:000eba04       ?Release@?$CMFCComObject@VCAccessibleProxy@ATL@@@@W3AGKXZ 100eca04 f i nafxcw:wincore.obj
 0001:000eba0e       ?AddRef@?$CMFCComObject@VCAccessibleProxy@ATL@@@@W3AGKXZ 100eca0e f i nafxcw:wincore.obj
 0001:000eba18       ?QueryInterface@?$CMFCComObject@VCAccessibleProxy@ATL@@@@WBA@AGJABU_GUID@@PAPAX@Z 100eca18 f i nafxcw:wincore.obj
 0001:000eba22       ?_AfxHandleActivate@@YGXPAVCWnd@@I0@Z 100eca22 f   nafxcw:wincore.obj
 0001:000eba98       ?_AfxHandleSetCursor@@YGHPAVCWnd@@II@Z 100eca98 f   nafxcw:wincore.obj
 0001:000ebb0e       ?_AfxActivationWndProc@@YGJPAUHWND__@@IIJ@Z 100ecb0e f   nafxcw:wincore.obj
 0001:000ebc58       ?_AfxCbtFilterHook@@YGJHIJ@Z 100ecc58 f   nafxcw:wincore.obj
 0001:000ebeab       ?AfxHookWindowCreate@@YGXPAVCWnd@@@Z 100eceab f   nafxcw:wincore.obj
 0001:000ebf00       ?CreateEx@CWnd@@UAEHKPBD0KHHHHPAUHWND__@@PAUHMENU__@@PAX@Z 100ecf00 f   nafxcw:wincore.obj
 0001:000ebfdd       ?PrepareForHelp@CWnd@@QAEXXZ 100ecfdd f   nafxcw:wincore.obj
 0001:000ec059       ?OnWndMsg@CWnd@@MAEHIIJPAJ@Z 100ed059 f   nafxcw:wincore.obj
 0001:000ec685       ?ReflectChildNotify@CWnd@@IAEHIIJPAJ@Z 100ed685 f   nafxcw:wincore.obj
 0001:000ec76a       ?OnSettingChange@CWnd@@IAEXIPBD@Z 100ed76a f   nafxcw:wincore.obj
 0001:000ec796       ?CreateInstance@?$CMFCComObject@VCAccessibleProxy@ATL@@@@SGJPAPAV1@@Z 100ed796 f i nafxcw:wincore.obj
 0001:000ec808       ??1CWaitCursor@@QAE@XZ     100ed808 f i nafxcw:wincore.obj
 0001:000ec8f8       ?WinHelpA@CWnd@@UAEXKI@Z   100ed8f8 f   nafxcw:wincore.obj
 0001:000ec96d       ?HtmlHelpA@CWnd@@UAEXKI@Z  100ed96d f   nafxcw:wincore.obj
 0001:000ec9e1       ?OnChildNotify@CWnd@@MAEHIIJPAJ@Z 100ed9e1 f   nafxcw:wincore.obj
 0001:000eca2c       ?CreateAccessibleProxy@CWnd@@UAEJIJPAJ@Z 100eda2c f   nafxcw:wincore.obj
 0001:000ecaeb       ?GetMessageMap@CWnd@@MBEPBUAFX_MSGMAP@@XZ 100edaeb f   nafxcw:wincore.obj
 0001:000ecaf1       ?AfxRegisterClass@@YGHPAUtagWNDCLASSA@@@Z 100edaf1 f   nafxcw:wincore.obj
 0001:000ecb7f       ?_AfxRegisterWithIcon@@YGHPAUtagWNDCLASSA@@PBDI@Z 100edb7f f   nafxcw:wincore.obj
 0001:000ecbc0       ?AfxEndDeferRegisterClass@@YGHJ@Z 100edbc0 f   nafxcw:wincore.obj
 0001:000ece93       ?PreCreateWindow@CWnd@@UAEHAAUtagCREATESTRUCTA@@@Z 100ede93 f   nafxcw:wincore.obj
 0001:000eceb3       ?OnAmbientProperty@CWnd@@UAEHPAVCOleControlSite@@JPAUtagVARIANT@@@Z 100edeb3 f   nafxcw:winocc.obj
 0001:000ecebb       ?GetStyle@CWnd@@QBEKXZ     100edebb f   nafxcw:winocc.obj
 0001:000eced5       ?GetExStyle@CWnd@@QBEKXZ   100eded5 f   nafxcw:winocc.obj
 0001:000eceef       ?ShowWindow@CWnd@@QAEHH@Z  100edeef f   nafxcw:winocc.obj
 0001:000ecf10       ?IsWindowEnabled@CWnd@@QBEHXZ 100edf10 f   nafxcw:winocc.obj
 0001:000ecf2b       ?EnableWindow@CWnd@@QAEHH@Z 100edf2b f   nafxcw:winocc.obj
 0001:000ecf4c       ?SetWindowPos@CWnd@@QAEHPBV1@HHHHI@Z 100edf4c f   nafxcw:winocc.obj
 0001:000ecf88       ?AttachControlSite@CWnd@@IAEXPAVCHandleMap@@@Z 100edf88 f   nafxcw:winocc.obj
 0001:000ecfc9       ?AfxSetWindowText@@YGXPAUHWND__@@PBD@Z 100edfc9 f   nafxcw:winutil.obj
 0001:000ed05f       ?AfxDeleteObject@@YGXPAPAX@Z 100ee05f f   nafxcw:winutil.obj
 0001:000ed081       ?AfxGlobalFree@@YGXPAX@Z   100ee081 f   nafxcw:winutil.obj
 0001:000ed0b4       ?AfxCriticalNewHandler@@YAHI@Z 100ee0b4 f   nafxcw:winutil.obj
 0001:000ed101       ?_AfxChildWindowFromPoint@@YGPAUHWND__@@PAU1@UtagPOINT@@@Z 100ee101 f   nafxcw:winutil.obj
 0001:000ed173       ?GetAppRegistryKey@CWinApp@@QAEPAUHKEY__@@XZ 100ee173 f   nafxcw:appui3.obj
 0001:000ed204       ?GetSectionKey@CWinApp@@QAEPAUHKEY__@@PBD@Z 100ee204 f   nafxcw:appui3.obj
 0001:000ed24a       ?WriteProfileInt@CWinApp@@QAEHPBD0H@Z 100ee24a f   nafxcw:appui3.obj
 0001:000ed2d1       ?SetAttribDC@CDC@@UAEXPAUHDC__@@@Z 100ee2d1 f   nafxcw:wingdi.obj
 0001:000ed2db       ?SetOutputDC@CDC@@UAEXPAUHDC__@@@Z 100ee2db f   nafxcw:wingdi.obj
 0001:000ed2e5       ?ReleaseAttribDC@CDC@@UAEXXZ 100ee2e5 f   nafxcw:wingdi.obj
 0001:000ed2ea       ?ReleaseOutputDC@CDC@@UAEXXZ 100ee2ea f   nafxcw:wingdi.obj
 0001:000ed2ef       ?SaveDC@CDC@@UAEHXZ        100ee2ef f   nafxcw:wingdi.obj
 0001:000ed320       ?RestoreDC@CDC@@UAEHH@Z    100ee320 f   nafxcw:wingdi.obj
 0001:000ed35e       ?SetBkColor@CDC@@UAEKK@Z   100ee35e f   nafxcw:wingdi.obj
 0001:000ed38d       ?SetTextColor@CDC@@UAEKK@Z 100ee38d f   nafxcw:wingdi.obj
 0001:000ed3bc       ?SetMapMode@CDC@@UAEHH@Z   100ee3bc f   nafxcw:wingdi.obj
 0001:000ed3ea       ?GetClipBox@CDC@@UBEHPAUtagRECT@@@Z 100ee3ea f   nafxcw:wingdi.obj
 0001:000ed3fa       ?GetRuntimeClass@CResourceException@@UBEPAUCRuntimeClass@@XZ 100ee3fa f   nafxcw:wingdi.obj
 0001:000ed400       ?GetRuntimeClass@CUserException@@UBEPAUCRuntimeClass@@XZ 100ee400 f   nafxcw:wingdi.obj
 0001:000ed406       ?GetRuntimeClass@CDC@@UBEPAUCRuntimeClass@@XZ 100ee406 f   nafxcw:wingdi.obj
 0001:000ed40c       ?GetRuntimeClass@CGdiObject@@UBEPAUCRuntimeClass@@XZ 100ee40c f   nafxcw:wingdi.obj
 0001:000ed412       ?AfxThrowUserException@@YGXXZ 100ee412 f   nafxcw:wingdi.obj
 0001:000ed42c       ??0CDC@@QAE@XZ             100ee42c f   nafxcw:wingdi.obj
 0001:000ed440       ?PtVisible@CDC@@UBEHHH@Z   100ee440 f i nafxcw:wingdi.obj
 0001:000ed454       ?RectVisible@CDC@@UBEHPBUtagRECT@@@Z 100ee454 f i nafxcw:wingdi.obj
 0001:000ed464       ?TextOutA@CDC@@UAEHHHPBDH@Z 100ee464 f i nafxcw:wingdi.obj
 0001:000ed480       ?ExtTextOutA@CDC@@UAEHHHIPBUtagRECT@@PBDIPAH@Z 100ee480 f i nafxcw:wingdi.obj
 0001:000ed4a5       ?TabbedTextOutA@CDC@@UAE?AVCSize@@HHPBDHHPAHH@Z 100ee4a5 f i nafxcw:wingdi.obj
 0001:000ed4dd       ?DrawTextA@CDC@@UAEHPBDHPAUtagRECT@@I@Z 100ee4dd f i nafxcw:wingdi.obj
 0001:000ed4f9       ?DrawTextExA@CDC@@UAEHPADHPAUtagRECT@@IPAUtagDRAWTEXTPARAMS@@@Z 100ee4f9 f i nafxcw:wingdi.obj
 0001:000ed518       ?GrayStringA@CDC@@UAEHPAVCBrush@@P6GHPAUHDC__@@JH@ZJHHHHH@Z 100ee518 f i nafxcw:wingdi.obj
 0001:000ed548       ?Escape@CDC@@UAEHHHPBDPAX@Z 100ee548 f i nafxcw:wingdi.obj
 0001:000ed564       ?SetViewportOrg@CDC@@UAE?AVCPoint@@HH@Z 100ee564 f   nafxcw:wingdi.obj
 0001:000ed5a1       ?OffsetViewportOrg@CDC@@UAE?AVCPoint@@HH@Z 100ee5a1 f   nafxcw:wingdi.obj
 0001:000ed5de       ?SetViewportExt@CDC@@UAE?AVCSize@@HH@Z 100ee5de f   nafxcw:wingdi.obj
 0001:000ed61b       ?ScaleViewportExt@CDC@@UAE?AVCSize@@HHHH@Z 100ee61b f   nafxcw:wingdi.obj
 0001:000ed664       ?SetWindowExt@CDC@@UAE?AVCSize@@HH@Z 100ee664 f   nafxcw:wingdi.obj
 0001:000ed6a1       ?ScaleWindowExt@CDC@@UAE?AVCSize@@HHHH@Z 100ee6a1 f   nafxcw:wingdi.obj
 0001:000ed6ea       ?CreateObject@CDC@@SGPAVCObject@@XZ 100ee6ea f   nafxcw:wingdi.obj
 0001:000ed70b       ?CreateObject@CGdiObject@@SGPAVCObject@@XZ 100ee70b f   nafxcw:wingdi.obj
 0001:000ed725       ?Construct@?$ConstructDestruct@VCDC@@@@SGXPAVCObject@@@Z 100ee725 f i nafxcw:wingdi.obj
 0001:000ed741       ?Construct@?$ConstructDestruct@VCGdiObject@@@@SGXPAVCObject@@@Z 100ee741 f i nafxcw:wingdi.obj
 0001:000ed756       ??_GCResourceException@@UAEPAXI@Z 100ee756 f i nafxcw:wingdi.obj
 0001:000ed756       ??_ECResourceException@@UAEPAXI@Z 100ee756 f i nafxcw:wingdi.obj
 0001:000ed773       ??_GCUserException@@UAEPAXI@Z 100ee773 f i nafxcw:wingdi.obj
 0001:000ed773       ??_ECUserException@@UAEPAXI@Z 100ee773 f i nafxcw:wingdi.obj
 0001:000ed790       ?afxMapHDC@@YGPAVCHandleMap@@H@Z 100ee790 f   nafxcw:wingdi.obj
 0001:000ed804       ?FromHandle@CDC@@SGPAV1@PAUHDC__@@@Z 100ee804 f   nafxcw:wingdi.obj
 0001:000ed812       ?Detach@CDC@@QAEPAUHDC__@@XZ 100ee812 f   nafxcw:wingdi.obj
 0001:000ed843       ??1CDC@@UAE@XZ             100ee843 f   nafxcw:wingdi.obj
 0001:000ed85c       ?afxMapHGDIOBJ@@YGPAVCHandleMap@@H@Z 100ee85c f   nafxcw:wingdi.obj
 0001:000ed8d0       ?FromHandle@CGdiObject@@SGPAV1@PAX@Z 100ee8d0 f   nafxcw:wingdi.obj
 0001:000ed8de       ?Detach@CGdiObject@@QAEPAXXZ 100ee8de f   nafxcw:wingdi.obj
 0001:000ed908       ?DeleteObject@CGdiObject@@QAEHXZ 100ee908 f   nafxcw:wingdi.obj
 0001:000ed91e       ??_ECDC@@UAEPAXI@Z         100ee91e f i nafxcw:wingdi.obj
 0001:000ed91e       ??_GCDC@@UAEPAXI@Z         100ee91e f i nafxcw:wingdi.obj
 0001:000ed93a       ?SelectStockObject@CDC@@UAEPAVCGdiObject@@H@Z 100ee93a f   nafxcw:wingdi.obj
 0001:000ed976       ?SelectObject@CDC@@UAEPAVCFont@@PAV2@@Z 100ee976 f   nafxcw:wingdi.obj
 0001:000ed9bc       ??1CGdiObject@@UAE@XZ      100ee9bc f i nafxcw:wingdi.obj
 0001:000edaa4       ??_GCGdiObject@@UAEPAXI@Z  100eeaa4 f i nafxcw:wingdi.obj
 0001:000edaa4       ??_ECGdiObject@@UAEPAXI@Z  100eeaa4 f i nafxcw:wingdi.obj
 0001:000edac0       ?AfxOleCanExitApp@@YGHXZ   100eeac0 f   nafxcw:olelock.obj
 0001:000edad0       ?AfxOleLockApp@@YGXXZ      100eead0 f   nafxcw:olelock.obj
 0001:000edae0       ?AfxOleSetUserCtrl@@YGXH@Z 100eeae0 f   nafxcw:olelock.obj
 0001:000edaef       ?AfxOleGetUserCtrl@@YGHXZ  100eeaef f   nafxcw:olelock.obj
 0001:000edaf8       ?AfxOleOnReleaseAllObjects@@YGXXZ 100eeaf8 f   nafxcw:olelock.obj
 0001:000edb44       ?AfxOleUnlockApp@@YGXXZ    100eeb44 f   nafxcw:olelock.obj
 0001:000edb5d       ??0CFixedAllocNoSync@@QAE@II@Z 100eeb5d f   nafxcw:fixalloc.obj
 0001:000edb87       ?FreeAll@CFixedAllocNoSync@@QAEXXZ 100eeb87 f   nafxcw:fixalloc.obj
 0001:000edb9c       ??1CFixedAllocNoSync@@QAE@XZ 100eeb9c f   nafxcw:fixalloc.obj
 0001:000edba1       ?Alloc@CFixedAllocNoSync@@QAEPAXXZ 100eeba1 f   nafxcw:fixalloc.obj
 0001:000edbe1       ?GetRuntimeClass@CByteArray@@UBEPAUCRuntimeClass@@XZ 100eebe1 f   nafxcw:array_b.obj
 0001:000edbe7       ??0CByteArray@@QAE@XZ      100eebe7 f   nafxcw:array_b.obj
 0001:000edbfe       ??1CByteArray@@UAE@XZ      100eebfe f   nafxcw:array_b.obj
 0001:000edc0e       ?SetSize@CByteArray@@QAEXHH@Z 100eec0e f   nafxcw:array_b.obj
 0001:000edd1e       ?Serialize@CByteArray@@UAEXAAVCArchive@@@Z 100eed1e f   nafxcw:array_b.obj
 0001:000edd9b       ?CreateObject@CByteArray@@SGPAVCObject@@XZ 100eed9b f   nafxcw:array_b.obj
 0001:000eddb1       ??_ECByteArray@@UAEPAXI@Z  100eedb1 f i nafxcw:array_b.obj
 0001:000eddb1       ??_GCByteArray@@UAEPAXI@Z  100eedb1 f i nafxcw:array_b.obj
 0001:000eddcd       ?Create@CPlex@@SGPAU1@AAPAU1@II@Z 100eedcd f   nafxcw:plex.obj
 0001:000eddfe       ?FreeDataChain@CPlex@@QAEXXZ 100eedfe f   nafxcw:plex.obj
 0001:000ede14       ?GetRuntimeClass@CMenu@@UBEPAUCRuntimeClass@@XZ 100eee14 f   nafxcw:winmenu.obj
 0001:000ede1a       ?Destruct@?$ConstructDestruct@VCMenu@@@@SGXPAVCObject@@@Z 100eee1a f i nafxcw:winmenu.obj
 0001:000ede1a       ?Destruct@?$ConstructDestruct@VCDC@@@@SGXPAVCObject@@@Z 100eee1a f i nafxcw:wingdi.obj
 0001:000ede1a       ?Destruct@?$ConstructDestruct@VCWnd@@@@SGXPAVCObject@@@Z 100eee1a f i nafxcw:wincore.obj
 0001:000ede1a       ?Destruct@?$ConstructDestruct@VCGdiObject@@@@SGXPAVCObject@@@Z 100eee1a f i nafxcw:wingdi.obj
 0001:000ede28       ?CreateObject@CMenu@@SGPAVCObject@@XZ 100eee28 f   nafxcw:winmenu.obj
 0001:000ede42       ?Construct@?$ConstructDestruct@VCMenu@@@@SGXPAVCObject@@@Z 100eee42 f i nafxcw:winmenu.obj
 0001:000ede57       ?afxMapHMENU@@YGPAVCHandleMap@@H@Z 100eee57 f   nafxcw:winmenu.obj
 0001:000edecb       ?FromHandle@CMenu@@SGPAV1@PAUHMENU__@@@Z 100eeecb f   nafxcw:winmenu.obj
 0001:000eded9       ?FromHandlePermanent@CMenu@@SGPAV1@PAUHMENU__@@@Z 100eeed9 f   nafxcw:winmenu.obj
 0001:000edef3       ?Detach@CMenu@@QAEPAUHMENU__@@XZ 100eeef3 f   nafxcw:winmenu.obj
 0001:000edf1d       ?DestroyMenu@CMenu@@QAEHXZ 100eef1d f   nafxcw:winmenu.obj
 0001:000edf33       ??_GCMenu@@UAEPAXI@Z       100eef33 f i nafxcw:winmenu.obj
 0001:000edf33       ??_ECMenu@@UAEPAXI@Z       100eef33 f i nafxcw:winmenu.obj
 0001:000edf55       ?_AfxInitDBCS@@YGHXZ       100eef55 f   nafxcw:afxdbcs.obj
 0001:000edf8c       @__security_check_cookie@4 100eef8c f   libcmt:secchk.obj
 0001:000edf9b       ??0exception@std@@QAE@XZ   100eef9b f   libcmt:stdexcpt.obj
 0001:000edfac       ??0exception@std@@QAE@ABQBD@Z 100eefac f   libcmt:stdexcpt.obj
 0001:000edffa       ??0exception@std@@QAE@ABQBDH@Z 100eeffa f   libcmt:stdexcpt.obj
 0001:000ee012       ??0exception@std@@QAE@ABV01@@Z 100ef012 f   libcmt:stdexcpt.obj
 0001:000ee06a       ??1exception@std@@UAE@XZ   100ef06a f   libcmt:stdexcpt.obj
 0001:000ee080       ?what@exception@std@@UBEPBDXZ 100ef080 f   libcmt:stdexcpt.obj
 0001:000ee08d       ??0bad_cast@std@@QAE@PBD@Z 100ef08d f   libcmt:stdexcpt.obj
 0001:000ee0a6       ??0bad_cast@std@@QAE@ABV01@@Z 100ef0a6 f   libcmt:stdexcpt.obj
 0001:000ee0be       ??1bad_cast@std@@UAE@XZ    100ef0be f   libcmt:stdexcpt.obj
 0001:000ee0c9       ??_Gexception@std@@UAEPAXI@Z 100ef0c9 f i libcmt:stdexcpt.obj
 0001:000ee0c9       ??_Eexception@std@@UAEPAXI@Z 100ef0c9 f i libcmt:stdexcpt.obj
 0001:000ee0e5       ??_Ebad_cast@std@@UAEPAXI@Z 100ef0e5 f i libcmt:stdexcpt.obj
 0001:000ee0e5       ??_Gbad_cast@std@@UAEPAXI@Z 100ef0e5 f i libcmt:stdexcpt.obj
 0001:000ee107       ??0_LocaleUpdate@@QAE@PAUlocaleinfo_struct@@@Z 100ef107 f i libcmt:mbsupr.obj
 0001:000ee189       __mbsupr_s_l               100ef189 f   libcmt:mbsupr.obj
 0001:000ee28c       __mbsupr_s                 100ef28c f   libcmt:mbsupr.obj
 0001:000ee29f       ??1type_info@@UAE@XZ       100ef29f f   libcmt:typinfo.obj
 0001:000ee2ad       ??_Gtype_info@@UAEPAXI@Z   100ef2ad f i libcmt:typinfo.obj
 0001:000ee2ad       ??_Etype_info@@UAEPAXI@Z   100ef2ad f i libcmt:typinfo.obj
 0001:000ee2c9       ??8type_info@@QBE_NABV0@@Z 100ef2c9 f   libcmt:typinfo.obj
 0001:000ee2e4       __vscprintf_helper         100ef2e4 f   libcmt:vsprintf.obj
 0001:000ee339       __vscprintf                100ef339 f   libcmt:vsprintf.obj
 0001:000ee351       __vsnprintf_helper         100ef351 f   libcmt:vsnprnc.obj
 0001:000ee41b       __vsprintf_s_l             100ef41b f   libcmt:vsnprnc.obj
 0001:000ee4a1       _vsprintf_s                100ef4a1 f   libcmt:vsnprnc.obj
 0001:000ee4bc       __vsnprintf_s_l            100ef4bc f   libcmt:vsnprnc.obj
 0001:000ee5c1       __vsnprintf_s              100ef5c1 f   libcmt:vsnprnc.obj
 0001:000ee5df       _memcpy_s                  100ef5df f   libcmt:memcpy_s.obj
 0001:000ee65a       _memmove_s                 100ef65a f   libcmt:memmove_s.obj
 0001:000ee76e       ___onexitinit              100ef76e f   libcmt:onexit.obj
 0001:000ee79d       __onexit                   100ef79d f   libcmt:onexit.obj
 0001:000ee7d9       _atexit                    100ef7d9 f   libcmt:onexit.obj
 0001:000ee7eb       __initp_misc_invarg        100ef7eb f   libcmt:invarg.obj
 0001:000ee7f5       __invoke_watson            100ef7f5 f   libcmt:invarg.obj
 0001:000ee8f1       __invalid_parameter        100ef8f1 f   libcmt:invarg.obj
 0001:000ee915       __invalid_parameter_noinfo 100ef915 f   libcmt:invarg.obj
 0001:000ee925       __snprintf                 100ef925 f   libcmt:snprintf.obj
 0001:000ee9d2       _sprintf                   100ef9d2 f   libcmt:sprintf.obj
 0001:000eea4d       _sprintf_s                 100efa4d f   libcmt:sprintf.obj
 0001:000eea69       __snprintf_s               100efa69 f   libcmt:sprintf.obj
 0001:000eea88       __time64                   100efa88 f   libcmt:time64.obj
 0001:000eeac4       _realloc                   100efac4 f   libcmt:realloc.obj
 0001:000eecdf       __recalloc                 100efcdf f   libcmt:realloc.obj
 0001:000eed58       _V6_HeapAlloc              100efd58 f   libcmt:malloc.obj
 0001:000eeda7       _malloc                    100efda7 f   libcmt:malloc.obj
 0001:000eee6a       _free                      100efe6a f   libcmt:free.obj
 0001:000eeef8       __calloc_impl              100efef8 f   libcmt:calloc.obj
 0001:000ef016       _calloc                    100f0016 f   libcmt:calloc.obj
 0001:000ef055       __resetstkoflw             100f0055 f   libcmt:resetstk.obj
 0001:000ef190       _memchr                    100f0190 f   libcmt:memchr.obj
 0001:000ef240       _strcspn                   100f0240 f   libcmt:strcspn.obj
 0001:000ef286       _atol                      100f0286 f   libcmt:atox.obj
 0001:000ef297       _atoi                      100f0297 f   libcmt:atox.obj
 0001:000ef29c       _strcpy_s                  100f029c f   libcmt:strcpy_s.obj
 0001:000ef301       _localeconv                100f0301 f   libcmt:lconv.obj
 0001:000ef330       _strncpy                   100f0330 f   libcmt:strncpy.obj
 0001:000ef454       __purecall                 100f0454 f   libcmt:purevirt.obj
 0001:000ef47e       __freea                    100f047e f i libcmt:strftime.obj
 0001:000ef499       __Getdays_l                100f0499 f   libcmt:strftime.obj
 0001:000ef597       __Getdays                  100f0597 f   libcmt:strftime.obj
 0001:000ef5a0       __Getmonths_l              100f05a0 f   libcmt:strftime.obj
 0001:000ef69e       __Getmonths                100f069e f   libcmt:strftime.obj
 0001:000ef6a7       __Gettnames_l              100f06a7 f   libcmt:strftime.obj
 0001:000ef9fc       __Gettnames                100f09fc f   libcmt:strftime.obj
 0001:000f02e1       __Strftime_l               100f12e1 f   libcmt:strftime.obj
 0001:000f0490       _strftime                  100f1490 f   libcmt:strftime.obj
 0001:000f04ad       __Strftime                 100f14ad f   libcmt:strftime.obj
 0001:000f04cb       __localtime64_s            100f14cb f   libcmt:loctim64.obj
 0001:000f0790       __localtime64              100f1790 f   libcmt:loctim64.obj
 0001:000f07b4       __ismbcspace_l             100f17b4 f   libcmt:ismbspc.obj
 0001:000f0876       __ismbcspace               100f1876 f   libcmt:ismbspc.obj
 0001:000f0884       __mbsinc                   100f1884 f   libcmt:mbsinc.obj
 0001:000f08c5       __fwrite_nolock            100f18c5 f   libcmt:fwrite.obj
 0001:000f0a24       _fwrite                    100f1a24 f   libcmt:fwrite.obj
 0001:000f0aa6       __fclose_nolock            100f1aa6 f   libcmt:fclose.obj
 0001:000f0b18       _fclose                    100f1b18 f   libcmt:fclose.obj
 0001:000f0b94       _remove                    100f1b94 f   libcmt:unlink.obj
 0001:000f0bbe       __fread_nolock_s           100f1bbe f   libcmt:fread.obj
 0001:000f0dc4       _fread_s                   100f1dc4 f   libcmt:fread.obj
 0001:000f0e5a       _fread                     100f1e5a f   libcmt:fread.obj
 0001:000f0e75       __fsopen                   100f1e75 f   libcmt:fopen.obj
 0001:000f0f39       _fopen                     100f1f39 f   libcmt:fopen.obj
 0001:000f0f4c       __mbscmp_l                 100f1f4c f   libcmt:mbscmp.obj
 0001:000f1068       __mbscmp                   100f2068 f   libcmt:mbscmp.obj
 0001:000f107b       __mbsicmp_l                100f207b f   libcmt:mbsicmp.obj
 0001:000f1295       __mbsicmp                  100f2295 f   libcmt:mbsicmp.obj
 0001:000f12a8       ___time64_t_from_ft        100f22a8 f   libcmt:findfi32.obj
 0001:000f130e       __findfirst64i32           100f230e f   libcmt:findfi32.obj
 0001:000f143e       __findnext64i32            100f243e f   libcmt:findfi32.obj
 0001:000f156d       __findclose                100f256d f   libcmt:findfile.obj
 0001:000f158d       __validdrive               100f258d f   libcmt:getcwd.obj
 0001:000f15c4       __getdcwd_nolock           100f25c4 f   libcmt:getcwd.obj
 0001:000f16f9       __getcwd                   100f26f9 f   libcmt:getcwd.obj
 0001:000f1742       __access_s                 100f2742 f   libcmt:access.obj
 0001:000f17c9       _access                    100f27c9 f   libcmt:access.obj
 0001:000f17c9       __access                   100f27c9 f   libcmt:access.obj
 0001:000f17dd       __mbsrchr_l                100f27dd f   libcmt:mbsrchr.obj
 0001:000f189d       __mbsrchr                  100f289d f   libcmt:mbsrchr.obj
 0001:000f18b0       _setvbuf                   100f28b0 f   libcmt:setvbuf.obj
 0001:000f19ae       _fgetpos                   100f29ae f   libcmt:fgetpos.obj
 0001:000f1a19       __flush                    100f2a19 f   libcmt:fflush.obj
 0001:000f1a7b       __fflush_nolock            100f2a7b f   libcmt:fflush.obj
 0001:000f1b97       _fflush                    100f2b97 f   libcmt:fflush.obj
 0001:000f1bea       __flushall                 100f2bea f   libcmt:fflush.obj
 0001:000f1bf3       _fputc                     100f2bf3 f   libcmt:fputc.obj
 0001:000f1d32       __fseek_nolock             100f2d32 f   libcmt:fseek.obj
 0001:000f1db9       _fseek                     100f2db9 f   libcmt:fseek.obj
 0001:000f1e3e       _fsetpos                   100f2e3e f   libcmt:fsetpos.obj
 0001:000f1e80       __ungetc_nolock            100f2e80 f   libcmt:ungetc.obj
 0001:000f1f9e       _ungetc                    100f2f9e f   libcmt:ungetc.obj
 0001:000f2010       _fgetc                     100f3010 f   libcmt:fgetc.obj
 0001:000f2147       __isalpha_l                100f3147 f i libcmt:_ctype.obj
 0001:000f219b       _isalpha                   100f319b f i libcmt:_ctype.obj
 0001:000f21c6       __isupper_l                100f31c6 f i libcmt:_ctype.obj
 0001:000f2215       _isupper                   100f3215 f i libcmt:_ctype.obj
 0001:000f223e       __islower_l                100f323e f i libcmt:_ctype.obj
 0001:000f228d       _islower                   100f328d f i libcmt:_ctype.obj
 0001:000f22b6       __isdigit_l                100f32b6 f i libcmt:_ctype.obj
 0001:000f2305       _isdigit                   100f3305 f i libcmt:_ctype.obj
 0001:000f232e       __isxdigit_l               100f332e f i libcmt:_ctype.obj
 0001:000f2382       _isxdigit                  100f3382 f i libcmt:_ctype.obj
 0001:000f23ad       __isspace_l                100f33ad f i libcmt:_ctype.obj
 0001:000f23fc       _isspace                   100f33fc f i libcmt:_ctype.obj
 0001:000f2425       __isalnum_l                100f3425 f i libcmt:_ctype.obj
 0001:000f2479       _isalnum                   100f3479 f i libcmt:_ctype.obj
 0001:000f24a4       __isprint_l                100f34a4 f i libcmt:_ctype.obj
 0001:000f24f8       _isprint                   100f34f8 f i libcmt:_ctype.obj
 0001:000f2523       __isgraph_l                100f3523 f i libcmt:_ctype.obj
 0001:000f2577       _isgraph                   100f3577 f i libcmt:_ctype.obj
 0001:000f25a2       _srand                     100f35a2 f   libcmt:rand.obj
 0001:000f25af       _rand                      100f35af f   libcmt:rand.obj
 0001:000f25e0       _strstr                    100f35e0 f   libcmt:strstr.obj
 0001:000f2670       _memmove                   100f3670 f   libcmt:memmove.obj
 0001:000f29f0       _strchr                    100f39f0 f   libcmt:strchr.obj
 0001:000f29f6       ___from_strstr_to_strchr   100f39f6     libcmt:strchr.obj
 0001:000f2cd9       _strtol                    100f3cd9 f   libcmt:strtol.obj
 0001:000f2d02       _strtoul                   100f3d02 f   libcmt:strtol.obj
 0001:000f2d2c       __mbclen                   100f3d2c f   libcmt:mbclen.obj
 0001:000f2d4f       ??_L@YGXPAXIHP6EX0@Z1@Z    100f3d4f f   libcmt:ehvecctr.obj
 0001:000f2db4       ?__ArrayUnwind@@YGXPAXIHP6EX0@Z@Z 100f3db4 f   libcmt:ehvecdtr.obj
 0001:000f2e12       ??_M@YGXPAXIHP6EX0@Z@Z     100f3e12 f   libcmt:ehvecdtr.obj
 0001:000f2e75       __ftell_nolock             100f3e75 f   libcmt:ftell.obj
 0001:000f300d       _ftell                     100f400d f   libcmt:ftell.obj
 0001:000f307b       __mbsstr_l                 100f407b f   libcmt:mbsstr.obj
 0001:000f31ba       __mbsstr                   100f41ba f   libcmt:mbsstr.obj
 0001:000f31cd       __tolower_l                100f41cd f   libcmt:tolower.obj
 0001:000f32e4       _tolower                   100f42e4 f   libcmt:tolower.obj
 0001:000f330b       __toupper_l                100f430b f   libcmt:toupper.obj
 0001:000f3423       _toupper                   100f4423 f   libcmt:toupper.obj
 0001:000f34b2       _sscanf                    100f44b2 f   libcmt:sscanf.obj
 0001:000f34d1       _sscanf_s                  100f44d1 f   libcmt:sscanf.obj
 0001:000f37a3       __mktime64                 100f47a3 f   libcmt:mktime64.obj
 0001:000f37b0       _ceil                      100f47b0 f   libcmt:ceil_pentium4.obj
 0001:000f37f0       __ceil_pentium4            100f47f0 f   libcmt:ceil_pentium4.obj
 0001:000f38cd       _printf                    100f48cd f   libcmt:printf.obj
 0001:000f397c       __get_printf_count_output  100f497c f   libcmt:printf.obj
 0001:000f3992       __endthreadex              100f4992 f   libcmt:threadex.obj
 0001:000f3a8c       __beginthreadex            100f4a8c f   libcmt:threadex.obj
 0001:000f3c10       __stat64i32                100f4c10 f   libcmt:stati32.obj
 0001:000f3f42       __gmtime64_s               100f4f42 f   libcmt:gmtime64.obj
 0001:000f417e       __gmtime64                 100f517e f   libcmt:gmtime64.obj
 0001:000f41a2       __mbsnbcpy_s               100f51a2 f   libcmt:mbsnbcpy_s.obj
 0001:000f41bd       __mbsnbcpy_l               100f51bd f   libcmt:mbsnbcpy.obj
 0001:000f429e       __mbsnbcpy                 100f529e f   libcmt:mbsnbcpy.obj
 0001:000f42b5       __CRT_INIT@12              100f52b5 f   libcmt:dllcrt0.obj
 0001:000f4584       __DllMainCRTStartup@12     100f5584 f   libcmt:dllcrt0.obj
 0001:000f45b0       _memset                    100f55b0 f   libcmt:memset.obj
 0001:000f462a       __get_errno_from_oserr     100f562a f   libcmt:dosmap.obj
 0001:000f4665       __errno                    100f5665 f   libcmt:dosmap.obj
 0001:000f4678       ___doserrno                100f5678 f   libcmt:dosmap.obj
 0001:000f468b       __dosmaperr                100f568b f   libcmt:dosmap.obj
 0001:000f46a9       ___iob_func                100f56a9 f   libcmt:_file.obj
 0001:000f46af       ___initstdio               100f56af f   libcmt:_file.obj
 0001:000f4760       ___endstdio                100f5760 f   libcmt:_file.obj
 0001:000f4780       __lock_file                100f5780 f   libcmt:_file.obj
 0001:000f47bc       __lock_file2               100f57bc f   libcmt:_file.obj
 0001:000f47ea       __unlock_file              100f57ea f   libcmt:_file.obj
 0001:000f4820       __unlock_file2             100f5820 f   libcmt:_file.obj
 0001:000f4850       _memcpy                    100f5850 f   libcmt:memcpy.obj
 0001:000f4bb5       _strncmp                   100f5bb5 f   libcmt:strncmp.obj
 0001:000f4c80       _strpbrk                   100f5c80 f   libcmt:strpbrk.obj
 0001:000f4cc0       __alldvrm                  100f5cc0 f   libcmt:lldvrm.obj
 0001:000f4da0       __allmul                   100f5da0 f   libcmt:llmul.obj
 0001:000f4dd4       __cfltcvt_init             100f5dd4 f   libcmt:fpinit.obj
 0001:000f4e34       __fpmath                   100f5e34 f   libcmt:fpinit.obj
 0001:000f4e60       _strrchr                   100f5e60 f   libcmt:strrchr.obj
 0001:000f5121       __strtoi64                 100f6121 f   libcmt:strtoq.obj
 0001:000f514a       __strtoui64                100f614a f   libcmt:strtoq.obj
 0001:000f5174       _fgets                     100f6174 f   libcmt:fgets.obj
 0001:000f52fb       _fputs                     100f62fb f   libcmt:fputs.obj
 0001:000f5500       _qsort                     100f6500 f   libcmt:qsort.obj
 0001:000f57b0       __alldiv                   100f67b0 f   libcmt:lldiv.obj
 0001:000f585a       _strncpy_s                 100f685a f   libcmt:strncpy_s.obj
 0001:000f590d       _strcat_s                  100f690d f   libcmt:strcat_s.obj
 0001:000f5980       __aulldvrm                 100f6980 f   libcmt:ulldvrm.obj
 0001:000f5a15       __get_sys_err_msg          100f6a15 f i libcmt:strerror.obj
 0001:000f5a38       _strerror                  100f6a38 f   libcmt:strerror.obj
 0001:000f5a9f       ___sys_nerr                100f6a9f f   libcmt:syserr.obj
 0001:000f5aa5       ___sys_errlist             100f6aa5 f   libcmt:syserr.obj
 0001:000f5aab       __getpid                   100f6aab f   libcmt:getpid.obj
 0001:000f5ab1       __fstat64                  100f6ab1 f   libcmt:fstat64.obj
 0001:000f5e1e       __lseeki64_nolock          100f6e1e f   libcmt:lseeki64.obj
 0001:000f5ea1       __lseeki64                 100f6ea1 f   libcmt:lseeki64.obj
 0001:000f5fba       __getenv_helper_nolock     100f6fba f   libcmt:getenv.obj
 0001:000f603b       _getenv                    100f703b f   libcmt:getenv.obj
 0001:000f60c0       __allrem                   100f70c0 f   libcmt:llrem.obj
 0001:000f6180       __ftol2_sse                100f7180 f   libcmt:ftol2.obj
 0001:000f6189       __ftol2_pentium4           100f7189 f   libcmt:ftol2.obj
 0001:000f619c       __ftol2_sse_excpt          100f719c f   libcmt:ftol2.obj
 0001:000f61b6       __ftol2                    100f71b6 f   libcmt:ftol2.obj
 0001:000f622b       __stat64                   100f722b f   libcmt:stat64.obj
 0001:000f657a       _feof                      100f757a f   libcmt:feoferr.obj
 0001:000f65a9       _ferror                    100f75a9 f   libcmt:feoferr.obj
 0001:000f65e0       __alloca_probe             100f75e0     libcmt:chkstk.obj
 0001:000f65e0       __chkstk                   100f75e0 f   libcmt:chkstk.obj
 0001:000f660b       __mbschr_l                 100f760b f   libcmt:mbschr.obj
 0001:000f66c5       __mbschr                   100f76c5 f   libcmt:mbschr.obj
 0001:000f66e0       _strlen                    100f76e0 f   libcmt:strlen.obj
 0001:000f676b       __CxxThrowException@8      100f776b f   libcmt:throw.obj
 0001:000f67b5       ?_JumpToContinuation@@YGXPAXPAUEHRegistrationNode@@@Z 100f77b5 f   libcmt:trnsctrl.obj
 0001:000f67e5       ?_CallMemberFunction0@@YGXPAX0@Z 100f77e5 f   libcmt:trnsctrl.obj
 0001:000f67e5       ?_CallMemberFunction2@@YGXPAX00H@Z 100f77e5 f   libcmt:trnsctrl.obj
 0001:000f67e5       ?_CallMemberFunction1@@YGXPAX00@Z 100f77e5 f   libcmt:trnsctrl.obj
 0001:000f67ec       ?_UnwindNestedFrames@@YGXPAUEHRegistrationNode@@PAUEHExceptionRecord@@@Z 100f77ec f   libcmt:trnsctrl.obj
 0001:000f683e       ___CxxFrameHandler3        100f783e f   libcmt:trnsctrl.obj
 0001:000f68a4       ?_CallSETranslator@@YAHPAUEHExceptionRecord@@PAUEHRegistrationNode@@PAX2PBU_s_FuncInfo@@H1@Z 100f78a4 f   libcmt:trnsctrl.obj
 0001:000f6a16       ?_GetRangeOfTrysToCheck@@YAPBU_s_TryBlockMapEntry@@PBU_s_FuncInfo@@HHPAI1@Z 100f7a16 f   libcmt:trnsctrl.obj
 0001:000f6a89       __CreateFrameInfo          100f7a89 f   libcmt:trnsctrl.obj
 0001:000f6ab1       __IsExceptionObjectToBeDestroyed 100f7ab1 f   libcmt:trnsctrl.obj
 0001:000f6ad2       __FindAndUnlinkFrame       100f7ad2 f   libcmt:trnsctrl.obj
 0001:000f6b1e       ?_CallCatchBlock2@@YAPAXPAUEHRegistrationNode@@PBU_s_FuncInfo@@PAXHK@Z 100f7b1e f   libcmt:trnsctrl.obj
 0001:000f6b7c       __EH_prolog3               100f7b7c f   libcmt:ehprolg3.obj
 0001:000f6baf       __EH_prolog3_catch         100f7baf f   libcmt:ehprolg3.obj
 0001:000f6be5       __EH_prolog3_GS            100f7be5 f   libcmt:ehprolg3.obj
 0001:000f6c1b       __EH_epilog3               100f7c1b f   libcmt:ehprolg3.obj
 0001:000f6c2f       __EH_epilog3_GS            100f7c2f f   libcmt:ehprolg3.obj
 0001:000f6c3e       _wcslen                    100f7c3e f   libcmt:wcslen.obj
 0001:000f6c54       __SEH_prolog4_GS           100f7c54 f   libcmt:sehprolg4gs.obj
 0001:000f6c9c       __SEH_epilog4_GS           100f7c9c f   libcmt:sehprolg4gs.obj
 0001:000f6cb0       __except_handler4          100f7cb0 f   libcmt:chandler4.obj
 0001:000f6e50       __alloca_probe_16          100f7e50 f   libcmt:alloca16.obj
 0001:000f6e66       __alloca_probe_8           100f7e66     libcmt:alloca16.obj
 0001:000f6e7c       __mbsdec_l                 100f7e7c f   libcmt:mbsdec.obj
 0001:000f6f13       __mbsdec                   100f7f13 f   libcmt:mbsdec.obj
 0001:000f6f26       __splitpath_s              100f7f26 f   libcmt:splitpath_s.obj
 0001:000f7123       __makepath_s               100f8123 f   libcmt:makepath_s.obj
 0001:000f722a       __fullpath                 100f822a f   libcmt:fullpath.obj
 0001:000f7332       __mbspbrk_l                100f8332 f   libcmt:mbspbrk.obj
 0001:000f73fc       __mbspbrk                  100f83fc f   libcmt:mbspbrk.obj
 0001:000f7410       __SEH_prolog4              100f8410 f   libcmt:sehprolg4.obj
 0001:000f7455       __SEH_epilog4              100f8455 f   libcmt:sehprolg4.obj
 0001:000f7469       __set_osfhnd               100f8469 f   libcmt:osfinfo.obj
 0001:000f74e6       __free_osfhnd              100f84e6 f   libcmt:osfinfo.obj
 0001:000f7567       __get_osfhandle            100f8567 f   libcmt:osfinfo.obj
 0001:000f75d8       ___lock_fhandle            100f85d8 f   libcmt:osfinfo.obj
 0001:000f7678       __unlock_fhandle           100f8678 f   libcmt:osfinfo.obj
 0001:000f769a       __alloc_osfhnd             100f869a f   libcmt:osfinfo.obj
 0001:000f7839       __open_osfhandle           100f8839 f   libcmt:osfinfo.obj
 0001:000f794e       __fileno                   100f894e f   libcmt:fileno.obj
 0001:000f797b       __fdopen                   100f897b f   libcmt:fdopen.obj
 0001:000f7b01       _clearerr_s                100f8b01 f   libcmt:clearerr.obj
 0001:000f7bad       _memcmp                    100f8bad f   libcmt:memcmp.obj
 0001:000f922d       __amsg_exit                100fa22d f   libcmt:crt0dat.obj
 0001:000f9251       ___crtCorExitProcess       100fa251 f   libcmt:crt0dat.obj
 0001:000f9277       ___crtExitProcess          100fa277 f   libcmt:crt0dat.obj
 0001:000f928c       __lockexit                 100fa28c f   libcmt:crt0dat.obj
 0001:000f9295       __unlockexit               100fa295 f   libcmt:crt0dat.obj
 0001:000f92b6       __initterm_e               100fa2b6 f   libcmt:crt0dat.obj
 0001:000f92d6       __get_osplatform           100fa2d6 f   libcmt:crt0dat.obj
 0001:000f930d       __get_winmajor             100fa30d f   libcmt:crt0dat.obj
 0001:000f9349       __cinit                    100fa349 f   libcmt:crt0dat.obj
 0001:000f94bd       __exit                     100fa4bd f   libcmt:crt0dat.obj
 0001:000f94ce       __cexit                    100fa4ce f   libcmt:crt0dat.obj
 0001:000f94dd       __init_pointers            100fa4dd f   libcmt:crt0dat.obj
 0001:000f9529       _strdup                    100fa529 f   libcmt:strdup.obj
 0001:000f9529       __strdup                   100fa529 f   libcmt:strdup.obj
 0001:000f9579       __msize                    100fa579 f   libcmt:msize.obj
 0001:000f961c       __mbsspn_l                 100fa61c f   libcmt:mbsspn.obj
 0001:000f96e1       __mbsspn                   100fa6e1 f   libcmt:mbsspn.obj
 0001:000f96f4       __mbscspn_l                100fa6f4 f   libcmt:mbscspn.obj
 0001:000f97b9       __mbscspn                  100fa7b9 f   libcmt:mbscspn.obj
 0001:000f981d       __ismbblead_l              100fa81d f   libcmt:ismbbyte.obj
 0001:000f9832       __ismbblead                100fa832 f   libcmt:ismbbyte.obj
 0001:000f9845       __expand                   100fa845 f   libcmt:expand.obj
 0001:000f9943       ___report_gsfailure        100fa943 f   libcmt:gs_report.obj
 0001:000f9c55       ___updatetmbcinfo          100fac55 f   libcmt:mbctype.obj
 0001:000f9d73       __setmbcp_nolock           100fad73 f   libcmt:mbctype.obj
 0001:000f9f4c       __setmbcp                  100faf4c f   libcmt:mbctype.obj
 0001:000fa0e6       ___initmbctable            100fb0e6 f   libcmt:mbctype.obj
 0001:000fa104       ___freetlocinfo            100fb104 f   libcmt:setlocal.obj
 0001:000fa244       ___addlocaleref            100fb244 f   libcmt:setlocal.obj
 0001:000fa2ca       ___removelocaleref         100fb2ca f   libcmt:setlocal.obj
 0001:000fa3b8       ___updatetlocinfo          100fb3b8 f   libcmt:setlocal.obj
 0001:000fa481       __free_locale              100fb481 f   libcmt:setlocal.obj
 0001:000fa517       __strcats                  100fb517 f   libcmt:setlocal.obj
 0001:000fa555       ___lc_strtolc              100fb555 f   libcmt:setlocal.obj
 0001:000fa67e       ___lc_lctostr              100fb67e f   libcmt:setlocal.obj
 0001:000fa85a       __expandlocale             100fb85a f   libcmt:setlocal.obj
 0001:000faef2       __create_locale            100fbef2 f   libcmt:setlocal.obj
 0001:000fafe5       _setlocale                 100fbfe5 f   libcmt:setlocal.obj
 0001:000fb1c1       __encode_pointer           100fc1c1 f   libcmt:tidtable.obj
 0001:000fb22f       __encoded_null             100fc22f f   libcmt:tidtable.obj
 0001:000fb238       __decode_pointer           100fc238 f   libcmt:tidtable.obj
 0001:000fb2a6       ___crtTlsAlloc@4           100fc2a6 f   libcmt:tidtable.obj
 0001:000fb2af       ___fls_getvalue@4          100fc2af f   libcmt:tidtable.obj
 0001:000fb2c4       ___get_flsindex            100fc2c4 f   libcmt:tidtable.obj
 0001:000fb2ca       ___set_flsgetvalue         100fc2ca f   libcmt:tidtable.obj
 0001:000fb2fc       ___fls_setvalue@8          100fc2fc f   libcmt:tidtable.obj
 0001:000fb315       __mtterm                   100fc315 f   libcmt:tidtable.obj
 0001:000fb352       __initptd                  100fc352 f   libcmt:tidtable.obj
 0001:000fb411       __getptd_noexit            100fc411 f   libcmt:tidtable.obj
 0001:000fb488       __getptd                   100fc488 f   libcmt:tidtable.obj
 0001:000fb4a0       __freefls@4                100fc4a0 f   libcmt:tidtable.obj
 0001:000fb5c1       __freeptd                  100fc5c1 f   libcmt:tidtable.obj
 0001:000fb62a       __mtinit                   100fc62a f   libcmt:tidtable.obj
 0001:000fbb50       ___crtLCMapStringA         100fcb50 f   libcmt:a_map.obj
 0001:000fbb93       _strnlen                   100fcb93 f   libcmt:strlen_s.obj
 0001:000fbbad       ?_Type_info_dtor@type_info@@CAXPAV1@@Z 100fcbad f   libcmt:typname.obj
 0001:000fbc20       _strcmp                    100fcc20 f   libcmt:strcmp.obj
 0001:000fbca8       __flsbuf                   100fcca8 f   libcmt:_flsbuf.obj
 0001:000fbe5f       __output_l                 100fce5f f   libcmt:output.obj
 0001:000fc83d       __output_s_l               100fd83d f   libcmt:outputs.obj
 0001:000fd1ed       __malloc_crt               100fe1ed f   libcmt:crtheap.obj
 0001:000fd22d       __calloc_crt               100fe22d f   libcmt:crtheap.obj
 0001:000fd275       __realloc_crt              100fe275 f   libcmt:crtheap.obj
 0001:000fd2c0       __recalloc_crt             100fe2c0 f   libcmt:crtheap.obj
 0001:000fd310       __crt_debugger_hook        100fe310 f   libcmt:dbghook.obj
 0001:000fd320       __aulldiv                  100fe320 f   libcmt:ulldiv.obj
 0001:000fd388       __initp_heap_handler       100fe388 f   libcmt:handler.obj
 0001:000fd392       __callnewh                 100fe392 f   libcmt:handler.obj
 0001:000fd3b4       __mtinitlocks              100fe3b4 f   libcmt:mlock.obj
 0001:000fd3fd       __mtdeletelocks            100fe3fd f   libcmt:mlock.obj
 0001:000fd452       __unlock                   100fe452 f   libcmt:mlock.obj
 0001:000fd467       __mtinitlocknum            100fe467 f   libcmt:mlock.obj
 0001:000fd52a       __lock                     100fe52a f   libcmt:mlock.obj
 0001:000fd55b       ___heap_select             100fe55b f   libcmt:heapinit.obj
 0001:000fd5b6       __heap_init                100fe5b6 f   libcmt:heapinit.obj
 0001:000fd610       __heap_term                100fe610 f   libcmt:heapinit.obj
 0001:000fd684       ___sbh_heap_init           100fe684 f   libcmt:sbheap.obj
 0001:000fd6cc       ___sbh_find_block          100fe6cc f   libcmt:sbheap.obj
 0001:000fd6f7       ___sbh_free_block          100fe6f7 f   libcmt:sbheap.obj
 0001:000fda0b       ___sbh_alloc_new_region    100fea0b f   libcmt:sbheap.obj
 0001:000fdabb       ___sbh_alloc_new_group     100feabb f   libcmt:sbheap.obj
 0001:000fdbc1       ___sbh_resize_block        100febc1 f   libcmt:sbheap.obj
 0001:000fdea0       ___sbh_alloc_block         100feea0 f   libcmt:sbheap.obj
 0001:000fe183       __NMSG_WRITE               100ff183 f   libcmt:crt0msg.obj
 0001:000fe323       __FF_MSGBANNER             100ff323 f   libcmt:crt0msg.obj
 0001:000fe35c       _abort                     100ff35c f   libcmt:abort.obj
 0001:000fe44f       __set_abort_behavior       100ff44f f   libcmt:abort.obj
 0001:000fe46d       ___getlocaleinfo           100ff46d f   libcmt:inithelp.obj
 0001:000fe5c7       __initp_misc_purevirt      100ff5c7 f   libcmt:inithelp.obj
 0001:000fe5d1       __get_daylight             100ff5d1 f   libcmt:timeset.obj
 0001:000fe605       __get_dstbias              100ff605 f   libcmt:timeset.obj
 0001:000fe639       __get_timezone             100ff639 f   libcmt:timeset.obj
 0001:000fe66d       ___daylight                100ff66d f   libcmt:timeset.obj
 0001:000fe673       ___dstbias                 100ff673 f   libcmt:timeset.obj
 0001:000fe679       ___timezone                100ff679 f   libcmt:timeset.obj
 0001:000fe67f       ___tzname                  100ff67f f   libcmt:timeset.obj
 0001:000fed71       ___tzset                   100ffd71 f   libcmt:tzset.obj
 0001:000fedc0       __isindst                  100ffdc0 f   libcmt:tzset.obj
 0001:000fee01       ___ascii_stricmp           100ffe01 f   libcmt:stricmp.obj
 0001:000fee36       __stricmp_l                100ffe36 f   libcmt:stricmp.obj
 0001:000fef09       _stricmp                   100fff09 f   libcmt:stricmp.obj
 0001:000fef09       __stricmp                  100fff09 f   libcmt:stricmp.obj
 0001:000fef59       __isleadbyte_l             100fff59 f i libcmt:_wctype.obj
 0001:000fef8f       _isleadbyte                100fff8f f i libcmt:_wctype.obj
 0001:000fef9d       ___getgmtimebuf            100fff9d f   libcmt:gmtime.obj
 0001:000fefe5       __isctype_l                100fffe5 f   libcmt:isctype.obj
 0001:000ff253       ___crtGetStringTypeA       10100253 f   libcmt:a_str.obj
 0001:000ff293       __write_nolock             10100293 f   libcmt:write.obj
 0001:000ff859       _write                     10100859 f   libcmt:write.obj
 0001:000ff859       __write                    10100859 f   libcmt:write.obj
 0001:000ff935       __close_nolock             10100935 f   libcmt:close.obj
 0001:000ff9c9       __close                    101009c9 f   libcmt:close.obj
 0001:000ff9c9       _close                     101009c9 f   libcmt:close.obj
 0001:000ffa96       __freebuf                  10100a96 f   libcmt:_freebuf.obj
 0001:000ffac2       __filbuf                   10100ac2 f   libcmt:_filbuf.obj
 0001:000ffbe2       __read_nolock              10100be2 f   libcmt:read.obj
 0001:001001a3       _read                      101011a3 f   libcmt:read.obj
 0001:001001a3       __read                     101011a3 f   libcmt:read.obj
 0001:001002a0       __openfile                 101012a0 f   libcmt:_open.obj
 0001:00100540       __getstream                10101540 f   libcmt:stream.obj
 0001:00100670       __local_unwind4            10101670 f   libcmt:exsup4.obj
 0001:00100746       __seh_longjmp_unwind4@4    10101746 f   libcmt:exsup4.obj
 0001:00100762       @_EH4_CallFilterFunc@8     10101762 f   libcmt:exsup4.obj
 0001:00100779       @_EH4_TransferToHandler@8  10101779 f   libcmt:exsup4.obj
 0001:00100792       @_EH4_GlobalUnwind@4       10101792 f   libcmt:exsup4.obj
 0001:001007ac       @_EH4_LocalUnwind@16       101017ac f   libcmt:exsup4.obj
 0001:001007c3       ___loctotime64_t           101017c3 f   libcmt:dtoxtm64.obj
 0001:00100a2c       __getdrive                 10101a2c f   libcmt:drive.obj
 0001:00100af2       __ftelli64_nolock          10101af2 f   libcmt:ftelli64.obj
 0001:00100dce       __ftelli64                 10101dce f   libcmt:ftelli64.obj
 0001:00100e18       __commit                   10101e18 f   libcmt:commit.obj
 0001:00100ef9       __ioinit                   10101ef9 f   libcmt:ioinit.obj
 0001:00101139       __ioterm                   10102139 f   libcmt:ioinit.obj
 0001:00101185       __lseek_nolock             10102185 f   libcmt:lseek.obj
 0001:001011f7       __lseek                    101021f7 f   libcmt:lseek.obj
 0001:001012d3       __fseeki64_nolock          101022d3 f   libcmt:fseeki64.obj
 0001:0010136c       __fseeki64                 1010236c f   libcmt:fseeki64.obj
 0001:001013bb       __getbuf                   101023bb f   libcmt:_getbuf.obj
 0001:00101486       __VEC_memcpy               10102486 f   libcmt:p4_memcpy.obj
 0001:00101569       __sse2_mathfcns_init       10102569 f   libcmt:mathfcns.obj
 0001:0010157d       ?terminate@@YAXXZ          1010257d f   libcmt:hooks.obj
 0001:001015b6       ?unexpected@@YAXXZ         101025b6 f   libcmt:hooks.obj
 0001:001015c9       ?_inconsistency@@YAXXZ     101025c9 f   libcmt:hooks.obj
 0001:00101600       __initp_eh_hooks           10102600 f   libcmt:hooks.obj
 0001:00101611       __input_l                  10102611 f   libcmt:input.obj
 0001:001022ed       __input_s_l                101032ed f   libcmt:inputs.obj
 0001:00103018       ___libm_error_support      10104018 f   libcmt:libm_error.obj
 0001:001032c8       __ceil_default             101042c8 f   libcmt:ceil.obj
 0001:00103399       __stbuf                    10104399 f   libcmt:_sftbuf.obj
 0001:0010342f       __ftbuf                    1010442f f   libcmt:_sftbuf.obj
 0001:0010345e       __fltin2                   1010445e f   libcmt:cfin.obj
 0001:00103503       ___strgtold12_l            10104503 f   libcmt:strgtold.obj
 0001:00103bd0       __ValidateImageBase        10104bd0 f   libcmt:pesect.obj
 0001:00103c00       __FindPESection            10104c00 f   libcmt:pesect.obj
 0001:00103c50       __IsNonwritableInCurrentImage 10104c50 f   libcmt:pesect.obj
 0001:00103d0b       __XcptFilter               10104d0b f   libcmt:winxfltr.obj
 0001:00103e69       ___CppXcptFilter           10104e69 f   libcmt:winxfltr.obj
 0001:00103e84       ___dtoxmode                10104e84 f   libcmt:stat.obj
 0001:00103f3d       __mbctolower_l             10104f3d f   libcmt:mbtolwr.obj
 0001:00103fe1       __mbctolower               10104fe1 f   libcmt:mbtolwr.obj
 0001:00103fef       __mbsnbcpy_s_l             10104fef f   libcmt:mbsnbcpy_s_l.obj
 0001:001041fc       __setenvp                  101051fc f   libcmt:stdenvp.obj
 0001:0010446f       __setargv                  1010546f f   libcmt:stdargv.obj
 0001:00104528       ___crtGetEnvironmentStringsA 10105528 f   libcmt:a_env.obj
 0001:0010465d       __RTC_Initialize           1010565d f   libcmt:initsect.obj
 0001:00104681       __RTC_Terminate            10105681 f   libcmt:initsect.obj
 0001:001046a5       ___security_init_cookie    101056a5 f   libcmt:gs_support.obj
 0001:00104790       __VEC_memzero              10105790 f   libcmt:p4_memset.obj
 0001:0010481f       __fcloseall                1010581f f   libcmt:closeall.obj
 0001:001048be       __forcdecpt_l              101058be f   libcmt:cvt.obj
 0001:0010492f       __cropzeros_l              1010592f f   libcmt:cvt.obj
 0001:001049af       __positive                 101059af f   libcmt:cvt.obj
 0001:001049c5       __fassign_l                101059c5 f   libcmt:cvt.obj
 0001:00104a05       __fassign                  10105a05 f   libcmt:cvt.obj
 0001:00104a39       __forcdecpt                10105a39 f   libcmt:cvt.obj
 0001:00104a47       __cropzeros                10105a47 f   libcmt:cvt.obj
 0001:00104bc2       __cftoe_l                  10105bc2 f   libcmt:cvt.obj
 0001:00104c90       __cftoe                    10105c90 f   libcmt:cvt.obj
 0001:00104cae       __cftoa_l                  10105cae f   libcmt:cvt.obj
 0001:00105114       __cftof_l                  10106114 f   libcmt:cvt.obj
 0001:001051cd       __cftog_l                  101061cd f   libcmt:cvt.obj
 0001:001052c5       __cfltcvt_l                101062c5 f   libcmt:cvt.obj
 0001:0010534b       __cfltcvt                  1010634b f   libcmt:cvt.obj
 0001:0010536c       __initp_misc_cfltcvt_tab   1010636c f   libcmt:cmiscdat.obj
 0001:0010538b       __setdefaultprecision      1010638b f   libcmt:fp8.obj
 0001:001053b4       __ms_p5_test_fdiv          101063b4 f   libcmt:testfdiv.obj
 0001:001053f0       __ms_p5_mp_test_fdiv       101063f0 f   libcmt:testfdiv.obj
 0001:00105419       __mbsnbicoll_l             10106419 f   libcmt:mbsnbico.obj
 0001:00105505       __mbsnbicoll               10106505 f   libcmt:mbsnbico.obj
 0001:0010551c       ___wtomb_environ           1010651c f   libcmt:wtombenv.obj
 0001:001055b1       ??1bad_exception@std@@UAE@XZ 101065b1 f i libcmt:frame.obj
 0001:001055bc       ??_Gbad_exception@std@@UAEPAXI@Z 101065bc f i libcmt:frame.obj
 0001:001055bc       ??_Ebad_exception@std@@UAEPAXI@Z 101065bc f i libcmt:frame.obj
 0001:001055de       ___TypeMatch               101065de f   libcmt:frame.obj
 0001:0010563a       ___FrameUnwindFilter       1010663a f   libcmt:frame.obj
 0001:0010567e       ___FrameUnwindToState      1010667e f   libcmt:frame.obj
 0001:001057a4       ___DestructExceptionObject 101067a4 f   libcmt:frame.obj
 0001:001057f8       ___AdjustPointer           101067f8 f   libcmt:frame.obj
 0001:0010581d       ?__uncaught_exception@@YA_NXZ 1010681d f   libcmt:frame.obj
 0001:00105a8e       ___BuildCatchObjectHelper  10106a8e f   libcmt:frame.obj
 0001:00105c0d       ___BuildCatchObject        10106c0d f   libcmt:frame.obj
 0001:00106152       ??0bad_exception@std@@QAE@ABV01@@Z 10107152 f i libcmt:frame.obj
 0001:0010616a       ___InternalCxxFrameHandler 1010716a f   libcmt:frame.obj
 0001:00106250       __CallSettingFrame@12      10107250 f   libcmt:lowhelpr.obj
 0001:00106277       __NLG_Return               10107277     libcmt:lowhelpr.obj
 0001:0010629c       __initp_misc_initcrit      1010729c f   libcmt:initcrit.obj
 0001:001062b6       ___crtInitCritSecAndSpinCount 101072b6 f   libcmt:initcrit.obj
 0001:0010637b       __initp_misc_winsig        1010737b f   libcmt:winsig.obj
 0001:001063c8       ___get_sigabrt             101073c8 f   libcmt:winsig.obj
 0001:001063d5       _raise                     101073d5 f   libcmt:winsig.obj
 0001:00106585       __initp_misc_rand_s        10107585 f   libcmt:rand_s.obj
 0001:00106590       _strspn                    10107590 f   libcmt:strspn.obj
 0001:001065d6       ___pctype_func             101075d6 f   libcmt:ctype.obj
 0001:00106a18       ___free_lc_time            10107a18 f   libcmt:inittime.obj
 0001:00106ba8       ___init_time               10107ba8 f   libcmt:inittime.obj
 0001:00106c1b       ___free_lconv_num          10107c1b f   libcmt:initnum.obj
 0001:00106c5b       ___init_numeric            10107c5b f   libcmt:initnum.obj
 0001:00106e23       ___free_lconv_mon          10107e23 f   libcmt:initmon.obj
 0001:00106eac       ___init_monetary           10107eac f   libcmt:initmon.obj
 0001:00107170       ___init_ctype              10108170 f   libcmt:initctyp.obj
 0001:00107505       ____mb_cur_max_func        10108505 f   libcmt:initctyp.obj
 0001:0010752e       ____mb_cur_max_l_func      1010852e f   libcmt:initctyp.obj
 0001:00107544       ____lc_codepage_func       10108544 f   libcmt:initctyp.obj
 0001:0010756a       ____lc_collate_cp_func     1010856a f   libcmt:initctyp.obj
 0001:00107590       ____lc_handle_func         10108590 f   libcmt:initctyp.obj
 0001:00107b30       ___get_qualified_locale    10108b30 f   libcmt:getqloc.obj
 0001:00107d13       ___ansicp                  10108d13 f   libcmt:convrtcp.obj
 0001:00107d5a       ___convertcp               10108d5a f   libcmt:convrtcp.obj
 0001:00107f0c       __isatty                   10108f0c f   libcmt:isatty.obj
 0001:00107f6a       __wctomb_s_l               10108f6a f   libcmt:wctomb.obj
 0001:001080c9       _wctomb_s                  101090c9 f   libcmt:wctomb.obj
 0001:001080e4       ___crtMessageBoxA          101090e4 f   libcmt:crtmbox.obj
 0001:001082a1       __set_error_mode           101092a1 f   libcmt:errmode.obj
 0001:00108422       ___crtGetLocaleInfoW       10109422 f   libcmt:w_loc.obj
 0001:0010859a       ___crtGetLocaleInfoA       1010959a f   libcmt:a_loc.obj
 0001:001085d5       __iswctype_l               101095d5 f   libcmt:iswctype.obj
 0001:00108657       __putwch_nolock            10109657 f   libcmt:putwch.obj
 0001:00108719       __mbtowc_l                 10109719 f   libcmt:mbtowc.obj
 0001:0010882c       _mbtowc                    1010982c f   libcmt:mbtowc.obj
 0001:00108f9c       __open                     10109f9c f   libcmt:open.obj
 0001:00108f9c       _open                      10109f9c f   libcmt:open.obj
 0001:00109052       __sopen_helper             1010a052 f   libcmt:open.obj
 0001:0010911e       __sopen_s                  1010a11e f   libcmt:open.obj
 0001:0010913c       __mbsnbcmp_l               1010a13c f   libcmt:mbsnbcmp.obj
 0001:001092a5       __mbsnbcmp                 1010a2a5 f   libcmt:mbsnbcmp.obj
 0001:001092bc       __global_unwind2           1010a2bc f   libcmt:exsup.obj
 0001:00109321       __local_unwind2            1010a321 f   libcmt:exsup.obj
 0001:001093a5       __abnormal_termination     1010a3a5 f   libcmt:exsup.obj
 0001:001093c8       __NLG_Notify1              1010a3c8 f   libcmt:exsup.obj
 0001:001093d1       __NLG_Notify               1010a3d1 f   libcmt:exsup.obj
 0001:001093e8       __NLG_Dispatch2            1010a3e8     libcmt:exsup.obj
 0001:001093e8       __NLG_Dispatch             1010a3e8     libcmt:exsup.obj
 0001:001093f0       __NLG_Call                 1010a3f0 f   libcmt:exsup.obj
 0001:001093f2       __NLG_Return2              1010a3f2     libcmt:exsup.obj
 0001:00109443       __get_sse2_info            1010a443 f   libcmt:cpu_disp.obj
 0001:001094a3       ___sse2_available_init     1010a4a3 f   libcmt:cpu_disp.obj
 0001:001094b0       __raise_exc_ex             1010a4b0 f   libcmt:fpexcept.obj
 0001:0010978a       __handle_exc               1010a78a f   libcmt:fpexcept.obj
 0001:0010996b       __set_errno_from_matherr   1010a96b f   libcmt:fpexcept.obj
 0001:00109993       __errcode                  1010a993 f   libcmt:fpexcept.obj
 0001:001099c0       __umatherr                 1010a9c0 f   libcmt:fpexcept.obj
 0001:00109a5e       __handle_qnan1             1010aa5e f   libcmt:fpexcept.obj
 0001:00109ab1       __except1                  1010aab1 f   libcmt:fpexcept.obj
 0001:00109b6b       __frnd                     1010ab6b f   libcmt:frnd.obj
 0001:00109b7c       __set_exp                  1010ab7c f   libcmt:util.obj
 0001:00109ba6       __sptype                   1010aba6 f   libcmt:util.obj
 0001:00109c01       __decomp                   1010ac01 f   libcmt:util.obj
 0001:00109cb0       __statfp                   1010acb0 f   libcmt:fpctrl.obj
 0001:00109cbb       __clrfp                    1010acbb f   libcmt:fpctrl.obj
 0001:00109cc7       __ctrlfp                   1010acc7 f   libcmt:fpctrl.obj
 0001:00109cee       __set_statfp               1010acee f   libcmt:fpctrl.obj
 0001:00109d44       ___set_fpsr_sse2           1010ad44 f   libcmt:fpctrl.obj
 0001:00109db6       __ld12tod                  1010adb6 f   libcmt:intrncvt.obj
 0001:0010a2f8       __ld12tof                  1010b2f8 f   libcmt:intrncvt.obj
 0001:0010a83a       ___mtold12                 1010b83a f   libcmt:mantold.obj
 0001:0010aa06       __atodbl_l                 1010ba06 f   libcmt:atodbl.obj
 0001:0010aaac       __atoflt_l                 1010baac f   libcmt:atodbl.obj
 0001:0010ab52       __fptostr                  1010bb52 f   libcmt:_fptostr.obj
 0001:0010ac0f       ___dtold                   1010bc0f f   libcmt:cfout.obj
 0001:0010acca       __fltout2                  1010bcca f   libcmt:cfout.obj
 0001:0010ad60       __aullshr                  1010bd60 f   libcmt:ullshr.obj
 0001:0010ad7f       __fptrap                   1010bd7f f   libcmt:crt0fp.obj
 0001:0010ad88       __controlfp_s              1010bd88 f   libcmt:contrlfp.obj
 0001:0010b17b       ___crtCompareStringA       1010c17b f   libcmt:a_cmp.obj
 0001:0010b1bb       __strnicoll_l              1010c1bb f   libcmt:strnicol.obj
 0001:0010b35d       ___crtsetenv               1010c35d f   libcmt:setenv.obj
 0001:0010b5a9       ?_ValidateRead@@YAHPBXI@Z  1010c5a9 f   libcmt:validate.obj
 0001:0010b5a9       ?_ValidateWrite@@YAHPAXI@Z 1010c5a9 f   libcmt:validate.obj
 0001:0010b5a9       ?_ValidateExecute@@YAHP6GHXZ@Z 1010c5a9 f   libcmt:validate.obj
 0001:0010b5b6       __strnicmp_l               1010c5b6 f   libcmt:strnicmp.obj
 0001:0010b6a6       __strnicmp                 1010c6a6 f   libcmt:strnicmp.obj
 0001:0010b7dd       __itoa_s                   1010c7dd f   libcmt:xtoas.obj
 0001:0010b8fb       __ui64toa_s                1010c8fb f   libcmt:xtoas.obj
 0001:0010bb3c       ___crtGetStringTypeW       1010cb3c f   libcmt:w_str.obj
 0001:0010bb7a       ___initconout              1010cb7a f   libcmt:initcon.obj
 0001:0010bb99       ___termcon                 1010cb99 f   libcmt:initcon.obj
 0001:0010bbc6       __chsize_nolock            1010cbc6 f   libcmt:chsize.obj
 0001:0010bd7a       __setmode_nolock           1010cd7a f   libcmt:setmode.obj
 0001:0010be36       __get_fmode                1010ce36 f   libcmt:setmode.obj
 0001:0010be6a       _$I10_OUTPUT               1010ce6a f   libcmt:x10fout.obj
 0001:0010c85e       __control87                1010d85e f i libcmt:ieee87.obj
 0001:0010cb70       ___ascii_strnicmp          1010db70 f   libcmt:_strnicm.obj
 0001:0010cbd2       _RtlUnwind@16              1010dbd2 f   kernel32:KERNEL32.dll
 0001:0010cbd8       _ClosePrinter@4            1010dbd8 f   winspool:WINSPOOL.DRV
 0001:0010cbde       _DocumentPropertiesA@24    1010dbde f   winspool:WINSPOOL.DRV
 0001:0010cbe4       _OpenPrinterA@12           1010dbe4 f   winspool:WINSPOOL.DRV
 0001:0010cbea       ?_Xlen@_String_base@std@@SAXXZ 1010dbea f   libcpmt:string.obj
 0001:0010cc29       ?_Xran@_String_base@std@@SAXXZ 1010dc29 f   libcpmt:string.obj
 0001:0010cc68       ??0_Mutex@std@@QAE@XZ      1010dc68 f   libcpmt:xmutex.obj
 0001:0010cc80       ??1_Mutex@std@@QAE@XZ      1010dc80 f   libcpmt:xmutex.obj
 0001:0010cc95       ?_Lock@_Mutex@std@@QAEXXZ  1010dc95 f   libcpmt:xmutex.obj
 0001:0010cc9e       ?_Unlock@_Mutex@std@@QAEXXZ 1010dc9e f   libcpmt:xmutex.obj
 0001:0010cca7       ?uncaught_exception@std@@YA_NXZ 1010dca7 f   libcpmt:uncaught.obj
 0001:0010ccac       ??1_Fac_node@std@@QAE@XZ   1010dcac f i libcpmt:locale0.obj
 0001:0010ccc1       __Deletegloballocale       1010dcc1 f   libcpmt:locale0.obj
 0001:0010cd07       ?_Getgloballocale@locale@std@@CAPAV_Locimp@12@XZ 1010dd07 f   libcpmt:locale0.obj
 0001:0010cd0d       ?_Setgloballocale@locale@std@@CAXPAX@Z 1010dd0d f   libcpmt:locale0.obj
 0001:0010cd32       ?_Locimp_dtor@_Locimp@locale@std@@CAXPAV123@@Z 1010dd32 f   libcpmt:locale0.obj
 0001:0010cd92       __Fac_tidy                 1010dd92 f   libcpmt:locale0.obj
 0001:0010cdd5       ?facet_Register@facet@locale@std@@CAXPAV123@@Z 1010ddd5 f   libcpmt:locale0.obj
 0001:0010ce0e       ?_Locinfo_dtor@_Locinfo@std@@SAXPAV12@@Z 1010de0e f   libcpmt:locale0.obj
 0001:0010ce31       ?_Init@locale@std@@CAPAV_Locimp@12@XZ 1010de31 f   libcpmt:locale0.obj
 0001:0010cecb       ?_Locinfo_ctor@_Locinfo@std@@SAXPAV12@PBD@Z 1010decb f   libcpmt:locale0.obj
 0001:0010cf15       ?classic@locale@std@@SAABV12@XZ 1010df15 f   libcpmt:locale0.obj
 0001:0010cf20       __Toupper                  1010df20 f   libcpmt:_toupper.obj
 0001:0010d034       ??0bad_alloc@std@@QAE@XZ   1010e034 f i libcpmt:locale.obj
 0001:0010d04d       ??0?$ctype@D@std@@QAE@ABV_Locinfo@1@I@Z 1010e04d f i libcpmt:locale.obj
 0001:0010d06c       ?_Locimp_Addfac@_Locimp@locale@std@@CAXPAV123@PAVfacet@23@I@Z 1010e06c f   libcpmt:locale.obj
 0001:0010d151       ??0?$num_get@DV?$istreambuf_iterator@DU?$char_traits@D@std@@@std@@@std@@QAE@ABV_Locinfo@1@I@Z 1010e151 f i libcpmt:locale.obj
 0001:0010d172       ??0?$num_put@DV?$ostreambuf_iterator@DU?$char_traits@D@std@@@std@@@std@@QAE@ABV_Locinfo@1@I@Z 1010e172 f i libcpmt:locale.obj
 0001:0010d193       ?global@locale@std@@SA?AV12@ABV12@@Z 1010e193 f   libcpmt:locale.obj
 0001:0010d25c       ??0?$numpunct@D@std@@QAE@ABV_Locinfo@1@I@Z 1010e25c f i libcpmt:locale.obj
 0001:0010d28f       ??$_Getloctxt@DV?$istreambuf_iterator@DU?$char_traits@D@std@@@std@@@std@@YAHAAV?$istreambuf_iterator@DU?$char_traits@D@std@@@0@0IPBD@Z 1010e28f f i libcpmt:locale.obj
 0001:0010d3df       ?_Locinfo_Addcats@_Locinfo@std@@SAAAV12@PAV12@HPBD@Z 1010e3df f   libcpmt:locale.obj
 0001:0010d464       ??0?$num_get@DV?$istreambuf_iterator@DU?$char_traits@D@std@@@std@@@std@@QAE@I@Z 1010e464 f i libcpmt:locale.obj
 0001:0010d4b8       ?_Locinfo_ctor@_Locinfo@std@@SAXPAV12@HPBD@Z 1010e4b8 f   libcpmt:locale.obj
 0001:0010d4ed       ?_Getcat@?$num_get@DV?$istreambuf_iterator@DU?$char_traits@D@std@@@std@@@std@@SAIPAPBVfacet@locale@2@@Z 1010e4ed f i libcpmt:locale.obj
 0001:0010d530       ??$use_facet@V?$num_get@DV?$istreambuf_iterator@DU?$char_traits@D@std@@@std@@@std@@@std@@YAABV?$num_get@DV?$istreambuf_iterator@DU?$char_traits@D@std@@@std@@@0@ABVlocale@0@@Z 1010e530 f i libcpmt:locale.obj
 0001:0010d5c9       ?_Makeloc@_Locimp@locale@std@@CAPAV123@ABV_Locinfo@3@HPAV123@PBV23@@Z 1010e5c9 f   libcpmt:locale.obj
 0001:0010d82c       ?_Locimp_ctor@_Locimp@locale@std@@CAXPAV123@ABV123@@Z 1010e82c f   libcpmt:locale.obj
 0001:0010d945       ?_Getifld@?$num_get@DV?$istreambuf_iterator@DU?$char_traits@D@std@@@std@@@std@@ABAHPADAAV?$istreambuf_iterator@DU?$char_traits@D@std@@@2@1HABVlocale@2@@Z 1010e945 f i libcpmt:locale.obj
 0001:0010dc08       ?_Getffld@?$num_get@DV?$istreambuf_iterator@DU?$char_traits@D@std@@@std@@@std@@ABAHPADAAV?$istreambuf_iterator@DU?$char_traits@D@std@@@2@1ABVlocale@2@@Z 1010ec08 f i libcpmt:locale.obj
 0001:0010e057       ?do_get@?$num_get@DV?$istreambuf_iterator@DU?$char_traits@D@std@@@std@@@std@@MBE?AV?$istreambuf_iterator@DU?$char_traits@D@std@@@2@V32@0AAVios_base@2@AAHAA_N@Z 1010f057 f i libcpmt:locale.obj
 0001:0010e1f1       ?do_get@?$num_get@DV?$istreambuf_iterator@DU?$char_traits@D@std@@@std@@@std@@MBE?AV?$istreambuf_iterator@DU?$char_traits@D@std@@@2@V32@0AAVios_base@2@AAHAAG@Z 1010f1f1 f i libcpmt:locale.obj
 0001:0010e2bd       ?do_get@?$num_get@DV?$istreambuf_iterator@DU?$char_traits@D@std@@@std@@@std@@MBE?AV?$istreambuf_iterator@DU?$char_traits@D@std@@@2@V32@0AAVios_base@2@AAHAAI@Z 1010f2bd f i libcpmt:locale.obj
 0001:0010e385       ?do_get@?$num_get@DV?$istreambuf_iterator@DU?$char_traits@D@std@@@std@@@std@@MBE?AV?$istreambuf_iterator@DU?$char_traits@D@std@@@2@V32@0AAVios_base@2@AAHAAJ@Z 1010f385 f i libcpmt:locale.obj
 0001:0010e430       ?do_get@?$num_get@DV?$istreambuf_iterator@DU?$char_traits@D@std@@@std@@@std@@MBE?AV?$istreambuf_iterator@DU?$char_traits@D@std@@@2@V32@0AAVios_base@2@AAHAAK@Z 1010f430 f i libcpmt:locale.obj
 0001:0010e4db       ?do_get@?$num_get@DV?$istreambuf_iterator@DU?$char_traits@D@std@@@std@@@std@@MBE?AV?$istreambuf_iterator@DU?$char_traits@D@std@@@2@V32@0AAVios_base@2@AAHAA_J@Z 1010f4db f i libcpmt:locale.obj
 0001:0010e57e       ?do_get@?$num_get@DV?$istreambuf_iterator@DU?$char_traits@D@std@@@std@@@std@@MBE?AV?$istreambuf_iterator@DU?$char_traits@D@std@@@2@V32@0AAVios_base@2@AAHAA_K@Z 1010f57e f i libcpmt:locale.obj
 0001:0010e621       ?do_get@?$num_get@DV?$istreambuf_iterator@DU?$char_traits@D@std@@@std@@@std@@MBE?AV?$istreambuf_iterator@DU?$char_traits@D@std@@@2@V32@0AAVios_base@2@AAHAAM@Z 1010f621 f i libcpmt:locale.obj
 0001:0010e6c6       ?do_get@?$num_get@DV?$istreambuf_iterator@DU?$char_traits@D@std@@@std@@@std@@MBE?AV?$istreambuf_iterator@DU?$char_traits@D@std@@@2@V32@0AAVios_base@2@AAHAAN@Z 1010f6c6 f i libcpmt:locale.obj
 0001:0010e76b       ?do_get@?$num_get@DV?$istreambuf_iterator@DU?$char_traits@D@std@@@std@@@std@@MBE?AV?$istreambuf_iterator@DU?$char_traits@D@std@@@2@V32@0AAVios_base@2@AAHAAO@Z 1010f76b f i libcpmt:locale.obj
 0001:0010e810       ?do_get@?$num_get@DV?$istreambuf_iterator@DU?$char_traits@D@std@@@std@@@std@@MBE?AV?$istreambuf_iterator@DU?$char_traits@D@std@@@2@V32@0AAVios_base@2@AAHAAPAX@Z 1010f810 f i libcpmt:locale.obj
 0001:0010e8c7       ?_Tidy@ios_base@std@@AAAXXZ 1010f8c7 f i libcpmt:ios.obj
 0001:0010e90d       ?_Ios_base_dtor@ios_base@std@@CAXPAV12@@Z 1010f90d f   libcpmt:ios.obj
 0001:0010e94b       __Wcrtomb                  1010f94b f   libcpmt:xwctomb.obj
 0001:0010e9cc       __Getcvt                   1010f9cc f   libcpmt:xwctomb.obj
 0001:0010e9e0       __Tolower                  1010f9e0 f   libcpmt:_tolower.obj
 0001:0010eaef       __Getctype                 1010faef f   libcpmt:_tolower.obj
 0001:0010eb4a       ??0_Init_locks@std@@QAE@XZ 1010fb4a f   libcpmt:xlock.obj
 0001:0010eb79       ??1_Init_locks@std@@QAE@XZ 1010fb79 f   libcpmt:xlock.obj
 0001:0010eba2       ??0_Lockit@std@@QAE@H@Z    1010fba2 f   libcpmt:xlock.obj
 0001:0010ebc3       ??1_Lockit@std@@QAE@XZ     1010fbc3 f   libcpmt:xlock.obj
 0001:0010ebd5       ?_Xfsopen@std@@YAPAU_iobuf@@PB_W0H@Z 1010fbd5 f   libcpmt:fiopen.obj
 0001:0010ec8a       ?_Fiopen@std@@YAPAU_iobuf@@PB_WHH@Z 1010fc8a f   libcpmt:fiopen.obj
 0001:0010ed3f       ?_Fiopen@std@@YAPAU_iobuf@@PBDHH@Z 1010fd3f f   libcpmt:fiopen.obj
 0001:0010ed9a       __Mtxinit                  1010fd9a f   libcpmt:xmtx.obj
 0001:0010eda5       __Mtxdst                   1010fda5 f   libcpmt:xmtx.obj
 0001:0010edb0       __Mtxlock                  1010fdb0 f   libcpmt:xmtx.obj
 0001:0010edbb       __Mtxunlock                1010fdbb f   libcpmt:xmtx.obj
 0001:0010edc6       ?_Atexit@@YAXP6AXXZ@Z      1010fdc6 f   libcpmt:iosptrs.obj
 0001:0010ede6       ??1_Init_atexit@@QAE@XZ    1010fde6 f i libcpmt:iosptrs.obj
 0001:0010ee0b       ?_Gettnames@_Locinfo@std@@QBE?AV_Timevec@2@XZ 1010fe0b f i libcpmt:wlocale.obj
 0001:0010ee23       ??$_Maklocchr@G@std@@YAGDPAGABU_Cvtvec@@@Z 1010fe23 f i libcpmt:wlocale.obj
 0001:0010ee23       ??$_Maklocchr@_W@std@@YA_WDPA_WABU_Cvtvec@@@Z 1010fe23 f i libcpmt:wlocale.obj
 0001:0010ee4f       ??$_Maklocstr@_W@std@@YAPA_WPBDPA_WABU_Cvtvec@@@Z 1010fe4f f i libcpmt:wlocale.obj
 0001:0010ee4f       ??$_Maklocstr@G@std@@YAPAGPBDPAGABU_Cvtvec@@@Z 1010fe4f f i libcpmt:wlocale.obj
 0001:0010eee9       ?_Init@?$ctype@_W@std@@IAEXABV_Locinfo@2@@Z 1010fee9 f i libcpmt:wlocale.obj
 0001:0010eee9       ?_Init@?$ctype@G@std@@IAEXABV_Locinfo@2@@Z 1010fee9 f i libcpmt:wlocale.obj
 0001:0010ef1b       ??1time_base@std@@UAE@XZ   1010ff1b f i libcpmt:wlocale.obj
 0001:0010ef1b       ??1messages_base@std@@UAE@XZ 1010ff1b f i libcpmt:wlocale.obj
 0001:0010ef1b       ??1money_base@std@@UAE@XZ  1010ff1b f i libcpmt:wlocale.obj
 0001:0010ef22       ?_Tidy@?$numpunct@G@std@@AAEXXZ 1010ff22 f i libcpmt:wlocale.obj
 0001:0010ef22       ?_Tidy@?$numpunct@_W@std@@AAEXXZ 1010ff22 f i libcpmt:wlocale.obj
 0001:0010ef42       ?_Tidy@?$time_get@DV?$istreambuf_iterator@DU?$char_traits@D@std@@@std@@@std@@AAEXXZ 1010ff42 f i libcpmt:xlocale.obj
 0001:0010ef42       ?_Tidy@?$time_get@_WV?$istreambuf_iterator@_WU?$char_traits@_W@std@@@std@@@std@@AAEXXZ 1010ff42 f i libcpmt:wlocale.obj
 0001:0010ef42       ?_Tidy@?$time_get@GV?$istreambuf_iterator@GU?$char_traits@G@std@@@std@@@std@@AAEXXZ 1010ff42 f i libcpmt:wlocale.obj
 0001:0010ef59       ?_Makpat@?$_Mpunct@_W@std@@AAEXAAUpattern@money_base@2@III@Z 1010ff59 f i libcpmt:wlocale.obj
 0001:0010ef59       ?_Makpat@?$_Mpunct@G@std@@AAEXAAUpattern@money_base@2@III@Z 1010ff59 f i libcpmt:wlocale.obj
 0001:0010ef59       ?_Makpat@?$_Mpunct@D@std@@AAEXAAUpattern@money_base@2@III@Z 1010ff59 f i libcpmt:xlocale.obj
 0001:0010efa3       ??0?$codecvt@_WDH@std@@QAE@ABV_Locinfo@1@I@Z 1010ffa3 f i libcpmt:wlocale.obj
 0001:0010efc4       ?do_in@?$codecvt@_WDH@std@@MBEHAAHPBD1AAPBDPA_W3AAPA_W@Z 1010ffc4 f i libcpmt:wlocale.obj
 0001:0010efc4       ?do_in@?$codecvt@GDH@std@@MBEHAAHPBD1AAPBDPAG3AAPAG@Z 1010ffc4 f i libcpmt:wlocale.obj
 0001:0010f058       __matherr                  10110058 f i libcmt:matherr.obj
 0001:0010f058       ?InitInstance@CWinThread@@UAEHXZ 10110058 f i nafxcw:thrdcore.obj
 0001:0010f058       ?GetTypeLibCache@CCmdTarget@@UAEPAVCTypeLibCache@@XZ 10110058 f i nafxcw:cmdtarg.obj
 0001:0010f058       ?GetOccDialogInfo@CWnd@@MAEPAU_AFX_OCC_DIALOG_INFO@@XZ 10110058 f i nafxcw:wincore.obj
 0001:0010f058       ?IsFrameWnd@CWnd@@UBEHXZ   10110058 f i nafxcw:wincore.obj
 0001:0010f058       ?do_encoding@?$codecvt@GDH@std@@MBEHXZ 10110058 f i libcpmt:wlocale.obj
 0001:0010f058       ?do_encoding@?$codecvt@_WDH@std@@MBEHXZ 10110058 f i libcpmt:wlocale.obj
 0001:0010f058       ___init_collate            10110058 f i libcmt:initcoll.obj
 0001:0010f058       ?GetTypeInfoCount@CCmdTarget@@UAEIXZ 10110058 f i nafxcw:cmdtarg.obj
 0001:0010f058       ___init_dummy              10110058 f i libcmt:setlocal.obj
 0001:0010f05b       ??0?$codecvt@GDH@std@@QAE@ABV_Locinfo@1@I@Z 1011005b f i libcpmt:wlocale.obj
 0001:0010f07c       ?do_out@?$codecvt@_WDH@std@@MBEHAAHPB_W1AAPB_WPAD3AAPAD@Z 1011007c f i libcpmt:wlocale.obj
 0001:0010f07c       ?do_out@?$codecvt@GDH@std@@MBEHAAHPBG1AAPBGPAD3AAPAD@Z 1011007c f i libcpmt:wlocale.obj
 0001:0010f16e       ?do_unshift@?$codecvt@GDH@std@@MBEHAAHPAD1AAPAD@Z 1011016e f i libcpmt:wlocale.obj
 0001:0010f16e       ?do_unshift@?$codecvt@_WDH@std@@MBEHAAHPAD1AAPAD@Z 1011016e f i libcpmt:wlocale.obj
 0001:0010f202       ?do_length@?$codecvt@GDH@std@@MBEHABHPBD1I@Z 10110202 f i libcpmt:wlocale.obj
 0001:0010f202       ?do_length@?$codecvt@_WDH@std@@MBEHABHPBD1I@Z 10110202 f i libcpmt:wlocale.obj
 0001:0010f271       ?do_always_noconv@?$codecvt@_WDH@std@@MBE_NXZ 10110271 f i libcpmt:wlocale.obj
 0001:0010f271       ?do_always_noconv@?$codecvt@GDH@std@@MBE_NXZ 10110271 f i libcpmt:wlocale.obj
 0001:0010f274       ?do_max_length@?$codecvt@_WDH@std@@MBEHXZ 10110274 f i libcpmt:wlocale.obj
 0001:0010f274       ?do_max_length@?$codecvt@GDH@std@@MBEHXZ 10110274 f i libcpmt:wlocale.obj
 0001:0010f278       ??0?$ctype@_W@std@@QAE@ABV_Locinfo@1@I@Z 10110278 f i libcpmt:wlocale.obj
 0001:0010f297       ??1?$ctype@_W@std@@MAE@XZ  10110297 f i libcpmt:wlocale.obj
 0001:0010f2b7       ?do_tolower@?$ctype@_W@std@@MBE_W_W@Z 101102b7 f i libcpmt:wlocale.obj
 0001:0010f2b7       ?do_tolower@?$ctype@G@std@@MBEGG@Z 101102b7 f i libcpmt:wlocale.obj
 0001:0010f2c9       ?do_tolower@?$ctype@_W@std@@MBEPB_WPA_WPB_W@Z 101102c9 f i libcpmt:wlocale.obj
 0001:0010f2c9       ?do_tolower@?$ctype@G@std@@MBEPBGPAGPBG@Z 101102c9 f i libcpmt:wlocale.obj
 0001:0010f2f6       ?_Do_widen_s@?$ctype@_W@std@@MBEPBDPBD0PA_WI@Z 101102f6 f i libcpmt:wlocale.obj
 0001:0010f2f6       ?_Do_widen_s@?$ctype@G@std@@MBEPBDPBD0PAGI@Z 101102f6 f i libcpmt:wlocale.obj
 0001:0010f337       ?_Donarrow@?$ctype@G@std@@IBEDGD@Z 10110337 f i libcpmt:wlocale.obj
 0001:0010f337       ?_Donarrow@?$ctype@_W@std@@IBED_WD@Z 10110337 f i libcpmt:wlocale.obj
 0001:0010f37d       ?do_narrow@?$ctype@_W@std@@MBED_WD@Z 1011037d f i libcpmt:wlocale.obj
 0001:0010f37d       ?do_narrow@?$ctype@G@std@@MBEDGD@Z 1011037d f i libcpmt:wlocale.obj
 0001:0010f382       ?do_narrow@?$ctype@_W@std@@MBEPB_WPB_W0DPAD@Z 10110382 f i libcpmt:wlocale.obj
 0001:0010f382       ?do_narrow@?$ctype@G@std@@MBEPBGPBG0DPAD@Z 10110382 f i libcpmt:wlocale.obj
 0001:0010f3a3       ?_Do_narrow_s@?$ctype@G@std@@MBEPBGPBG0DPADI@Z 101103a3 f i libcpmt:wlocale.obj
 0001:0010f3a3       ?_Do_narrow_s@?$ctype@_W@std@@MBEPB_WPB_W0DPADI@Z 101103a3 f i libcpmt:wlocale.obj
 0001:0010f3e8       ??_E?$ctype@_W@std@@MAEPAXI@Z 101103e8 f i libcpmt:wlocale.obj
 0001:0010f3e8       ??_G?$ctype@_W@std@@MAEPAXI@Z 101103e8 f i libcpmt:wlocale.obj
 0001:0010f404       ??0?$ctype@G@std@@QAE@ABV_Locinfo@1@I@Z 10110404 f i libcpmt:wlocale.obj
 0001:0010f423       ??1?$ctype@G@std@@MAE@XZ   10110423 f i libcpmt:wlocale.obj
 0001:0010f443       ?do_is@?$ctype@G@std@@MBE_NFG@Z 10110443 f i libcpmt:wlocale.obj
 0001:0010f443       ?do_is@?$ctype@_W@std@@MBE_NF_W@Z 10110443 f i libcpmt:wlocale.obj
 0001:0010f461       ?do_is@?$ctype@_W@std@@MBEPB_WPB_W0PAF@Z 10110461 f i libcpmt:wlocale.obj
 0001:0010f461       ?do_is@?$ctype@G@std@@MBEPBGPBG0PAF@Z 10110461 f i libcpmt:wlocale.obj
 0001:0010f47c       ?do_scan_is@?$ctype@_W@std@@MBEPB_WFPB_W0@Z 1011047c f i libcpmt:wlocale.obj
 0001:0010f47c       ?do_scan_is@?$ctype@G@std@@MBEPBGFPBG0@Z 1011047c f i libcpmt:wlocale.obj
 0001:0010f4a8       ?do_scan_not@?$ctype@G@std@@MBEPBGFPBG0@Z 101104a8 f i libcpmt:wlocale.obj
 0001:0010f4a8       ?do_scan_not@?$ctype@_W@std@@MBEPB_WFPB_W0@Z 101104a8 f i libcpmt:wlocale.obj
 0001:0010f4d4       ?do_toupper@?$ctype@G@std@@MBEGG@Z 101104d4 f i libcpmt:wlocale.obj
 0001:0010f4d4       ?do_toupper@?$ctype@_W@std@@MBE_W_W@Z 101104d4 f i libcpmt:wlocale.obj
 0001:0010f4e6       ?do_toupper@?$ctype@_W@std@@MBEPB_WPA_WPB_W@Z 101104e6 f i libcpmt:wlocale.obj
 0001:0010f4e6       ?do_toupper@?$ctype@G@std@@MBEPBGPAGPBG@Z 101104e6 f i libcpmt:wlocale.obj
 0001:0010f513       ?_Dowiden@?$ctype@_W@std@@IBE_WD@Z 10110513 f i libcpmt:wlocale.obj
 0001:0010f513       ?_Dowiden@?$ctype@G@std@@IBEGD@Z 10110513 f i libcpmt:wlocale.obj
 0001:0010f547       ?do_widen@?$ctype@G@std@@MBEGD@Z 10110547 f i libcpmt:wlocale.obj
 0001:0010f547       ?do_widen@?$ctype@_W@std@@MBE_WD@Z 10110547 f i libcpmt:wlocale.obj
 0001:0010f54c       ?do_widen@?$ctype@_W@std@@MBEPBDPBD0PA_W@Z 1011054c f i libcpmt:wlocale.obj
 0001:0010f54c       ?do_widen@?$ctype@G@std@@MBEPBDPBD0PAG@Z 1011054c f i libcpmt:wlocale.obj
 0001:0010f568       ??_E?$ctype@G@std@@MAEPAXI@Z 10110568 f i libcpmt:wlocale.obj
 0001:0010f568       ??_G?$ctype@G@std@@MAEPAXI@Z 10110568 f i libcpmt:wlocale.obj
 0001:0010f584       ??0?$time_put@_WV?$ostreambuf_iterator@_WU?$char_traits@_W@std@@@std@@@std@@QAE@ABV_Locinfo@1@I@Z 10110584 f i libcpmt:wlocale.obj
 0001:0010f5a7       ??1?$time_put@_WV?$ostreambuf_iterator@_WU?$char_traits@_W@std@@@std@@@std@@MAE@XZ 101105a7 f i libcpmt:wlocale.obj
 0001:0010f5c1       ??_E?$time_put@_WV?$ostreambuf_iterator@_WU?$char_traits@_W@std@@@std@@@std@@MAEPAXI@Z 101105c1 f i libcpmt:wlocale.obj
 0001:0010f5c1       ??_G?$time_put@_WV?$ostreambuf_iterator@_WU?$char_traits@_W@std@@@std@@@std@@MAEPAXI@Z 101105c1 f i libcpmt:wlocale.obj
 0001:0010f5dd       ??0?$num_get@_WV?$istreambuf_iterator@_WU?$char_traits@_W@std@@@std@@@std@@QAE@ABV_Locinfo@1@I@Z 101105dd f i libcpmt:wlocale.obj
 0001:0010f5fe       _wmemset                   101105fe f i libcpmt:wlocale.obj
 0001:0010f629       ?sgetc@?$basic_streambuf@_WU?$char_traits@_W@std@@@std@@QAEGXZ 10110629 f i libcpmt:wlocale.obj
 0001:0010f629       ?sgetc@?$basic_streambuf@GU?$char_traits@G@std@@@std@@QAEGXZ 10110629 f i libcpmt:wlocale.obj
 0001:0010f64d       ??0?$num_put@_WV?$ostreambuf_iterator@_WU?$char_traits@_W@std@@@std@@@std@@QAE@ABV_Locinfo@1@I@Z 1011064d f i libcpmt:wlocale.obj
 0001:0010f66e       ?_Ffmt@?$num_put@GV?$ostreambuf_iterator@GU?$char_traits@G@std@@@std@@@std@@ABAPADPADDH@Z 1011066e f i libcpmt:wlocale.obj
 0001:0010f66e       ?_Ffmt@?$num_put@_WV?$ostreambuf_iterator@_WU?$char_traits@_W@std@@@std@@@std@@ABAPADPADDH@Z 1011066e f i libcpmt:wlocale.obj
 0001:0010f6c9       ??0?$collate@_W@std@@QAE@ABV_Locinfo@1@I@Z 101106c9 f i libcpmt:wlocale.obj
 0001:0010f6ea       ?do_compare@?$collate@_W@std@@MBEHPB_W000@Z 101106ea f i libcpmt:wlocale.obj
 0001:0010f709       ??D?$_String_const_iterator@_WU?$char_traits@_W@std@@V?$allocator@_W@2@@std@@QBEAB_WXZ 10110709 f i libcpmt:wlocale.obj
 0001:0010f709       ??D?$_String_const_iterator@GU?$char_traits@G@std@@V?$allocator@G@2@@std@@QBEABGXZ 10110709 f i libcpmt:wlocale.obj
 0001:0010f741       ??0?$_String_const_iterator@GU?$char_traits@G@std@@V?$allocator@G@2@@std@@QAE@PBGPBU_Container_base@1@@Z 10110741 f i libcpmt:wlocale.obj
 0001:0010f741       ??0?$_String_const_iterator@_WU?$char_traits@_W@std@@V?$allocator@_W@2@@std@@QAE@PB_WPBU_Container_base@1@@Z 10110741 f i libcpmt:wlocale.obj
 0001:0010f791       ??0?$money_get@_WV?$istreambuf_iterator@_WU?$char_traits@_W@std@@@std@@@std@@QAE@ABV_Locinfo@1@I@Z 10110791 f i libcpmt:wlocale.obj
 0001:0010f7b2       ??E?$_String_const_iterator@GU?$char_traits@G@std@@V?$allocator@G@2@@std@@QAEAAV01@XZ 101107b2 f i libcpmt:wlocale.obj
 0001:0010f7b2       ??E?$_String_const_iterator@_WU?$char_traits@_W@std@@V?$allocator@_W@2@@std@@QAEAAV01@XZ 101107b2 f i libcpmt:wlocale.obj
 0001:0010f7ed       ??8?$_String_const_iterator@GU?$char_traits@G@std@@V?$allocator@G@2@@std@@QBE_NABV01@@Z 101107ed f i libcpmt:wlocale.obj
 0001:0010f7ed       ??8?$_String_const_iterator@_WU?$char_traits@_W@std@@V?$allocator@_W@2@@std@@QBE_NABV01@@Z 101107ed f i libcpmt:wlocale.obj
 0001:0010f7ed       ??8?$_String_const_iterator@DU?$char_traits@D@std@@V?$allocator@D@2@@std@@QBE_NABV01@@Z 101107ed f i libcpmt:xlocale.obj
 0001:0010f819       ??0?$money_put@_WV?$ostreambuf_iterator@_WU?$char_traits@_W@std@@@std@@@std@@QAE@ABV_Locinfo@1@I@Z 10110819 f i libcpmt:wlocale.obj
 0001:0010f83a       ??Y?$_String_const_iterator@_WU?$char_traits@_W@std@@V?$allocator@_W@2@@std@@QAEAAV01@H@Z 1011083a f i libcpmt:wlocale.obj
 0001:0010f83a       ??Y?$_String_const_iterator@GU?$char_traits@G@std@@V?$allocator@G@2@@std@@QAEAAV01@H@Z 1011083a f i libcpmt:wlocale.obj
 0001:0010f898       ??1?$_Mpunct@_W@std@@MAE@XZ 10110898 f i libcpmt:wlocale.obj
 0001:0010f8ae       ?do_decimal_point@?$_Mpunct@_W@std@@MBE_WXZ 101108ae f i libcpmt:wlocale.obj
 0001:0010f8ae       ?do_decimal_point@?$numpunct@G@std@@MBEGXZ 101108ae f i libcpmt:wlocale.obj
 0001:0010f8ae       ?do_decimal_point@?$_Mpunct@G@std@@MBEGXZ 101108ae f i libcpmt:wlocale.obj
 0001:0010f8ae       ?do_decimal_point@?$numpunct@_W@std@@MBE_WXZ 101108ae f i libcpmt:wlocale.obj
 0001:0010f8b3       ??0?$num_get@GV?$istreambuf_iterator@GU?$char_traits@G@std@@@std@@@std@@QAE@ABV_Locinfo@1@I@Z 101108b3 f i libcpmt:wlocale.obj
 0001:0010f8d4       ?_Copy_s@?$char_traits@G@std@@SAPAGPAGIPBGI@Z 101108d4 f i libcpmt:wlocale.obj
 0001:0010f8f0       ??$_Maklocbyte@_W@std@@YAD_WABU_Cvtvec@@@Z 101108f0 f i libcpmt:wlocale.obj
 0001:0010f8f0       ??$_Maklocbyte@G@std@@YADGABU_Cvtvec@@@Z 101108f0 f i libcpmt:wlocale.obj
 0001:0010f918       ??_G?$collate@_W@std@@MAEPAXI@Z 10110918 f i libcpmt:wlocale.obj
 0001:0010f918       ??_E?$messages@_W@std@@MAEPAXI@Z 10110918 f i libcpmt:wlocale.obj
 0001:0010f918       ??_G?$money_get@DV?$istreambuf_iterator@DU?$char_traits@D@std@@@std@@@std@@MAEPAXI@Z 10110918 f i libcpmt:xlocale.obj
 0001:0010f918       ??_G?$money_put@DV?$ostreambuf_iterator@DU?$char_traits@D@std@@@std@@@std@@MAEPAXI@Z 10110918 f i libcpmt:xlocale.obj
 0001:0010f918       ??_G?$money_put@GV?$ostreambuf_iterator@GU?$char_traits@G@std@@@std@@@std@@MAEPAXI@Z 10110918 f i libcpmt:wlocale.obj
 0001:0010f918       ??_E?$messages@D@std@@MAEPAXI@Z 10110918 f i libcpmt:xlocale.obj
 0001:0010f918       ??_E?$collate@D@std@@MAEPAXI@Z 10110918 f i libcpmt:xlocale.obj
 0001:0010f918       ??_E?$money_put@_WV?$ostreambuf_iterator@_WU?$char_traits@_W@std@@@std@@@std@@MAEPAXI@Z 10110918 f i libcpmt:wlocale.obj
 0001:0010f918       ??_G?$money_get@_WV?$istreambuf_iterator@_WU?$char_traits@_W@std@@@std@@@std@@MAEPAXI@Z 10110918 f i libcpmt:wlocale.obj
 0001:0010f918       ??_G?$num_get@_WV?$istreambuf_iterator@_WU?$char_traits@_W@std@@@std@@@std@@MAEPAXI@Z 10110918 f i libcpmt:wlocale.obj
 0001:0010f918       ??_G?$num_get@GV?$istreambuf_iterator@GU?$char_traits@G@std@@@std@@@std@@MAEPAXI@Z 10110918 f i libcpmt:wlocale.obj
 0001:0010f918       ??_E?$money_get@_WV?$istreambuf_iterator@_WU?$char_traits@_W@std@@@std@@@std@@MAEPAXI@Z 10110918 f i libcpmt:wlocale.obj
