 TWSDNetPay

 Timestamp is 61433087 (Thu Sep 16 19:54:47 2021)

 Preferred load address is 10000000

 Start         Length     Name                   Class
 0001:00000000 0003e44eH .text                   CODE
 0001:0003e450 00002738H .text$x                 CODE
 0001:00040b90 0000038eH .text$yc                CODE
 0001:00040f20 0000016eH .text$yd                CODE
 0002:00000000 0000039cH .idata$5                DATA
 0002:0000039c 00000004H .CRT$XCA                DATA
 0002:000003a0 00000018H .CRT$XCC                DATA
 0002:000003b8 0000000cH .CRT$XCL                DATA
 0002:000003c4 00000048H .CRT$XCU                DATA
 0002:0000040c 00000004H .CRT$XCZ                DATA
 0002:00000410 00000004H .CRT$XIA                DATA
 0002:00000414 00000014H .CRT$XIC                DATA
 0002:00000428 00000004H .CRT$XID                DATA
 0002:0000042c 00000004H .CRT$XIZ                DATA
 0002:00000430 00000004H .CRT$XPA                DATA
 0002:00000434 00000004H .CRT$XPX                DATA
 0002:00000438 00000004H .CRT$XPXA               DATA
 0002:0000043c 00000004H .CRT$XPZ                DATA
 0002:00000440 00000004H .CRT$XTA                DATA
 0002:00000444 00000004H .CRT$XTZ                DATA
 0002:00000450 000045c8H .rdata                  DATA
 0002:00004a18 0000005fH .rdata$debug            DATA
 0002:00004a78 000017c8H .rdata$r                DATA
 0002:00006240 000002a0H .rdata$sxdata           DATA
 0002:000064e0 00000004H .rtc$IAA                DATA
 0002:000064e4 00000004H .rtc$IZZ                DATA
 0002:000064e8 00000004H .rtc$TAA                DATA
 0002:000064ec 00000004H .rtc$TZZ                DATA
 0002:000064f0 0000399cH .xdata$x                DATA
 0002:00009e8c 00000000H ATL$__a                 DATA
 0002:00009e8c 00000000H ATL$__z                 DATA
 0002:00009e8c 00000020H .didat$2                DATA
 0002:00009eac 00000020H .didat$3                DATA
 0002:00009ecc 0000000cH .didat$4                DATA
 0002:00009ed8 00000030H .didat$6                DATA
 0002:00009f08 0000000cH .didat$7                DATA
 0002:00009f14 00000078H .idata$2                DATA
 0002:00009f8c 00000014H .idata$3                DATA
 0002:00009fa0 0000039cH .idata$4                DATA
 0002:0000a33c 00000efaH .idata$6                DATA
 0002:0000b240 00000673H .edata                  DATA
 0003:00000000 0000238dH .data                   DATA
 0003:00002390 0000000cH .didat$5                DATA
 0003:000023a0 00003d5cH .bss                    DATA
 0004:00000000 00000058H .rsrc$01                DATA
 0004:00000060 00000280H .rsrc$02                DATA

  Address         Publics by Value              Rva+Base       Lib:Object

 0000:00000000       __except_list              00000000     <absolute>
 0000:000000a8       ___safe_se_handler_count   000000a8     <absolute>
 0000:00000000       ___ImageBase               10000000     <linker-defined>
 0001:00000000       ??1bad_alloc@std@@UAE@XZ   10001000 f i CommonFrameMain.obj
 0001:00000010       ??_Gbad_alloc@std@@UAEPAXI@Z 10001010 f i CommonFrameMain.obj
 0001:00000010       ??_Ebad_alloc@std@@UAEPAXI@Z 10001010 f i  CIL library: CIL module
 0001:00000040       ??3@YAXPAX0@Z              10001040 f i CommonFrameMain.obj
 0001:00000050       ?compare@?$char_traits@D@std@@SAHPBD0I@Z 10001050 f i CommonFrameMain.obj
 0001:000000e0       ??0logic_error@std@@QAE@ABV?$basic_string@DU?$char_traits@D@std@@V?$allocator@D@2@@1@@Z 100010e0 f i CommonFrameMain.obj
 0001:00000150       ??_Glogic_error@std@@UAEPAXI@Z 10001150 f i CommonFrameMain.obj
 0001:00000150       ??_Elength_error@std@@UAEPAXI@Z 10001150 f i  CIL library: CIL module
 0001:00000150       ??_Glength_error@std@@UAEPAXI@Z 10001150 f i CommonFrameMain.obj
 0001:00000150       ??_Gout_of_range@std@@UAEPAXI@Z 10001150 f i CommonFrameMain.obj
 0001:00000150       ??_Eout_of_range@std@@UAEPAXI@Z 10001150 f i  CIL library: CIL module
 0001:00000150       ??_Elogic_error@std@@UAEPAXI@Z 10001150 f i  CIL library: CIL module
 0001:000001a0       ??1length_error@std@@UAE@XZ 100011a0 f i CommonFrameMain.obj
 0001:000001a0       ??1out_of_range@std@@UAE@XZ 100011a0 f i CommonFrameMain.obj
 0001:000001e0       ??0runtime_error@std@@QAE@ABV?$basic_string@DU?$char_traits@D@std@@V?$allocator@D@2@@1@@Z 100011e0 f i CommonFrameMain.obj
 0001:00000250       ?what@runtime_error@std@@UBEPBDXZ 10001250 f i CommonFrameMain.obj
 0001:00000250       ?what@logic_error@std@@UBEPBDXZ 10001250 f i CommonFrameMain.obj
 0001:00000260       ??_Gruntime_error@std@@UAEPAXI@Z 10001260 f i CommonFrameMain.obj
 0001:00000260       ??_Gfailure@ios_base@std@@UAEPAXI@Z 10001260 f i CommonFrameMain.obj
 0001:00000260       ??_Eruntime_error@std@@UAEPAXI@Z 10001260 f i  CIL library: CIL module
 0001:00000260       ??_Efailure@ios_base@std@@UAEPAXI@Z 10001260 f i  CIL library: CIL module
 0001:000002b0       ??0_Locinfo@std@@QAE@PBD@Z 100012b0 f i CommonFrameMain.obj
 0001:00000340       ??1_Locinfo@std@@QAE@XZ    10001340 f i CommonFrameMain.obj
 0001:00000420       ??0runtime_error@std@@QAE@ABV01@@Z 10001420 f i CommonFrameMain.obj
 0001:000004a0       ?_Incref@facet@locale@std@@QAEXXZ 100014a0 f i CommonFrameMain.obj
 0001:000004d0       ?_Decref@facet@locale@std@@QAEPAV123@XZ 100014d0 f i CommonFrameMain.obj
 0001:00000510       ??1facet@locale@std@@UAE@XZ 10001510 f i CommonFrameMain.obj
 0001:00000520       ??1locale@std@@QAE@XZ      10001520 f i CommonFrameMain.obj
 0001:00000570       ??_G?$codecvt@DDH@std@@MAEPAXI@Z 10001570 f i CommonFrameMain.obj
 0001:00000570       ??_Efacet@locale@std@@UAEPAXI@Z 10001570 f i  CIL library: CIL module
 0001:00000570       ??_E?$num_put@DV?$ostreambuf_iterator@DU?$char_traits@D@std@@@std@@@std@@MAEPAXI@Z 10001570 f i  CIL library: CIL module
 0001:00000570       ??_E?$codecvt@DDH@std@@MAEPAXI@Z 10001570 f i  CIL library: CIL module
 0001:00000570       ??_Gfacet@locale@std@@UAEPAXI@Z 10001570 f i CommonFrameMain.obj
 0001:00000570       ??_G?$num_put@DV?$ostreambuf_iterator@DU?$char_traits@D@std@@@std@@@std@@MAEPAXI@Z 10001570 f i json_writer.obj
 0001:00000590       ??1codecvt_base@std@@UAE@XZ 10001590 f i CommonFrameMain.obj
 0001:00000590       ??1ctype_base@std@@UAE@XZ  10001590 f i CommonFrameMain.obj
 0001:000005a0       ?do_always_noconv@codecvt_base@std@@MBE_NXZ 100015a0 f i CommonFrameMain.obj
 0001:000005b0       ?do_max_length@codecvt_base@std@@MBEHXZ 100015b0 f i CommonFrameMain.obj
 0001:000005b0       ?do_encoding@codecvt_base@std@@MBEHXZ 100015b0 f i CommonFrameMain.obj
 0001:000005c0       ??0out_of_range@std@@QAE@ABV01@@Z 100015c0 f i CommonFrameMain.obj
 0001:000005e0       ??0logic_error@std@@QAE@ABV01@@Z 100015e0 f i CommonFrameMain.obj
 0001:00000660       ??0?$ctype@D@std@@QAE@PBF_NI@Z 10001660 f i CommonFrameMain.obj
 0001:00000710       ?_Getcat@?$ctype@D@std@@SAIPAPBVfacet@locale@2@@Z 10001710 f i CommonFrameMain.obj
 0001:00000780       ?do_tolower@?$ctype@D@std@@MBEDD@Z 10001780 f i CommonFrameMain.obj
 0001:000007a0       ?do_tolower@?$ctype@D@std@@MBEPBDPADPBD@Z 100017a0 f i CommonFrameMain.obj
 0001:000007d0       ?do_toupper@?$ctype@D@std@@MBEDD@Z 100017d0 f i CommonFrameMain.obj
 0001:000007f0       ?do_toupper@?$ctype@D@std@@MBEPBDPADPBD@Z 100017f0 f i CommonFrameMain.obj
 0001:00000820       ?do_widen@?$ctype@D@std@@MBEDD@Z 10001820 f i CommonFrameMain.obj
 0001:00000830       ?do_widen@?$ctype@D@std@@MBEPBDPBD0PAD@Z 10001830 f i CommonFrameMain.obj
 0001:00000860       ?_Do_widen_s@?$ctype@D@std@@MBEPBDPBD0PADI@Z 10001860 f i CommonFrameMain.obj
 0001:000008a0       ?do_narrow@?$ctype@D@std@@MBEDDD@Z 100018a0 f i CommonFrameMain.obj
 0001:000008b0       ?do_narrow@?$ctype@D@std@@MBEPBDPBD0DPAD@Z 100018b0 f i CommonFrameMain.obj
 0001:000008e0       ?_Do_narrow_s@?$ctype@D@std@@MBEPBDPBD0DPADI@Z 100018e0 f i CommonFrameMain.obj
 0001:00000920       ??_E?$ctype@D@std@@MAEPAXI@Z 10001920 f i  CIL library: CIL module
 0001:00000920       ??_G?$ctype@D@std@@MAEPAXI@Z 10001920 f i CommonFrameMain.obj
 0001:00000970       ??1runtime_error@std@@UAE@XZ 10001970 f i CommonFrameMain.obj
 0001:00000970       ??1failure@ios_base@std@@UAE@XZ 10001970 f i CommonFrameMain.obj
 0001:000009b0       ?clear@ios_base@std@@QAEXH_N@Z 100019b0 f i CommonFrameMain.obj
 0001:00000ae0       ?getloc@ios_base@std@@QBE?AVlocale@2@XZ 10001ae0 f i CommonFrameMain.obj
 0001:00000b10       ?_Init@ios_base@std@@IAEXXZ 10001b10 f i CommonFrameMain.obj
 0001:00000ba0       ??0failure@ios_base@std@@QAE@ABV012@@Z 10001ba0 f i CommonFrameMain.obj
 0001:00000bc0       ??_Gios_base@std@@UAEPAXI@Z 10001bc0 f i CommonFrameMain.obj
 0001:00000bc0       ??_E?$basic_ios@DU?$char_traits@D@std@@@std@@UAEPAXI@Z 10001bc0 f i  CIL library: CIL module
 0001:00000bc0       ??_Eios_base@std@@UAEPAXI@Z 10001bc0 f i  CIL library: CIL module
 0001:00000bc0       ??_G?$basic_ios@DU?$char_traits@D@std@@@std@@UAEPAXI@Z 10001bc0 f i CommonFrameMain.obj
 0001:00000bf0       ??1FastWriter@Json@@UAE@XZ 10001bf0 f i CommonFrameMain.obj
 0001:00000c30       ??_GFastWriter@Json@@UAEPAXI@Z 10001c30 f i CommonFrameMain.obj
 0001:00000c30       ??_EFastWriter@Json@@UAEPAXI@Z 10001c30 f i  CIL library: CIL module
 0001:00000c80       ??1CScopeLock@@QAE@XZ      10001c80 f i CommonFrameMain.obj
 0001:00000c90       ??$_Fputc@D@std@@YA_NDPAU_iobuf@@@Z 10001c90 f i CommonFrameMain.obj
 0001:00000cb0       ??_D?$basic_ofstream@DU?$char_traits@D@std@@@std@@QAEXXZ 10001cb0 f i CommonFrameMain.obj
 0001:00000cd0       ?recvFromBus_X@@YAHHPADHH@Z 10001cd0 f   CommonFrameMain.obj
 0001:00000cf0       ?instance@CommonFrameMain@@SAPAV1@XZ 10001cf0 f   CommonFrameMain.obj
 0001:00000d80       ??1CommonFrameMain@@UAE@XZ 10001d80 f   CommonFrameMain.obj
 0001:00000f20       ??_GCommonFrameMain@@UAEPAXI@Z 10001f20 f i CommonFrameMain.obj
 0001:00000f20       ??_ECommonFrameMain@@UAEPAXI@Z 10001f20 f i  CIL library: CIL module
 0001:00000f40       ??1NetPayInit4@CommonFrameMain@@QAE@XZ 10001f40 f i CommonFrameMain.obj
 0001:00000f40       ??1NetPayInit1@CommonFrameMain@@QAE@XZ 10001f40 f i CommonFrameMain.obj
 0001:00000fc0       ??1NetPayInit3@CommonFrameMain@@QAE@XZ 10001fc0 f i CommonFrameMain.obj
 0001:00000fc0       ??1NetPayInit2@CommonFrameMain@@QAE@XZ 10001fc0 f i CommonFrameMain.obj
 0001:00001040       ??1?$map@V?$basic_string@DU?$char_traits@D@std@@V?$allocator@D@2@@std@@HU?$less@V?$basic_string@DU?$char_traits@D@std@@V?$allocator@D@2@@std@@@2@V?$allocator@U?$pair@$$CBV?$basic_string@DU?$char_traits@D@std@@V?$allocator@D@2@@std@@H@std@@@2@@std@@QAE@XZ 10002040 f i CommonFrameMain.obj
 0001:00001040       ??1?$map@V?$basic_string@DU?$char_traits@D@std@@V?$allocator@D@2@@std@@PAUHINSTANCE__@@U?$less@V?$basic_string@DU?$char_traits@D@std@@V?$allocator@D@2@@std@@@2@V?$allocator@U?$pair@$$CBV?$basic_string@DU?$char_traits@D@std@@V?$allocator@D@2@@std@@PAUHINSTANCE__@@@std@@@2@@std@@QAE@XZ 10002040 f i CommonFrameMain.obj
 0001:00001050       ??0CommonFrameMain@@AAE@XZ 10002050 f   CommonFrameMain.obj
 0001:00001490       ?ParseConfigDll@CommonFrameMain@@QAE?AV?$set@V?$basic_string@DU?$char_traits@D@std@@V?$allocator@D@2@@std@@U?$less@V?$basic_string@DU?$char_traits@D@std@@V?$allocator@D@2@@std@@@2@V?$allocator@V?$basic_string@DU?$char_traits@D@std@@V?$allocator@D@2@@std@@@2@@std@@ABV?$basic_string@DU?$char_traits@D@std@@V?$allocator@D@2@@3@@Z 10002490 f   CommonFrameMain.obj
 0001:00001bd0       ??1?$set@V?$basic_string@DU?$char_traits@D@std@@V?$allocator@D@2@@std@@U?$less@V?$basic_string@DU?$char_traits@D@std@@V?$allocator@D@2@@std@@@2@V?$allocator@V?$basic_string@DU?$char_traits@D@std@@V?$allocator@D@2@@std@@@2@@std@@QAE@XZ 10002bd0 f i CommonFrameMain.obj
 0001:00001be0       ??_D?$basic_ifstream@DU?$char_traits@D@std@@@std@@QAEXXZ 10002be0 f i CommonFrameMain.obj
 0001:00001c00       ??1Reader@Json@@QAE@XZ     10002c00 f i CommonFrameMain.obj
 0001:00001c60       ?recvFromBus@CommonFrameMain@@QAEHHPADHH@Z 10002c60 f   CommonFrameMain.obj
 0001:00001d20       ?threadFun@CommonFrameMain@@SAHPAX@Z 10002d20 f   CommonFrameMain.obj
 0001:00001d70       ?tryUpdateDLL@CommonFrameMain@@QAEXXZ 10002d70 f   CommonFrameMain.obj
 0001:00003210       ?moveFile2loadLib@CommonFrameMain@@QAEXV?$basic_string@DU?$char_traits@D@std@@V?$allocator@D@2@@std@@@Z 10004210 f   CommonFrameMain.obj
 0001:00003330       ?loadLib@CommonFrameMain@@QAEXV?$basic_string@DU?$char_traits@D@std@@V?$allocator@D@2@@std@@AA_N@Z 10004330 f   CommonFrameMain.obj
 0001:000038b0       ??1?$pair@$$CBV?$basic_string@DU?$char_traits@D@std@@V?$allocator@D@2@@std@@H@std@@QAE@XZ 100048b0 f i CommonFrameMain.obj
 0001:000038b0       ??1?$pair@V?$basic_string@DU?$char_traits@D@std@@V?$allocator@D@2@@std@@H@std@@QAE@XZ 100048b0 f i CommonFrameMain.obj
 0001:000038b0       ?destroy@?$allocator@V?$basic_string@DU?$char_traits@D@std@@V?$allocator@D@2@@std@@@std@@QAEXPAV?$basic_string@DU?$char_traits@D@std@@V?$allocator@D@2@@2@@Z 100048b0 f i CommonFrameMain.obj
 0001:000038b0       ??1?$pair@V?$basic_string@DU?$char_traits@D@std@@V?$allocator@D@2@@std@@PAUHINSTANCE__@@@std@@QAE@XZ 100048b0 f i CommonFrameMain.obj
 0001:000038b0       ??1?$pair@$$CBV?$basic_string@DU?$char_traits@D@std@@V?$allocator@D@2@@std@@PAUHINSTANCE__@@@std@@QAE@XZ 100048b0 f i CommonFrameMain.obj
 0001:000038e0       ?unLoadLib@CommonFrameMain@@QAEXV?$basic_string@DU?$char_traits@D@std@@V?$allocator@D@2@@std@@@Z 100048e0 f   CommonFrameMain.obj
 0001:00003b60       ?readFileName@CommonFrameMain@@AAEXXZ 10004b60 f   CommonFrameMain.obj
 0001:00003d10       ?IF_InitEnvironment@@YG_NABIABQAUHWND__@@0PBD222ABH@Z 10004d10 f   CommonFrameMain.obj
 0001:00004460       ?IF_InitEnvironment2@@YG_NABIABQAUHWND__@@PBD222ABHP6GXHH@Z@Z 10005460 f   CommonFrameMain.obj
 0001:00004870       ?IF_InitEnvironment3@@YG_NABIABQAUHWND__@@PBD222ABHPAXP6GXHH4@Z@Z 10005870 f   CommonFrameMain.obj
 0001:00004ca0       ?IF_InitEnvironment4@@YG_NABIABQAUHWND__@@0PBD222ABHAAH4@Z 10005ca0 f   CommonFrameMain.obj
 0001:00005200       ?IF_Destroy@@YG_NXZ        10006200 f   CommonFrameMain.obj
 0001:00005440       ?IF_GetLastErrorDesc@@YGPBDXZ 10006440 f   CommonFrameMain.obj
 0001:00005600       ?IF_StartGetAccountInfo@@YG_NABH@Z 10006600 f   CommonFrameMain.obj
 0001:00005770       ?IF_StopGetAccountInfo@@YG_NXZ 10006770 f   CommonFrameMain.obj
 0001:000058d0       ?IF_GetAccountInfo@@YG_NPADAAHABH@Z 100068d0 f   CommonFrameMain.obj
 0001:00005a60       ?IF_DebitMoney@@YG_NPBDABH1@Z 10006a60 f   CommonFrameMain.obj
 0001:00005bf0       ?IF_DebitCancel@@YG_NPBDABH1@Z 10006bf0 f   CommonFrameMain.obj
 0001:00005d80       ?IF_DebitCancel2@@YG_NPBDABH1@Z 10006d80 f   CommonFrameMain.obj
 0001:00005f10       ?IF_GetDebitResult@@YG_NPADAAHABH@Z 10006f10 f   CommonFrameMain.obj
 0001:000060a0       ?IF_SetMMI@@YG_NPBDABH1@Z  100070a0 f   CommonFrameMain.obj
 0001:00006230       ?IF_GetParam@@YG_NPBDABH1PADAAH@Z 10007230 f   CommonFrameMain.obj
 0001:000063d0       ?IF_GetComponentStatus@@YG_NAAI@Z 100073d0 f   CommonFrameMain.obj
 0001:00006540       ?IF_TranslateData@@YG_NPBDABH1@Z 10007540 f   CommonFrameMain.obj
 0001:000066d0       ?IF_GetCancelResult@@YG_NPADAAHABH@Z 100076d0 f   CommonFrameMain.obj
 0001:00006860       ?IF_TransferImage@@YG_NPBDABH1@Z 10007860 f   CommonFrameMain.obj
 0001:000069f0       ?IF_QueryAgentDebit@@YG_NPBDABH1AAH@Z 100079f0 f   CommonFrameMain.obj
 0001:00006b80       ?InitUpdateCore@@YAXABIABQAUHWND__@@0PBD222ABH@Z 10007b80 f   CommonFrameMain.obj
 0001:00006ce0       ?InitNetPay@CommonFrameMain@@QAEXXZ 10007ce0 f   CommonFrameMain.obj
 0001:00006f20       ?loadCommonBus@CommonFrameMain@@AAEXXZ 10007f20 f   CommonFrameMain.obj
 0001:00007060       ?IF_ITCEntryTrade@@YGHPBDABH1PADAAHH@Z 10008060 f   CommonFrameMain.obj
 0001:00007210       ?IF_ITCEntryQuery@@YGHPBDABH1PADAAHH_N@Z 10008210 f   CommonFrameMain.obj
 0001:000073c0       ?IF_ITCExitQuery@@YGHPBDABH1PADAAHH_N@Z 100083c0 f   CommonFrameMain.obj
 0001:00007570       ?IF_ITCExitTrade@@YGHPBDABH1PADAAHH@Z 10008570 f   CommonFrameMain.obj
 0001:00007720       ?IF_ITCQueryPath@@YGHPBDABH1PADAAHH@Z 10008720 f   CommonFrameMain.obj
 0001:000078d0       ?IF_GetServerTime@@YG_NAAIABH@Z 100088d0 f   CommonFrameMain.obj
 0001:00007a50       ?IF_CompletionTicketNo@@YG_NPBDABH1@Z 10008a50 f   CommonFrameMain.obj
 0001:00007be0       ?IF_SetVehicleStatus@@YG_NPBDABH1@Z 10008be0 f   CommonFrameMain.obj
 0001:00007d70       ?IF_PrinterTicket@@YG_NPBDAAHABH@Z 10008d70 f   CommonFrameMain.obj
 0001:00007f00       ?IF_ReadCardInfo@@YG_NPADAAHABH@Z 10008f00 f   CommonFrameMain.obj
 0001:00008090       ?IF_WriteCardInfo@@YG_NPADAAHABH@Z 10009090 f   CommonFrameMain.obj
 0001:00008220       ?IF_TMP_SetUnipayEncrypt@@YG_NHPBDPAD@Z 10009220 f   CommonFrameMain.obj
 0001:000083a0       ?IF_QueryVirtualCardDebit@@YG_NPBDABH1AAHPAD@Z 100093a0 f   CommonFrameMain.obj
 0001:00008540       ?IF_AuditPayIdenfitier@@YG_NPBDAAH@Z 10009540 f   CommonFrameMain.obj
 0001:000086c0       ?IF_GetAuditResult@@YG_NPADAAH@Z 100096c0 f   CommonFrameMain.obj
 0001:00008840       ?IF_QueryAgentDebitEtcUp@@YGHPBDABH1AAH1@Z 10009840 f   CommonFrameMain.obj
 0001:000089f0       ?IF_QueryAgentDebitResultEtcUp@@YGHPBDABH1PADAAHH@Z 100099f0 f   CommonFrameMain.obj
 0001:00008ba0       ?IF_DebitMoneyEtcUp@@YGHPBDABH1PADAAHH@Z 10009ba0 f   CommonFrameMain.obj
 0001:00008d50       ?IF_EventInitEnvironment3@@YG_NABIABQAUHWND__@@0PBD222ABHPAXP6AXHH4@Z@Z 10009d50 f   CommonFrameMain.obj
 0001:00008f30       ?IF_EventDestroy@@YG_NXZ   10009f30 f   CommonFrameMain.obj
 0001:00009090       ?IF_EventGetLastErrorDesc@@YGPBDXZ 1000a090 f   CommonFrameMain.obj
 0001:00009250       ?IF_EventGetComponentStatus@@YG_NAAI@Z 1000a250 f   CommonFrameMain.obj
 0001:000093c0       ?IF_EventDealStart@@YG_NPBDABH1@Z 1000a3c0 f   CommonFrameMain.obj
 0001:00009550       ?IF_EventCheckVehQueue@@YG_NPBDABH1@Z 1000a550 f   CommonFrameMain.obj
 0001:000096e0       ?IF_EventCheckVehInfo@@YG_NPBDABH1@Z 1000a6e0 f   CommonFrameMain.obj
 0001:00009870       ?IF_EventCheckEntryInfo@@YG_NPBDABH1@Z 1000a870 f   CommonFrameMain.obj
 0001:00009a00       ?IF_EventShowFeeInfo@@YG_NPBDABH1@Z 1000aa00 f   CommonFrameMain.obj
 0001:00009b90       ?IF_EventPayResultDisplay@@YG_NPBDABH1@Z 1000ab90 f   CommonFrameMain.obj
 0001:00009d20       ?IF_EventDealStop@@YG_NPBDABH1@Z 1000ad20 f   CommonFrameMain.obj
 0001:00009eb0       ?IF_EventStartScan@@YG_NABH@Z 1000aeb0 f   CommonFrameMain.obj
 0001:0000a020       ?IF_EventStopScan@@YG_NXZ  1000b020 f   CommonFrameMain.obj
 0001:0000a180       ?IF_EventCardOperationNotify@@YG_NPBDABH1@Z 1000b180 f   CommonFrameMain.obj
 0001:0000a310       ?IF_EventModifyVehQueue@@YG_NPBDABH1@Z 1000b310 f   CommonFrameMain.obj
 0001:0000a4a0       ?IF_EventFeeAuthorize@@YG_NPBDABH1@Z 1000b4a0 f   CommonFrameMain.obj
 0001:0000a630       ??0?$basic_string@DU?$char_traits@D@std@@V?$allocator@D@2@@std@@QAE@PBD@Z 1000b630 f i CommonFrameMain.obj
 0001:0000a670       ??1?$basic_string@DU?$char_traits@D@std@@V?$allocator@D@2@@std@@QAE@XZ 1000b670 f i CommonFrameMain.obj
 0001:0000a6a0       ?assign@?$basic_string@DU?$char_traits@D@std@@V?$allocator@D@2@@std@@QAEAAV12@PBD@Z 1000b6a0 f i CommonFrameMain.obj
 0001:0000a6a0       ??4?$basic_string@DU?$char_traits@D@std@@V?$allocator@D@2@@std@@QAEAAV01@PBD@Z 1000b6a0 f i CommonFrameMain.obj
 0001:0000a6d0       ?clear@?$basic_string@DU?$char_traits@D@std@@V?$allocator@D@2@@std@@QAEXXZ 1000b6d0 f i CommonFrameMain.obj
 0001:0000a770       ?substr@?$basic_string@DU?$char_traits@D@std@@V?$allocator@D@2@@std@@QBE?AV12@II@Z 1000b770 f i CommonFrameMain.obj
 0001:0000a7a0       ??1?$basic_ostream@DU?$char_traits@D@std@@@std@@UAE@XZ 1000b7a0 f i CommonFrameMain.obj
 0001:0000a7b0       ?write@?$basic_ostream@DU?$char_traits@D@std@@@std@@QAEAAV12@PBDH@Z 1000b7b0 f i CommonFrameMain.obj
 0001:0000a8b0       ?flush@?$basic_ostream@DU?$char_traits@D@std@@@std@@QAEAAV12@XZ 1000b8b0 f i CommonFrameMain.obj
 0001:0000a900       ??1?$basic_ios@DU?$char_traits@D@std@@@std@@UAE@XZ 1000b900 f i CommonFrameMain.obj
 0001:0000a910       ??1?$basic_istream@DU?$char_traits@D@std@@@std@@UAE@XZ 1000b910 f i CommonFrameMain.obj
 0001:0000a920       ??1?$basic_streambuf@DU?$char_traits@D@std@@@std@@UAE@XZ 1000b920 f i CommonFrameMain.obj
 0001:0000a9a0       ?overflow@?$basic_streambuf@DU?$char_traits@D@std@@@std@@MAEHH@Z 1000b9a0 f i CommonFrameMain.obj
 0001:0000a9a0       ?pbackfail@?$basic_streambuf@DU?$char_traits@D@std@@@std@@MAEHH@Z 1000b9a0 f i CommonFrameMain.obj
 0001:0000a9b0       ?underflow@?$basic_streambuf@DU?$char_traits@D@std@@@std@@MAEHXZ 1000b9b0 f i CommonFrameMain.obj
 0001:0000a9c0       ?uflow@?$basic_streambuf@DU?$char_traits@D@std@@@std@@MAEHXZ 1000b9c0 f i CommonFrameMain.obj
 0001:0000a9f0       ?xsgetn@?$basic_streambuf@DU?$char_traits@D@std@@@std@@MAEHPADH@Z 1000b9f0 f i CommonFrameMain.obj
 0001:0000aa10       ?_Xsgetn_s@?$basic_streambuf@DU?$char_traits@D@std@@@std@@MAEHPADIH@Z 1000ba10 f i CommonFrameMain.obj
 0001:0000aab0       ?xsputn@?$basic_streambuf@DU?$char_traits@D@std@@@std@@MAEHPBDH@Z 1000bab0 f i CommonFrameMain.obj
 0001:0000ab50       ?seekoff@?$basic_streambuf@DU?$char_traits@D@std@@@std@@MAE?AV?$fpos@H@2@JHH@Z 1000bb50 f i CommonFrameMain.obj
 0001:0000ab70       ?seekpos@?$basic_streambuf@DU?$char_traits@D@std@@@std@@MAE?AV?$fpos@H@2@V32@H@Z 1000bb70 f i CommonFrameMain.obj
 0001:0000ab90       ?setbuf@?$basic_streambuf@DU?$char_traits@D@std@@@std@@MAEPAV12@PADH@Z 1000bb90 f i CommonFrameMain.obj
 0001:0000aba0       ?sync@?$basic_streambuf@DU?$char_traits@D@std@@@std@@MAEHXZ 1000bba0 f i CommonFrameMain.obj
 0001:0000aba0       ?showmanyc@?$basic_streambuf@DU?$char_traits@D@std@@@std@@MAEHXZ 1000bba0 f i CommonFrameMain.obj
 0001:0000abb0       ?imbue@?$basic_streambuf@DU?$char_traits@D@std@@@std@@MAEXABVlocale@2@@Z 1000bbb0 f i CommonFrameMain.obj
 0001:0000abc0       ?insert@?$_Tree@V?$_Tmap_traits@V?$basic_string@DU?$char_traits@D@std@@V?$allocator@D@2@@std@@HU?$less@V?$basic_string@DU?$char_traits@D@std@@V?$allocator@D@2@@std@@@2@V?$allocator@U?$pair@$$CBV?$basic_string@DU?$char_traits@D@std@@V?$allocator@D@2@@std@@H@std@@@2@$0A@@std@@@std@@QAE?AU?$pair@Viterator@?$_Tree@V?$_Tmap_traits@V?$basic_string@DU?$char_traits@D@std@@V?$allocator@D@2@@std@@HU?$less@V?$basic_string@DU?$char_traits@D@std@@V?$allocator@D@2@@std@@@2@V?$allocator@U?$pair@$$CBV?$basic_string@DU?$char_traits@D@std@@V?$allocator@D@2@@std@@H@std@@@2@$0A@@std@@@std@@_N@2@ABU?$pair@$$CBV?$basic_string@DU?$char_traits@D@std@@V?$allocator@D@2@@std@@H@2@@Z 1000bbc0 f i CommonFrameMain.obj
 0001:0000abc0       ?insert@?$_Tree@V?$_Tmap_traits@V?$basic_string@DU?$char_traits@D@std@@V?$allocator@D@2@@std@@PAUHINSTANCE__@@U?$less@V?$basic_string@DU?$char_traits@D@std@@V?$allocator@D@2@@std@@@2@V?$allocator@U?$pair@$$CBV?$basic_string@DU?$char_traits@D@std@@V?$allocator@D@2@@std@@PAUHINSTANCE__@@@std@@@2@$0A@@std@@@std@@QAE?AU?$pair@Viterator@?$_Tree@V?$_Tmap_traits@V?$basic_string@DU?$char_traits@D@std@@V?$allocator@D@2@@std@@PAUHINSTANCE__@@U?$less@V?$basic_string@DU?$char_traits@D@std@@V?$allocator@D@2@@std@@@2@V?$allocator@U?$pair@$$CBV?$basic_string@DU?$char_traits@D@std@@V?$allocator@D@2@@std@@PAUHINSTANCE__@@@std@@@2@$0A@@std@@@std@@_N@2@ABU?$pair@$$CBV?$basic_string@DU?$char_traits@D@std@@V?$allocator@D@2@@std@@PAUHINSTANCE__@@@2@@Z 1000bbc0 f i CommonFrameMain.obj
 0001:0000ad10       ?erase@?$_Tree@V?$_Tmap_traits@V?$basic_string@DU?$char_traits@D@std@@V?$allocator@D@2@@std@@PAUHINSTANCE__@@U?$less@V?$basic_string@DU?$char_traits@D@std@@V?$allocator@D@2@@std@@@2@V?$allocator@U?$pair@$$CBV?$basic_string@DU?$char_traits@D@std@@V?$allocator@D@2@@std@@PAUHINSTANCE__@@@std@@@2@$0A@@std@@@std@@QAE?AViterator@12@V312@@Z 1000bd10 f i CommonFrameMain.obj
 0001:0000ad10       ?erase@?$_Tree@V?$_Tmap_traits@V?$basic_string@DU?$char_traits@D@std@@V?$allocator@D@2@@std@@HU?$less@V?$basic_string@DU?$char_traits@D@std@@V?$allocator@D@2@@std@@@2@V?$allocator@U?$pair@$$CBV?$basic_string@DU?$char_traits@D@std@@V?$allocator@D@2@@std@@H@std@@@2@$0A@@std@@@std@@QAE?AViterator@12@V312@@Z 1000bd10 f i CommonFrameMain.obj
 0001:0000b020       ?find@?$_Tree@V?$_Tmap_traits@V?$basic_string@DU?$char_traits@D@std@@V?$allocator@D@2@@std@@PAUHINSTANCE__@@U?$less@V?$basic_string@DU?$char_traits@D@std@@V?$allocator@D@2@@std@@@2@V?$allocator@U?$pair@$$CBV?$basic_string@DU?$char_traits@D@std@@V?$allocator@D@2@@std@@PAUHINSTANCE__@@@std@@@2@$0A@@std@@@std@@QAE?AViterator@12@ABV?$basic_string@DU?$char_traits@D@std@@V?$allocator@D@2@@2@@Z 1000c020 f i CommonFrameMain.obj
 0001:0000b090       ??1?$list@V?$basic_string@DU?$char_traits@D@std@@V?$allocator@D@2@@std@@V?$allocator@V?$basic_string@DU?$char_traits@D@std@@V?$allocator@D@2@@std@@@2@@std@@QAE@XZ 1000c090 f i CommonFrameMain.obj
 0001:0000b0b0       ?clear@?$list@V?$basic_string@DU?$char_traits@D@std@@V?$allocator@D@2@@std@@V?$allocator@V?$basic_string@DU?$char_traits@D@std@@V?$allocator@D@2@@std@@@2@@std@@QAEXXZ 1000c0b0 f i CommonFrameMain.obj
 0001:0000b110       ??0?$basic_ofstream@DU?$char_traits@D@std@@@std@@QAE@XZ 1000c110 f i CommonFrameMain.obj
 0001:0000b1f0       ??1?$basic_ofstream@DU?$char_traits@D@std@@@std@@UAE@XZ 1000c1f0 f i CommonFrameMain.obj
 0001:0000b260       ??1?$basic_filebuf@DU?$char_traits@D@std@@@std@@UAE@XZ 1000c260 f i CommonFrameMain.obj
 0001:0000b2d0       ?overflow@?$basic_filebuf@DU?$char_traits@D@std@@@std@@MAEHH@Z 1000c2d0 f i CommonFrameMain.obj
 0001:0000b6b0       ?pbackfail@?$basic_filebuf@DU?$char_traits@D@std@@@std@@MAEHH@Z 1000c6b0 f i CommonFrameMain.obj
 0001:0000b720       ?underflow@?$basic_filebuf@DU?$char_traits@D@std@@@std@@MAEHXZ 1000c720 f i CommonFrameMain.obj
 0001:0000b770       ?uflow@?$basic_filebuf@DU?$char_traits@D@std@@@std@@MAEHXZ 1000c770 f i CommonFrameMain.obj
 0001:0000baf0       ?seekoff@?$basic_filebuf@DU?$char_traits@D@std@@@std@@MAE?AV?$fpos@H@2@JHH@Z 1000caf0 f i CommonFrameMain.obj
 0001:0000bbd0       ?seekpos@?$basic_filebuf@DU?$char_traits@D@std@@@std@@MAE?AV?$fpos@H@2@V32@H@Z 1000cbd0 f i CommonFrameMain.obj
 0001:0000bcc0       ?setbuf@?$basic_filebuf@DU?$char_traits@D@std@@@std@@MAEPAV?$basic_streambuf@DU?$char_traits@D@std@@@2@PADH@Z 1000ccc0 f i CommonFrameMain.obj
 0001:0000bd10       ?sync@?$basic_filebuf@DU?$char_traits@D@std@@@std@@MAEHXZ 1000cd10 f i CommonFrameMain.obj
 0001:0000bd40       ?imbue@?$basic_filebuf@DU?$char_traits@D@std@@@std@@MAEXABVlocale@2@@Z 1000cd40 f i CommonFrameMain.obj
 0001:0000bd80       ??0?$_Tree@V?$_Tset_traits@V?$basic_string@DU?$char_traits@D@std@@V?$allocator@D@2@@std@@U?$less@V?$basic_string@DU?$char_traits@D@std@@V?$allocator@D@2@@std@@@2@V?$allocator@V?$basic_string@DU?$char_traits@D@std@@V?$allocator@D@2@@std@@@2@$0A@@std@@@std@@QAE@ABV01@@Z 1000cd80 f i CommonFrameMain.obj
 0001:0000be10       ?insert@?$_Tree@V?$_Tset_traits@V?$basic_string@DU?$char_traits@D@std@@V?$allocator@D@2@@std@@U?$less@V?$basic_string@DU?$char_traits@D@std@@V?$allocator@D@2@@std@@@2@V?$allocator@V?$basic_string@DU?$char_traits@D@std@@V?$allocator@D@2@@std@@@2@$0A@@std@@@std@@QAE?AU?$pair@Viterator@?$_Tree@V?$_Tset_traits@V?$basic_string@DU?$char_traits@D@std@@V?$allocator@D@2@@std@@U?$less@V?$basic_string@DU?$char_traits@D@std@@V?$allocator@D@2@@std@@@2@V?$allocator@V?$basic_string@DU?$char_traits@D@std@@V?$allocator@D@2@@std@@@2@$0A@@std@@@std@@_N@2@ABV?$basic_string@DU?$char_traits@D@std@@V?$allocator@D@2@@2@@Z 1000ce10 f i CommonFrameMain.obj
 0001:0000bf80       ??0?$basic_ifstream@DU?$char_traits@D@std@@@std@@QAE@PBDHH@Z 1000cf80 f i CommonFrameMain.obj
 0001:0000c0a0       ??1?$basic_ifstream@DU?$char_traits@D@std@@@std@@UAE@XZ 1000d0a0 f i CommonFrameMain.obj
 0001:0000c110       ??_E?$basic_ostream@DU?$char_traits@D@std@@@std@@UAEPAXI@Z 1000d110 f i  CIL library: CIL module
 0001:0000c110       ??_G?$basic_ostream@DU?$char_traits@D@std@@@std@@UAEPAXI@Z 1000d110 f i CommonFrameMain.obj
 0001:0000c150       ??_E?$basic_istream@DU?$char_traits@D@std@@@std@@UAEPAXI@Z 1000d150 f i  CIL library: CIL module
 0001:0000c150       ??_G?$basic_istream@DU?$char_traits@D@std@@@std@@UAEPAXI@Z 1000d150 f i CommonFrameMain.obj
 0001:0000c190       ??_E?$basic_streambuf@DU?$char_traits@D@std@@@std@@UAEPAXI@Z 1000d190 f i  CIL library: CIL module
 0001:0000c190       ??_G?$basic_streambuf@DU?$char_traits@D@std@@@std@@UAEPAXI@Z 1000d190 f i CommonFrameMain.obj
 0001:0000c1b0       ??_E?$basic_ofstream@DU?$char_traits@D@std@@@std@@UAEPAXI@Z 1000d1b0 f i  CIL library: CIL module
 0001:0000c1b0       ??_G?$basic_ofstream@DU?$char_traits@D@std@@@std@@UAEPAXI@Z 1000d1b0 f i CommonFrameMain.obj
 0001:0000c1f0       ??_G?$basic_filebuf@DU?$char_traits@D@std@@@std@@UAEPAXI@Z 1000d1f0 f i CommonFrameMain.obj
 0001:0000c1f0       ??_E?$basic_filebuf@DU?$char_traits@D@std@@@std@@UAEPAXI@Z 1000d1f0 f i  CIL library: CIL module
 0001:0000c210       ??_E?$basic_ifstream@DU?$char_traits@D@std@@@std@@UAEPAXI@Z 1000d210 f i  CIL library: CIL module
 0001:0000c210       ??_G?$basic_ifstream@DU?$char_traits@D@std@@@std@@UAEPAXI@Z 1000d210 f i CommonFrameMain.obj
 0001:0000c250       ?append@?$basic_string@DU?$char_traits@D@std@@V?$allocator@D@2@@std@@QAEAAV12@ABV12@II@Z 1000d250 f i CommonFrameMain.obj
 0001:0000c340       ?append@?$basic_string@DU?$char_traits@D@std@@V?$allocator@D@2@@std@@QAEAAV12@PBDI@Z 1000d340 f i CommonFrameMain.obj
 0001:0000c430       ?append@?$basic_string@DU?$char_traits@D@std@@V?$allocator@D@2@@std@@QAEAAV12@ID@Z 1000d430 f i CommonFrameMain.obj
 0001:0000c4d0       ?assign@?$basic_string@DU?$char_traits@D@std@@V?$allocator@D@2@@std@@QAEAAV12@ABV12@II@Z 1000d4d0 f i CommonFrameMain.obj
 0001:0000c5b0       ?erase@?$basic_string@DU?$char_traits@D@std@@V?$allocator@D@2@@std@@QAEAAV12@II@Z 1000d5b0 f i CommonFrameMain.obj
 0001:0000c640       ?erase@?$basic_string@DU?$char_traits@D@std@@V?$allocator@D@2@@std@@QAE?AV?$_String_iterator@DU?$char_traits@D@std@@V?$allocator@D@2@@2@V32@0@Z 1000d640 f i CommonFrameMain.obj
 0001:0000c740       ?begin@?$basic_string@DU?$char_traits@D@std@@V?$allocator@D@2@@std@@QAE?AV?$_String_iterator@DU?$char_traits@D@std@@V?$allocator@D@2@@2@XZ 1000d740 f i CommonFrameMain.obj
 0001:0000c790       ?find@?$basic_string@DU?$char_traits@D@std@@V?$allocator@D@2@@std@@QBEIPBDII@Z 1000d790 f i CommonFrameMain.obj
 0001:0000c840       ?_Tidy@?$basic_string@DU?$char_traits@D@std@@V?$allocator@D@2@@std@@IAEX_NI@Z 1000d840 f i CommonFrameMain.obj
 0001:0000c890       ??0?$basic_ostream@DU?$char_traits@D@std@@@std@@QAE@PAV?$basic_streambuf@DU?$char_traits@D@std@@@1@_N@Z 1000d890 f i CommonFrameMain.obj
 0001:0000c920       ??0?$basic_istream@DU?$char_traits@D@std@@@std@@QAE@PAV?$basic_streambuf@DU?$char_traits@D@std@@@1@_N@Z 1000d920 f i CommonFrameMain.obj
 0001:0000c9b0       ?_Gnavail@?$basic_streambuf@DU?$char_traits@D@std@@@std@@IBEHXZ 1000d9b0 f i CommonFrameMain.obj
 0001:0000c9d0       ?_Pnavail@?$basic_streambuf@DU?$char_traits@D@std@@@std@@IBEHXZ 1000d9d0 f i CommonFrameMain.obj
 0001:0000c9f0       ?_Tidy@?$deque@PAVValue@Json@@V?$allocator@PAVValue@Json@@@std@@@std@@IAEXXZ 1000d9f0 f i CommonFrameMain.obj
 0001:0000ca60       ?_Tidy@?$deque@VErrorInfo@Reader@Json@@V?$allocator@VErrorInfo@Reader@Json@@@std@@@std@@IAEXXZ 1000da60 f i CommonFrameMain.obj
 0001:0000cb00       ??1?$vector@V?$basic_string@DU?$char_traits@D@std@@V?$allocator@D@2@@std@@V?$allocator@V?$basic_string@DU?$char_traits@D@std@@V?$allocator@D@2@@std@@@2@@std@@QAE@XZ 1000db00 f i CommonFrameMain.obj
 0001:0000cb00       ?_Tidy@?$vector@V?$basic_string@DU?$char_traits@D@std@@V?$allocator@D@2@@std@@V?$allocator@V?$basic_string@DU?$char_traits@D@std@@V?$allocator@D@2@@std@@@2@@std@@IAEXXZ 1000db00 f i CommonFrameMain.obj
 0001:0000cb40       ?_Insert@?$_Tree@V?$_Tmap_traits@V?$basic_string@DU?$char_traits@D@std@@V?$allocator@D@2@@std@@PAUHINSTANCE__@@U?$less@V?$basic_string@DU?$char_traits@D@std@@V?$allocator@D@2@@std@@@2@V?$allocator@U?$pair@$$CBV?$basic_string@DU?$char_traits@D@std@@V?$allocator@D@2@@std@@PAUHINSTANCE__@@@std@@@2@$0A@@std@@@std@@IAE?AViterator@12@_NPAU_Node@?$_Tree_nod@V?$_Tmap_traits@V?$basic_string@DU?$char_traits@D@std@@V?$allocator@D@2@@std@@PAUHINSTANCE__@@U?$less@V?$basic_string@DU?$char_traits@D@std@@V?$allocator@D@2@@std@@@2@V?$allocator@U?$pair@$$CBV?$basic_string@DU?$char_traits@D@std@@V?$allocator@D@2@@std@@PAUHINSTANCE__@@@std@@@2@$0A@@std@@@2@ABU?$pair@$$CBV?$basic_string@DU?$char_traits@D@std@@V?$allocator@D@2@@std@@PAUHINSTANCE__@@@2@@Z 1000db40 f i CommonFrameMain.obj
 0001:0000cb40       ?_Insert@?$_Tree@V?$_Tmap_traits@V?$basic_string@DU?$char_traits@D@std@@V?$allocator@D@2@@std@@HU?$less@V?$basic_string@DU?$char_traits@D@std@@V?$allocator@D@2@@std@@@2@V?$allocator@U?$pair@$$CBV?$basic_string@DU?$char_traits@D@std@@V?$allocator@D@2@@std@@H@std@@@2@$0A@@std@@@std@@IAE?AViterator@12@_NPAU_Node@?$_Tree_nod@V?$_Tmap_traits@V?$basic_string@DU?$char_traits@D@std@@V?$allocator@D@2@@std@@HU?$less@V?$basic_string@DU?$char_traits@D@std@@V?$allocator@D@2@@std@@@2@V?$allocator@U?$pair@$$CBV?$basic_string@DU?$char_traits@D@std@@V?$allocator@D@2@@std@@H@std@@@2@$0A@@std@@@2@ABU?$pair@$$CBV?$basic_string@DU?$char_traits@D@std@@V?$allocator@D@2@@std@@H@2@@Z 1000db40 f i CommonFrameMain.obj
 0001:0000cd80       ?_Lrotate@?$_Tree@V?$_Tmap_traits@V?$basic_string@DU?$char_traits@D@std@@V?$allocator@D@2@@std@@PAUHINSTANCE__@@U?$less@V?$basic_string@DU?$char_traits@D@std@@V?$allocator@D@2@@std@@@2@V?$allocator@U?$pair@$$CBV?$basic_string@DU?$char_traits@D@std@@V?$allocator@D@2@@std@@PAUHINSTANCE__@@@std@@@2@$0A@@std@@@std@@IAEXPAU_Node@?$_Tree_nod@V?$_Tmap_traits@V?$basic_string@DU?$char_traits@D@std@@V?$allocator@D@2@@std@@PAUHINSTANCE__@@U?$less@V?$basic_string@DU?$char_traits@D@std@@V?$allocator@D@2@@std@@@2@V?$allocator@U?$pair@$$CBV?$basic_string@DU?$char_traits@D@std@@V?$allocator@D@2@@std@@PAUHINSTANCE__@@@std@@@2@$0A@@std@@@2@@Z 1000dd80 f i CommonFrameMain.obj
 0001:0000cd80       ?_Lrotate@?$_Tree@V?$_Tmap_traits@V?$basic_string@DU?$char_traits@D@std@@V?$allocator@D@2@@std@@HU?$less@V?$basic_string@DU?$char_traits@D@std@@V?$allocator@D@2@@std@@@2@V?$allocator@U?$pair@$$CBV?$basic_string@DU?$char_traits@D@std@@V?$allocator@D@2@@std@@H@std@@@2@$0A@@std@@@std@@IAEXPAU_Node@?$_Tree_nod@V?$_Tmap_traits@V?$basic_string@DU?$char_traits@D@std@@V?$allocator@D@2@@std@@HU?$less@V?$basic_string@DU?$char_traits@D@std@@V?$allocator@D@2@@std@@@2@V?$allocator@U?$pair@$$CBV?$basic_string@DU?$char_traits@D@std@@V?$allocator@D@2@@std@@H@std@@@2@$0A@@std@@@2@@Z 1000dd80 f i CommonFrameMain.obj
 0001:0000cdd0       ?_Max@?$_Tree@V?$_Tmap_traits@V?$basic_string@DU?$char_traits@D@std@@V?$allocator@D@2@@std@@PAUHINSTANCE__@@U?$less@V?$basic_string@DU?$char_traits@D@std@@V?$allocator@D@2@@std@@@2@V?$allocator@U?$pair@$$CBV?$basic_string@DU?$char_traits@D@std@@V?$allocator@D@2@@std@@PAUHINSTANCE__@@@std@@@2@$0A@@std@@@std@@KAPAU_Node@?$_Tree_nod@V?$_Tmap_traits@V?$basic_string@DU?$char_traits@D@std@@V?$allocator@D@2@@std@@PAUHINSTANCE__@@U?$less@V?$basic_string@DU?$char_traits@D@std@@V?$allocator@D@2@@std@@@2@V?$allocator@U?$pair@$$CBV?$basic_string@DU?$char_traits@D@std@@V?$allocator@D@2@@std@@PAUHINSTANCE__@@@std@@@2@$0A@@std@@@2@PAU342@@Z 1000ddd0 f i CommonFrameMain.obj
 0001:0000cdd0       ?_Max@?$_Tree@V?$_Tmap_traits@V?$basic_string@DU?$char_traits@D@std@@V?$allocator@D@2@@std@@HU?$less@V?$basic_string@DU?$char_traits@D@std@@V?$allocator@D@2@@std@@@2@V?$allocator@U?$pair@$$CBV?$basic_string@DU?$char_traits@D@std@@V?$allocator@D@2@@std@@H@std@@@2@$0A@@std@@@std@@KAPAU_Node@?$_Tree_nod@V?$_Tmap_traits@V?$basic_string@DU?$char_traits@D@std@@V?$allocator@D@2@@std@@HU?$less@V?$basic_string@DU?$char_traits@D@std@@V?$allocator@D@2@@std@@@2@V?$allocator@U?$pair@$$CBV?$basic_string@DU?$char_traits@D@std@@V?$allocator@D@2@@std@@H@std@@@2@$0A@@std@@@2@PAU342@@Z 1000ddd0 f i CommonFrameMain.obj
 0001:0000cdf0       ?_Tidy@?$_Tree@V?$_Tmap_traits@V?$basic_string@DU?$char_traits@D@std@@V?$allocator@D@2@@std@@HU?$less@V?$basic_string@DU?$char_traits@D@std@@V?$allocator@D@2@@std@@@2@V?$allocator@U?$pair@$$CBV?$basic_string@DU?$char_traits@D@std@@V?$allocator@D@2@@std@@H@std@@@2@$0A@@std@@@std@@IAEXXZ 1000ddf0 f i CommonFrameMain.obj
 0001:0000cdf0       ?_Tidy@?$_Tree@V?$_Tmap_traits@V?$basic_string@DU?$char_traits@D@std@@V?$allocator@D@2@@std@@PAUHINSTANCE__@@U?$less@V?$basic_string@DU?$char_traits@D@std@@V?$allocator@D@2@@std@@@2@V?$allocator@U?$pair@$$CBV?$basic_string@DU?$char_traits@D@std@@V?$allocator@D@2@@std@@PAUHINSTANCE__@@@std@@@2@$0A@@std@@@std@@IAEXXZ 1000ddf0 f i CommonFrameMain.obj
 0001:0000ce30       ?_Buynode@?$list@V?$basic_string@DU?$char_traits@D@std@@V?$allocator@D@2@@std@@V?$allocator@V?$basic_string@DU?$char_traits@D@std@@V?$allocator@D@2@@std@@@2@@std@@IAEPAU_Node@?$_List_nod@V?$basic_string@DU?$char_traits@D@std@@V?$allocator@D@2@@std@@V?$allocator@V?$basic_string@DU?$char_traits@D@std@@V?$allocator@D@2@@std@@@2@@2@XZ 1000de30 f i CommonFrameMain.obj
 0001:0000ce50       ?open@?$basic_filebuf@DU?$char_traits@D@std@@@std@@QAEPAV12@PBDHH@Z 1000de50 f i CommonFrameMain.obj
 0001:0000cf30       ?close@?$basic_filebuf@DU?$char_traits@D@std@@@std@@QAEPAV12@XZ 1000df30 f i CommonFrameMain.obj
 0001:0000cfc0       ?_Init@?$basic_filebuf@DU?$char_traits@D@std@@@std@@IAEXPAU_iobuf@@W4_Initfl@12@@Z 1000dfc0 f i CommonFrameMain.obj
 0001:0000d060       ?_Endwrite@?$basic_filebuf@DU?$char_traits@D@std@@@std@@IAE_NXZ 1000e060 f i CommonFrameMain.obj
 0001:0000d3a0       ?_Copy@?$_Tree@V?$_Tset_traits@V?$basic_string@DU?$char_traits@D@std@@V?$allocator@D@2@@std@@U?$less@V?$basic_string@DU?$char_traits@D@std@@V?$allocator@D@2@@std@@@2@V?$allocator@V?$basic_string@DU?$char_traits@D@std@@V?$allocator@D@2@@std@@@2@$0A@@std@@@std@@IAEXABV12@@Z 1000e3a0 f i CommonFrameMain.obj
 0001:0000d410       ?_Insert@?$_Tree@V?$_Tset_traits@V?$basic_string@DU?$char_traits@D@std@@V?$allocator@D@2@@std@@U?$less@V?$basic_string@DU?$char_traits@D@std@@V?$allocator@D@2@@std@@@2@V?$allocator@V?$basic_string@DU?$char_traits@D@std@@V?$allocator@D@2@@std@@@2@$0A@@std@@@std@@IAE?AViterator@12@_NPAU_Node@?$_Tree_nod@V?$_Tset_traits@V?$basic_string@DU?$char_traits@D@std@@V?$allocator@D@2@@std@@U?$less@V?$basic_string@DU?$char_traits@D@std@@V?$allocator@D@2@@std@@@2@V?$allocator@V?$basic_string@DU?$char_traits@D@std@@V?$allocator@D@2@@std@@@2@$0A@@std@@@2@ABV?$basic_string@DU?$char_traits@D@std@@V?$allocator@D@2@@2@@Z 1000e410 f i CommonFrameMain.obj
 0001:0000d650       ?_Tidy@?$_Tree@V?$_Tset_traits@V?$basic_string@DU?$char_traits@D@std@@V?$allocator@D@2@@std@@U?$less@V?$basic_string@DU?$char_traits@D@std@@V?$allocator@D@2@@std@@@2@V?$allocator@V?$basic_string@DU?$char_traits@D@std@@V?$allocator@D@2@@std@@@2@$0A@@std@@@std@@IAEXXZ 1000e650 f i CommonFrameMain.obj
 0001:0000d690       ??D?$_String_iterator@DU?$char_traits@D@std@@V?$allocator@D@2@@std@@QBEAADXZ 1000e690 f i CommonFrameMain.obj
 0001:0000d6d0       ??0sentry@?$basic_ostream@DU?$char_traits@D@std@@@std@@QAE@AAV12@@Z 1000e6d0 f i CommonFrameMain.obj
 0001:0000d760       ??1sentry@?$basic_ostream@DU?$char_traits@D@std@@@std@@QAE@XZ 1000e760 f i CommonFrameMain.obj
 0001:0000d7d0       ?do_in@?$codecvt@DDH@std@@MBEHAAHPBD1AAPBDPAD3AAPAD@Z 1000e7d0 f i CommonFrameMain.obj
 0001:0000d7d0       ?do_out@?$codecvt@DDH@std@@MBEHAAHPBD1AAPBDPAD3AAPAD@Z 1000e7d0 f i CommonFrameMain.obj
 0001:0000d7f0       ?do_unshift@?$codecvt@DDH@std@@MBEHAAHPAD1AAPAD@Z 1000e7f0 f i CommonFrameMain.obj
 0001:0000d810       ?do_length@?$codecvt@DDH@std@@MBEHABHPBD1I@Z 1000e810 f i CommonFrameMain.obj
 0001:0000d830       ??0length_error@std@@QAE@ABV01@@Z 1000e830 f i CommonFrameMain.obj
 0001:0000d850       ?assign@?$basic_string@DU?$char_traits@D@std@@V?$allocator@D@2@@std@@QAEAAV12@PBDI@Z 1000e850 f i CommonFrameMain.obj
 0001:0000d920       ?_Chassign@?$basic_string@DU?$char_traits@D@std@@V?$allocator@D@2@@std@@IAEXIID@Z 1000e920 f i CommonFrameMain.obj
 0001:0000d970       ?_Grow@?$basic_string@DU?$char_traits@D@std@@V?$allocator@D@2@@std@@IAE_NI_N@Z 1000e970 f i CommonFrameMain.obj
 0001:0000da30       ?_Osfx@?$basic_ostream@DU?$char_traits@D@std@@@std@@QAEXXZ 1000ea30 f i CommonFrameMain.obj
 0001:0000da90       ??0?$basic_streambuf@DU?$char_traits@D@std@@@std@@IAE@XZ 1000ea90 f i CommonFrameMain.obj
 0001:0000db90       ?getloc@?$basic_streambuf@DU?$char_traits@D@std@@@std@@QBE?AVlocale@2@XZ 1000eb90 f i CommonFrameMain.obj
 0001:0000dbc0       ?_Init@?$basic_streambuf@DU?$char_traits@D@std@@@std@@IAEXXZ 1000ebc0 f i CommonFrameMain.obj
 0001:0000dc20       ?pop_back@?$deque@VErrorInfo@Reader@Json@@V?$allocator@VErrorInfo@Reader@Json@@@std@@@std@@QAEXXZ 1000ec20 f i CommonFrameMain.obj
 0001:0000dc80       ?erase@?$_Tree@V?$_Tmap_traits@V?$basic_string@DU?$char_traits@D@std@@V?$allocator@D@2@@std@@PAUHINSTANCE__@@U?$less@V?$basic_string@DU?$char_traits@D@std@@V?$allocator@D@2@@std@@@2@V?$allocator@U?$pair@$$CBV?$basic_string@DU?$char_traits@D@std@@V?$allocator@D@2@@std@@PAUHINSTANCE__@@@std@@@2@$0A@@std@@@std@@QAE?AViterator@12@V312@0@Z 1000ec80 f i CommonFrameMain.obj
 0001:0000dc80       ?erase@?$_Tree@V?$_Tmap_traits@V?$basic_string@DU?$char_traits@D@std@@V?$allocator@D@2@@std@@HU?$less@V?$basic_string@DU?$char_traits@D@std@@V?$allocator@D@2@@std@@@2@V?$allocator@U?$pair@$$CBV?$basic_string@DU?$char_traits@D@std@@V?$allocator@D@2@@std@@H@std@@@2@$0A@@std@@@std@@QAE?AViterator@12@V312@0@Z 1000ec80 f i CommonFrameMain.obj
 0001:0000dd50       ?_Buynode@?$_Tree@V?$_Tmap_traits@V?$basic_string@DU?$char_traits@D@std@@V?$allocator@D@2@@std@@HU?$less@V?$basic_string@DU?$char_traits@D@std@@V?$allocator@D@2@@std@@@2@V?$allocator@U?$pair@$$CBV?$basic_string@DU?$char_traits@D@std@@V?$allocator@D@2@@std@@H@std@@@2@$0A@@std@@@std@@IAEPAU_Node@?$_Tree_nod@V?$_Tmap_traits@V?$basic_string@DU?$char_traits@D@std@@V?$allocator@D@2@@std@@HU?$less@V?$basic_string@DU?$char_traits@D@std@@V?$allocator@D@2@@std@@@2@V?$allocator@U?$pair@$$CBV?$basic_string@DU?$char_traits@D@std@@V?$allocator@D@2@@std@@H@std@@@2@$0A@@std@@@2@PAU342@00ABU?$pair@$$CBV?$basic_string@DU?$char_traits@D@std@@V?$allocator@D@2@@std@@H@2@D@Z 1000ed50 f i CommonFrameMain.obj
 0001:0000dd50       ?_Buynode@?$_Tree@V?$_Tmap_traits@V?$basic_string@DU?$char_traits@D@std@@V?$allocator@D@2@@std@@PAUHINSTANCE__@@U?$less@V?$basic_string@DU?$char_traits@D@std@@V?$allocator@D@2@@std@@@2@V?$allocator@U?$pair@$$CBV?$basic_string@DU?$char_traits@D@std@@V?$allocator@D@2@@std@@PAUHINSTANCE__@@@std@@@2@$0A@@std@@@std@@IAEPAU_Node@?$_Tree_nod@V?$_Tmap_traits@V?$basic_string@DU?$char_traits@D@std@@V?$allocator@D@2@@std@@PAUHINSTANCE__@@U?$less@V?$basic_string@DU?$char_traits@D@std@@V?$allocator@D@2@@std@@@2@V?$allocator@U?$pair@$$CBV?$basic_string@DU?$char_traits@D@std@@V?$allocator@D@2@@std@@PAUHINSTANCE__@@@std@@@2@$0A@@std@@@2@PAU342@00ABU?$pair@$$CBV?$basic_string@DU?$char_traits@D@std@@V?$allocator@D@2@@std@@PAUHINSTANCE__@@@2@D@Z 1000ed50 f i CommonFrameMain.obj
 0001:0000de10       ?_Lbound@?$_Tree@V?$_Tmap_traits@V?$basic_string@DU?$char_traits@D@std@@V?$allocator@D@2@@std@@HU?$less@V?$basic_string@DU?$char_traits@D@std@@V?$allocator@D@2@@std@@@2@V?$allocator@U?$pair@$$CBV?$basic_string@DU?$char_traits@D@std@@V?$allocator@D@2@@std@@H@std@@@2@$0A@@std@@@std@@IBEPAU_Node@?$_Tree_nod@V?$_Tmap_traits@V?$basic_string@DU?$char_traits@D@std@@V?$allocator@D@2@@std@@HU?$less@V?$basic_string@DU?$char_traits@D@std@@V?$allocator@D@2@@std@@@2@V?$allocator@U?$pair@$$CBV?$basic_string@DU?$char_traits@D@std@@V?$allocator@D@2@@std@@H@std@@@2@$0A@@std@@@2@ABV?$basic_string@DU?$char_traits@D@std@@V?$allocator@D@2@@2@@Z 1000ee10 f i CommonFrameMain.obj
 0001:0000de10       ?_Lbound@?$_Tree@V?$_Tmap_traits@V?$basic_string@DU?$char_traits@D@std@@V?$allocator@D@2@@std@@PAUHINSTANCE__@@U?$less@V?$basic_string@DU?$char_traits@D@std@@V?$allocator@D@2@@std@@@2@V?$allocator@U?$pair@$$CBV?$basic_string@DU?$char_traits@D@std@@V?$allocator@D@2@@std@@PAUHINSTANCE__@@@std@@@2@$0A@@std@@@std@@IBEPAU_Node@?$_Tree_nod@V?$_Tmap_traits@V?$basic_string@DU?$char_traits@D@std@@V?$allocator@D@2@@std@@PAUHINSTANCE__@@U?$less@V?$basic_string@DU?$char_traits@D@std@@V?$allocator@D@2@@std@@@2@V?$allocator@U?$pair@$$CBV?$basic_string@DU?$char_traits@D@std@@V?$allocator@D@2@@std@@PAUHINSTANCE__@@@std@@@2@$0A@@std@@@2@ABV?$basic_string@DU?$char_traits@D@std@@V?$allocator@D@2@@2@@Z 1000ee10 f i CommonFrameMain.obj
 0001:0000dea0       ?_Rrotate@?$_Tree@V?$_Tmap_traits@V?$basic_string@DU?$char_traits@D@std@@V?$allocator@D@2@@std@@PAUHINSTANCE__@@U?$less@V?$basic_string@DU?$char_traits@D@std@@V?$allocator@D@2@@std@@@2@V?$allocator@U?$pair@$$CBV?$basic_string@DU?$char_traits@D@std@@V?$allocator@D@2@@std@@PAUHINSTANCE__@@@std@@@2@$0A@@std@@@std@@IAEXPAU_Node@?$_Tree_nod@V?$_Tmap_traits@V?$basic_string@DU?$char_traits@D@std@@V?$allocator@D@2@@std@@PAUHINSTANCE__@@U?$less@V?$basic_string@DU?$char_traits@D@std@@V?$allocator@D@2@@std@@@2@V?$allocator@U?$pair@$$CBV?$basic_string@DU?$char_traits@D@std@@V?$allocator@D@2@@std@@PAUHINSTANCE__@@@std@@@2@$0A@@std@@@2@@Z 1000eea0 f i CommonFrameMain.obj
 0001:0000dea0       ?_Rrotate@?$_Tree@V?$_Tmap_traits@V?$basic_string@DU?$char_traits@D@std@@V?$allocator@D@2@@std@@HU?$less@V?$basic_string@DU?$char_traits@D@std@@V?$allocator@D@2@@std@@@2@V?$allocator@U?$pair@$$CBV?$basic_string@DU?$char_traits@D@std@@V?$allocator@D@2@@std@@H@std@@@2@$0A@@std@@@std@@IAEXPAU_Node@?$_Tree_nod@V?$_Tmap_traits@V?$basic_string@DU?$char_traits@D@std@@V?$allocator@D@2@@std@@HU?$less@V?$basic_string@DU?$char_traits@D@std@@V?$allocator@D@2@@std@@@2@V?$allocator@U?$pair@$$CBV?$basic_string@DU?$char_traits@D@std@@V?$allocator@D@2@@std@@H@std@@@2@$0A@@std@@@2@@Z 1000eea0 f i CommonFrameMain.obj
 0001:0000def0       ?_Buynode@?$list@V?$basic_string@DU?$char_traits@D@std@@V?$allocator@D@2@@std@@V?$allocator@V?$basic_string@DU?$char_traits@D@std@@V?$allocator@D@2@@std@@@2@@std@@IAEPAU_Node@?$_List_nod@V?$basic_string@DU?$char_traits@D@std@@V?$allocator@D@2@@std@@V?$allocator@V?$basic_string@DU?$char_traits@D@std@@V?$allocator@D@2@@std@@@2@@2@PAU342@0ABV?$basic_string@DU?$char_traits@D@std@@V?$allocator@D@2@@2@@Z 1000eef0 f i CommonFrameMain.obj
 0001:0000df90       ?_Incsize@?$list@V?$basic_string@DU?$char_traits@D@std@@V?$allocator@D@2@@std@@V?$allocator@V?$basic_string@DU?$char_traits@D@std@@V?$allocator@D@2@@std@@@2@@std@@IAEXI@Z 1000ef90 f i CommonFrameMain.obj
 0001:0000e030       ?erase@?$_Tree@V?$_Tset_traits@V?$basic_string@DU?$char_traits@D@std@@V?$allocator@D@2@@std@@U?$less@V?$basic_string@DU?$char_traits@D@std@@V?$allocator@D@2@@std@@@2@V?$allocator@V?$basic_string@DU?$char_traits@D@std@@V?$allocator@D@2@@std@@@2@$0A@@std@@@std@@QAE?AViterator@12@V312@0@Z 1000f030 f i CommonFrameMain.obj
 0001:0000e100       ?_Copy@?$_Tree@V?$_Tset_traits@V?$basic_string@DU?$char_traits@D@std@@V?$allocator@D@2@@std@@U?$less@V?$basic_string@DU?$char_traits@D@std@@V?$allocator@D@2@@std@@@2@V?$allocator@V?$basic_string@DU?$char_traits@D@std@@V?$allocator@D@2@@std@@@2@$0A@@std@@@std@@IAEPAU_Node@?$_Tree_nod@V?$_Tset_traits@V?$basic_string@DU?$char_traits@D@std@@V?$allocator@D@2@@std@@U?$less@V?$basic_string@DU?$char_traits@D@std@@V?$allocator@D@2@@std@@@2@V?$allocator@V?$basic_string@DU?$char_traits@D@std@@V?$allocator@D@2@@std@@@2@$0A@@std@@@2@PAU342@0@Z 1000f100 f i CommonFrameMain.obj
 0001:0000e1c0       ?_Buynode@?$_Tree@V?$_Tset_traits@V?$basic_string@DU?$char_traits@D@std@@V?$allocator@D@2@@std@@U?$less@V?$basic_string@DU?$char_traits@D@std@@V?$allocator@D@2@@std@@@2@V?$allocator@V?$basic_string@DU?$char_traits@D@std@@V?$allocator@D@2@@std@@@2@$0A@@std@@@std@@IAEPAU_Node@?$_Tree_nod@V?$_Tset_traits@V?$basic_string@DU?$char_traits@D@std@@V?$allocator@D@2@@std@@U?$less@V?$basic_string@DU?$char_traits@D@std@@V?$allocator@D@2@@std@@@2@V?$allocator@V?$basic_string@DU?$char_traits@D@std@@V?$allocator@D@2@@std@@@2@$0A@@std@@@2@XZ 1000f1c0 f i CommonFrameMain.obj
 0001:0000e200       ?_Buynode@?$_Tree@V?$_Tset_traits@V?$basic_string@DU?$char_traits@D@std@@V?$allocator@D@2@@std@@U?$less@V?$basic_string@DU?$char_traits@D@std@@V?$allocator@D@2@@std@@@2@V?$allocator@V?$basic_string@DU?$char_traits@D@std@@V?$allocator@D@2@@std@@@2@$0A@@std@@@std@@IAEPAU_Node@?$_Tree_nod@V?$_Tset_traits@V?$basic_string@DU?$char_traits@D@std@@V?$allocator@D@2@@std@@U?$less@V?$basic_string@DU?$char_traits@D@std@@V?$allocator@D@2@@std@@@2@V?$allocator@V?$basic_string@DU?$char_traits@D@std@@V?$allocator@D@2@@std@@@2@$0A@@std@@@2@PAU342@00ABV?$basic_string@DU?$char_traits@D@std@@V?$allocator@D@2@@2@D@Z 1000f200 f i CommonFrameMain.obj
 0001:0000e2b0       ?_Inc@const_iterator@?$_Tree@V?$_Tset_traits@V?$basic_string@DU?$char_traits@D@std@@V?$allocator@D@2@@std@@U?$less@V?$basic_string@DU?$char_traits@D@std@@V?$allocator@D@2@@std@@@2@V?$allocator@V?$basic_string@DU?$char_traits@D@std@@V?$allocator@D@2@@std@@@2@$0A@@std@@@std@@QAEXXZ 1000f2b0 f i CommonFrameMain.obj
 0001:0000e2b0       ?_Inc@const_iterator@?$_Tree@V?$_Tmap_traits@VCZString@Value@Json@@V23@U?$less@VCZString@Value@Json@@@std@@V?$allocator@U?$pair@$$CBVCZString@Value@Json@@V23@@std@@@5@$0A@@std@@@std@@QAEXXZ 1000f2b0 f i json_value.obj
 0001:0000e320       ??1_Sentry_base@?$basic_ostream@DU?$char_traits@D@std@@@std@@QAE@XZ 1000f320 f i CommonFrameMain.obj
 0001:0000e340       ?_Copy@?$basic_string@DU?$char_traits@D@std@@V?$allocator@D@2@@std@@IAEXII@Z 1000f340 f i CommonFrameMain.obj
 0001:0000e480       ?widen@?$basic_ios@DU?$char_traits@D@std@@@std@@QBEDD@Z 1000f480 f i CommonFrameMain.obj
 0001:0000e540       ?_Buynode@?$_Tree@V?$_Tmap_traits@V?$basic_string@DU?$char_traits@D@std@@V?$allocator@D@2@@std@@PAUHINSTANCE__@@U?$less@V?$basic_string@DU?$char_traits@D@std@@V?$allocator@D@2@@std@@@2@V?$allocator@U?$pair@$$CBV?$basic_string@DU?$char_traits@D@std@@V?$allocator@D@2@@std@@PAUHINSTANCE__@@@std@@@2@$0A@@std@@@std@@IAEPAU_Node@?$_Tree_nod@V?$_Tmap_traits@V?$basic_string@DU?$char_traits@D@std@@V?$allocator@D@2@@std@@PAUHINSTANCE__@@U?$less@V?$basic_string@DU?$char_traits@D@std@@V?$allocator@D@2@@std@@@2@V?$allocator@U?$pair@$$CBV?$basic_string@DU?$char_traits@D@std@@V?$allocator@D@2@@std@@PAUHINSTANCE__@@@std@@@2@$0A@@std@@@2@XZ 1000f540 f i CommonFrameMain.obj
 0001:0000e540       ?_Buynode@?$_Tree@V?$_Tmap_traits@V?$basic_string@DU?$char_traits@D@std@@V?$allocator@D@2@@std@@HU?$less@V?$basic_string@DU?$char_traits@D@std@@V?$allocator@D@2@@std@@@2@V?$allocator@U?$pair@$$CBV?$basic_string@DU?$char_traits@D@std@@V?$allocator@D@2@@std@@H@std@@@2@$0A@@std@@@std@@IAEPAU_Node@?$_Tree_nod@V?$_Tmap_traits@V?$basic_string@DU?$char_traits@D@std@@V?$allocator@D@2@@std@@HU?$less@V?$basic_string@DU?$char_traits@D@std@@V?$allocator@D@2@@std@@@2@V?$allocator@U?$pair@$$CBV?$basic_string@DU?$char_traits@D@std@@V?$allocator@D@2@@std@@H@std@@@2@$0A@@std@@@2@XZ 1000f540 f i CommonFrameMain.obj
 0001:0000e580       ?erase@?$_Tree@V?$_Tset_traits@V?$basic_string@DU?$char_traits@D@std@@V?$allocator@D@2@@std@@U?$less@V?$basic_string@DU?$char_traits@D@std@@V?$allocator@D@2@@std@@@2@V?$allocator@V?$basic_string@DU?$char_traits@D@std@@V?$allocator@D@2@@std@@@2@$0A@@std@@@std@@QAE?AViterator@12@V312@@Z 1000f580 f i CommonFrameMain.obj
 0001:0000e890       ?_Erase@?$_Tree@V?$_Tset_traits@V?$basic_string@DU?$char_traits@D@std@@V?$allocator@D@2@@std@@U?$less@V?$basic_string@DU?$char_traits@D@std@@V?$allocator@D@2@@std@@@2@V?$allocator@V?$basic_string@DU?$char_traits@D@std@@V?$allocator@D@2@@std@@@2@$0A@@std@@@std@@IAEXPAU_Node@?$_Tree_nod@V?$_Tset_traits@V?$basic_string@DU?$char_traits@D@std@@V?$allocator@D@2@@std@@U?$less@V?$basic_string@DU?$char_traits@D@std@@V?$allocator@D@2@@std@@@2@V?$allocator@V?$basic_string@DU?$char_traits@D@std@@V?$allocator@D@2@@std@@@2@$0A@@std@@@2@@Z 1000f890 f i CommonFrameMain.obj
 0001:0000e8f0       ?_Lbound@?$_Tree@V?$_Tset_traits@V?$basic_string@DU?$char_traits@D@std@@V?$allocator@D@2@@std@@U?$less@V?$basic_string@DU?$char_traits@D@std@@V?$allocator@D@2@@std@@@2@V?$allocator@V?$basic_string@DU?$char_traits@D@std@@V?$allocator@D@2@@std@@@2@$0A@@std@@@std@@IBEPAU_Node@?$_Tree_nod@V?$_Tset_traits@V?$basic_string@DU?$char_traits@D@std@@V?$allocator@D@2@@std@@U?$less@V?$basic_string@DU?$char_traits@D@std@@V?$allocator@D@2@@std@@@2@V?$allocator@V?$basic_string@DU?$char_traits@D@std@@V?$allocator@D@2@@std@@@2@$0A@@std@@@2@ABV?$basic_string@DU?$char_traits@D@std@@V?$allocator@D@2@@2@@Z 1000f8f0 f i CommonFrameMain.obj
 0001:0000e980       ?_Ubound@?$_Tree@V?$_Tset_traits@V?$basic_string@DU?$char_traits@D@std@@V?$allocator@D@2@@std@@U?$less@V?$basic_string@DU?$char_traits@D@std@@V?$allocator@D@2@@std@@@2@V?$allocator@V?$basic_string@DU?$char_traits@D@std@@V?$allocator@D@2@@std@@@2@$0A@@std@@@std@@IBEPAU_Node@?$_Tree_nod@V?$_Tset_traits@V?$basic_string@DU?$char_traits@D@std@@V?$allocator@D@2@@std@@U?$less@V?$basic_string@DU?$char_traits@D@std@@V?$allocator@D@2@@std@@@2@V?$allocator@V?$basic_string@DU?$char_traits@D@std@@V?$allocator@D@2@@std@@@2@$0A@@std@@@2@ABV?$basic_string@DU?$char_traits@D@std@@V?$allocator@D@2@@2@@Z 1000f980 f i CommonFrameMain.obj
 0001:0000ea20       ?_Dec@const_iterator@?$_Tree@V?$_Tmap_traits@VCZString@Value@Json@@V23@U?$less@VCZString@Value@Json@@@std@@V?$allocator@U?$pair@$$CBVCZString@Value@Json@@V23@@std@@@5@$0A@@std@@@std@@QAEXXZ 1000fa20 f i json_value.obj
 0001:0000ea20       ?_Dec@const_iterator@?$_Tree@V?$_Tset_traits@V?$basic_string@DU?$char_traits@D@std@@V?$allocator@D@2@@std@@U?$less@V?$basic_string@DU?$char_traits@D@std@@V?$allocator@D@2@@std@@@2@V?$allocator@V?$basic_string@DU?$char_traits@D@std@@V?$allocator@D@2@@std@@@2@$0A@@std@@@std@@QAEXXZ 1000fa20 f i CommonFrameMain.obj
 0001:0000eaa0       ?_Dec@const_iterator@?$_Tree@V?$_Tmap_traits@V?$basic_string@DU?$char_traits@D@std@@V?$allocator@D@2@@std@@HU?$less@V?$basic_string@DU?$char_traits@D@std@@V?$allocator@D@2@@std@@@2@V?$allocator@U?$pair@$$CBV?$basic_string@DU?$char_traits@D@std@@V?$allocator@D@2@@std@@H@std@@@2@$0A@@std@@@std@@QAEXXZ 1000faa0 f i CommonFrameMain.obj
 0001:0000eaa0       ?_Dec@const_iterator@?$_Tree@V?$_Tmap_traits@V?$basic_string@DU?$char_traits@D@std@@V?$allocator@D@2@@std@@PAUHINSTANCE__@@U?$less@V?$basic_string@DU?$char_traits@D@std@@V?$allocator@D@2@@std@@@2@V?$allocator@U?$pair@$$CBV?$basic_string@DU?$char_traits@D@std@@V?$allocator@D@2@@std@@PAUHINSTANCE__@@@std@@@2@$0A@@std@@@std@@QAEXXZ 1000faa0 f i CommonFrameMain.obj
 0001:0000eb20       ?_Inc@const_iterator@?$_Tree@V?$_Tmap_traits@V?$basic_string@DU?$char_traits@D@std@@V?$allocator@D@2@@std@@HU?$less@V?$basic_string@DU?$char_traits@D@std@@V?$allocator@D@2@@std@@@2@V?$allocator@U?$pair@$$CBV?$basic_string@DU?$char_traits@D@std@@V?$allocator@D@2@@std@@H@std@@@2@$0A@@std@@@std@@QAEXXZ 1000fb20 f i CommonFrameMain.obj
 0001:0000eb20       ?_Inc@const_iterator@?$_Tree@V?$_Tmap_traits@V?$basic_string@DU?$char_traits@D@std@@V?$allocator@D@2@@std@@PAUHINSTANCE__@@U?$less@V?$basic_string@DU?$char_traits@D@std@@V?$allocator@D@2@@std@@@2@V?$allocator@U?$pair@$$CBV?$basic_string@DU?$char_traits@D@std@@V?$allocator@D@2@@std@@PAUHINSTANCE__@@@std@@@2@$0A@@std@@@std@@QAEXXZ 1000fb20 f i CommonFrameMain.obj
 0001:0000eb90       ?allocate@?$allocator@D@std@@QAEPADI@Z 1000fb90 f i CommonFrameMain.obj
 0001:0000ebf0       ?_Erase@?$_Tree@V?$_Tmap_traits@V?$basic_string@DU?$char_traits@D@std@@V?$allocator@D@2@@std@@PAUHINSTANCE__@@U?$less@V?$basic_string@DU?$char_traits@D@std@@V?$allocator@D@2@@std@@@2@V?$allocator@U?$pair@$$CBV?$basic_string@DU?$char_traits@D@std@@V?$allocator@D@2@@std@@PAUHINSTANCE__@@@std@@@2@$0A@@std@@@std@@IAEXPAU_Node@?$_Tree_nod@V?$_Tmap_traits@V?$basic_string@DU?$char_traits@D@std@@V?$allocator@D@2@@std@@PAUHINSTANCE__@@U?$less@V?$basic_string@DU?$char_traits@D@std@@V?$allocator@D@2@@std@@@2@V?$allocator@U?$pair@$$CBV?$basic_string@DU?$char_traits@D@std@@V?$allocator@D@2@@std@@PAUHINSTANCE__@@@std@@@2@$0A@@std@@@2@@Z 1000fbf0 f i CommonFrameMain.obj
 0001:0000ebf0       ?_Erase@?$_Tree@V?$_Tmap_traits@V?$basic_string@DU?$char_traits@D@std@@V?$allocator@D@2@@std@@HU?$less@V?$basic_string@DU?$char_traits@D@std@@V?$allocator@D@2@@std@@@2@V?$allocator@U?$pair@$$CBV?$basic_string@DU?$char_traits@D@std@@V?$allocator@D@2@@std@@H@std@@@2@$0A@@std@@@std@@IAEXPAU_Node@?$_Tree_nod@V?$_Tmap_traits@V?$basic_string@DU?$char_traits@D@std@@V?$allocator@D@2@@std@@HU?$less@V?$basic_string@DU?$char_traits@D@std@@V?$allocator@D@2@@std@@@2@V?$allocator@U?$pair@$$CBV?$basic_string@DU?$char_traits@D@std@@V?$allocator@D@2@@std@@H@std@@@2@$0A@@std@@@2@@Z 1000fbf0 f i CommonFrameMain.obj
 0001:0000ec50       ??$use_facet@V?$ctype@D@std@@@std@@YAABV?$ctype@D@0@ABVlocale@0@@Z 1000fc50 f i CommonFrameMain.obj
 0001:0000eda0       ??$?6U?$char_traits@D@std@@@std@@YAAAV?$basic_ostream@DU?$char_traits@D@std@@@0@AAV10@PBD@Z 1000fda0 f i CommonFrameMain.obj
 0001:0000efe0       ??$?0V?$istreambuf_iterator@DU?$char_traits@D@std@@@std@@@?$basic_string@DU?$char_traits@D@std@@V?$allocator@D@2@@std@@QAE@V?$istreambuf_iterator@DU?$char_traits@D@std@@@1@0@Z 1000ffe0 f i CommonFrameMain.obj
 0001:0000f040       ??$?HDU?$char_traits@D@std@@V?$allocator@D@1@@std@@YA?AV?$basic_string@DU?$char_traits@D@std@@V?$allocator@D@2@@0@ABV10@PBD@Z 10010040 f i CommonFrameMain.obj
 0001:0000f0f0       ??$?HDU?$char_traits@D@std@@V?$allocator@D@1@@std@@YA?AV?$basic_string@DU?$char_traits@D@std@@V?$allocator@D@2@@0@PBDABV10@@Z 100100f0 f i CommonFrameMain.obj
 0001:0000f1a0       ??$?HDU?$char_traits@D@std@@V?$allocator@D@1@@std@@YA?AV?$basic_string@DU?$char_traits@D@std@@V?$allocator@D@2@@0@ABV10@0@Z 100101a0 f i CommonFrameMain.obj
 0001:0000f250       ??$use_facet@V?$codecvt@DDH@std@@@std@@YAABV?$codecvt@DDH@0@ABVlocale@0@@Z 10010250 f i CommonFrameMain.obj
 0001:0000f3a0       ??$?MDU?$char_traits@D@std@@V?$allocator@D@1@@std@@YA_NABV?$basic_string@DU?$char_traits@D@std@@V?$allocator@D@2@@0@0@Z 100103a0 f i CommonFrameMain.obj
 0001:0000f400       ??$_Construct@V?$basic_string@DU?$char_traits@D@std@@V?$allocator@D@2@@std@@V12@@std@@YAXPAV?$basic_string@DU?$char_traits@D@std@@V?$allocator@D@2@@0@ABV10@@Z 10010400 f i CommonFrameMain.obj
 0001:0000f460       ??0bad_alloc@std@@QAE@ABV01@@Z 10010460 f i CommonFrameMain.obj
 0001:0000f480       ??1ErrorInfo@Reader@Json@@QAE@XZ 10010480 f i CommonFrameMain.obj
 0001:0000f4b0       ??Y?$basic_string@DU?$char_traits@D@std@@V?$allocator@D@2@@std@@QAEAAV01@PBD@Z 100104b0 f i CommonFrameMain.obj
 0001:0000f4d0       ?_Getcat@?$codecvt@DDH@std@@SAIPAPBVfacet@locale@2@@Z 100104d0 f i CommonFrameMain.obj
 0001:0000f540       ??0?$codecvt@DDH@std@@QAE@I@Z 10010540 f i CommonFrameMain.obj
 0001:0000f5d0       ??$_Construct@V?$istreambuf_iterator@DU?$char_traits@D@std@@@std@@@?$basic_string@DU?$char_traits@D@std@@V?$allocator@D@2@@std@@QAEXV?$istreambuf_iterator@DU?$char_traits@D@std@@@1@0Uinput_iterator_tag@1@@Z 100105d0 f i CommonFrameMain.obj
 0001:0000f770       ??$_Copy_opt@Viterator@?$_Tree@V?$_Tset_traits@V?$basic_string@DU?$char_traits@D@std@@V?$allocator@D@2@@std@@U?$less@V?$basic_string@DU?$char_traits@D@std@@V?$allocator@D@2@@std@@@2@V?$allocator@V?$basic_string@DU?$char_traits@D@std@@V?$allocator@D@2@@std@@@2@$0A@@std@@@std@@V?$back_insert_iterator@V?$list@V?$basic_string@DU?$char_traits@D@std@@V?$allocator@D@2@@std@@V?$allocator@V?$basic_string@DU?$char_traits@D@std@@V?$allocator@D@2@@std@@@2@@std@@@3@Uforward_iterator_tag@3@@std@@YA?AV?$back_insert_iterator@V?$list@V?$basic_string@DU?$char_traits@D@std@@V?$allocator@D@2@@std@@V?$allocator@V?$basic_string@DU?$char_traits@D@std@@V?$allocator@D@2@@std@@@2@@std@@@0@Viterator@?$_Tree@V?$_Tset_traits@V?$basic_string@DU?$char_traits@D@std@@V?$allocator@D@2@@std@@U?$less@V?$basic_string@DU?$char_traits@D@std@@V?$allocator@D@2@@std@@@2@V?$allocator@V?$basic_string@DU?$char_traits@D@std@@V?$allocator@D@2@@std@@@2@$0A@@std@@@0@0V10@Uforward_iterator_tag@0@U_Nonscalar_ptr_iterator_tag@0@U_Range_checked_iterator_tag@0@@Z 10010770 f i CommonFrameMain.obj
 0001:0000f7f0       ??$_Destroy_range@V?$basic_string@DU?$char_traits@D@std@@V?$allocator@D@2@@std@@V?$allocator@V?$basic_string@DU?$char_traits@D@std@@V?$allocator@D@2@@std@@@2@@std@@YAXPAV?$basic_string@DU?$char_traits@D@std@@V?$allocator@D@2@@0@0AAV?$allocator@V?$basic_string@DU?$char_traits@D@std@@V?$allocator@D@2@@std@@@0@U_Nonscalar_ptr_iterator_tag@0@@Z 100107f0 f i CommonFrameMain.obj
 0001:0000f830       ?equal@?$istreambuf_iterator@DU?$char_traits@D@std@@@std@@QBE_NABV12@@Z 10010830 f i CommonFrameMain.obj
 0001:0000f8d0       ?AfxCrtErrorCheck@@YAHH@Z  100108d0 f i FrameConfigFileOperate.obj
 0001:0000f960       ?AtlThrowImpl@ATL@@YGXJ@Z  10010960 f i FrameConfigFileOperate.obj
 0001:0000f980       ?_AtlGetStringResourceImage@ATL@@YAPBUATLSTRINGRESOURCEIMAGE@1@PAUHINSTANCE__@@PAUHRSRC__@@I@Z 10010980 f i FrameConfigFileOperate.obj
 0001:0000f9f0       ?AtlGetStringResourceImage@ATL@@YAPBUATLSTRINGRESOURCEIMAGE@1@PAUHINSTANCE__@@I@Z 100109f0 f i FrameConfigFileOperate.obj
 0001:0000fa30       ?Release@CStringData@ATL@@QAEXXZ 10010a30 f i FrameConfigFileOperate.obj
 0001:0000fa50       ?parseFilePathConfig@FrameConfigFileOperate@@QAE_NPAUST_FRAME_CONFIG_INFO_T@@AAV?$basic_string@DU?$char_traits@D@std@@V?$allocator@D@2@@std@@@Z 10010a50 f   FrameConfigFileOperate.obj
 0001:000102e0       ?getJsonData@FrameConfigFileOperate@@QAE_NAAVValue@Json@@PAD1@Z 100112e0 f   FrameConfigFileOperate.obj
 0001:00010410       ??0?$CStringT@DV?$StrTraitMFC@DV?$ChTraitsCRT@D@ATL@@@@@ATL@@QAE@XZ 10011410 f i FrameConfigFileOperate.obj
 0001:00010440       ??0?$CStringT@DV?$StrTraitMFC@DV?$ChTraitsCRT@D@ATL@@@@@ATL@@QAE@PBD@Z 10011440 f i FrameConfigFileOperate.obj
 0001:00010500       ?Left@?$CStringT@DV?$StrTraitMFC@DV?$ChTraitsCRT@D@ATL@@@@@ATL@@QBE?AV12@H@Z 10011500 f i FrameConfigFileOperate.obj
 0001:00010580       ?LoadStringA@?$CStringT@DV?$StrTraitMFC@DV?$ChTraitsCRT@D@ATL@@@@@ATL@@QAEHI@Z 10011580 f i FrameConfigFileOperate.obj
 0001:000105b0       ??0?$CStringT@DV?$StrTraitMFC@DV?$ChTraitsCRT@D@ATL@@@@@ATL@@QAE@PBDHPAUIAtlStringMgr@1@@Z 100115b0 f i FrameConfigFileOperate.obj
 0001:000105d0       ?GetManager@?$CStringT@DV?$StrTraitMFC@DV?$ChTraitsCRT@D@ATL@@@@@ATL@@QBEPAUIAtlStringMgr@2@XZ 100115d0 f i FrameConfigFileOperate.obj
 0001:00010600       ?LoadStringA@?$CStringT@DV?$StrTraitMFC@DV?$ChTraitsCRT@D@ATL@@@@@ATL@@QAEHPAUHINSTANCE__@@I@Z 10011600 f i FrameConfigFileOperate.obj
 0001:000106d0       ?CheckImplicitLoad@?$CStringT@DV?$StrTraitMFC@DV?$ChTraitsCRT@D@ATL@@@@@ATL@@AAE_NPBX@Z 100116d0 f i FrameConfigFileOperate.obj
 0001:00010710       ??0?$CSimpleStringT@D$0A@@ATL@@QAE@PAUIAtlStringMgr@1@@Z 10011710 f i FrameConfigFileOperate.obj
 0001:00010740       ??0?$CSimpleStringT@D$0A@@ATL@@QAE@ABV01@@Z 10011740 f i FrameConfigFileOperate.obj
 0001:00010760       ??1?$CSimpleStringT@D$0A@@ATL@@QAE@XZ 10011760 f i FrameConfigFileOperate.obj
 0001:00010760       ??1?$CStringT@DV?$StrTraitMFC@DV?$ChTraitsCRT@D@ATL@@@@@ATL@@QAE@XZ 10011760 f i FrameConfigFileOperate.obj
 0001:00010780       ??4?$CSimpleStringT@D$0A@@ATL@@QAEAAV01@ABV01@@Z 10011780 f i FrameConfigFileOperate.obj
 0001:00010800       ?PrepareWrite@?$CSimpleStringT@D$0A@@ATL@@AAEPADH@Z 10011800 f i FrameConfigFileOperate.obj
 0001:00010830       ?SetLength@?$CSimpleStringT@D$0A@@ATL@@AAEXH@Z 10011830 f i FrameConfigFileOperate.obj
 0001:00010860       ??0?$CSimpleStringT@D$0A@@ATL@@QAE@PBDHPAUIAtlStringMgr@1@@Z 10011860 f i FrameConfigFileOperate.obj
 0001:000108d0       ?SetString@?$CSimpleStringT@D$0A@@ATL@@QAEXPBD@Z 100118d0 f i FrameConfigFileOperate.obj
 0001:00010910       ?SetString@?$CSimpleStringT@D$0A@@ATL@@QAEXPBDH@Z 10011910 f i FrameConfigFileOperate.obj
 0001:000109a0       ?PrepareWrite2@?$CSimpleStringT@D$0A@@ATL@@AAEXH@Z 100119a0 f i FrameConfigFileOperate.obj
 0001:000109f0       ?CloneData@?$CSimpleStringT@D$0A@@ATL@@CAPAUCStringData@2@PAU32@@Z 100119f0 f i FrameConfigFileOperate.obj
 0001:00010a60       ?Empty@?$CSimpleStringT@D$0A@@ATL@@QAEXXZ 10011a60 f i FrameConfigFileOperate.obj
 0001:00010ac0       ?ThrowMemoryException@?$CSimpleStringT@D$0A@@ATL@@KAXXZ 10011ac0 f i FrameConfigFileOperate.obj
 0001:00010ad0       ?Fork@?$CSimpleStringT@D$0A@@ATL@@AAEXH@Z 10011ad0 f i FrameConfigFileOperate.obj
 0001:00010b50       ?Reallocate@?$CSimpleStringT@D$0A@@ATL@@AAEXH@Z 10011b50 f i FrameConfigFileOperate.obj
 0001:00010b90       ?Format@?$CStringT@DV?$StrTraitMFC@DV?$ChTraitsCRT@D@ATL@@@@@ATL@@QAAXPBDZZ 10011b90 f i FrameConfigFileOperate.obj
 0001:00010bb0       ??$AtlMultiplyThrow@I@ATL@@YAIII@Z 10011bb0 f i FrameConfigFileOperate.obj
 0001:00010bd0       ?FormatV@?$CStringT@DV?$StrTraitMFC@DV?$ChTraitsCRT@D@ATL@@@@@ATL@@QAEXPBDPAD@Z 10011bd0 f i FrameConfigFileOperate.obj
 0001:00010eb0       ?parse@Reader@Json@@QAE_NPBD0AAVValue@2@_N@Z 10011eb0 f   json_reader.obj
 0001:00011030       ?readValue@Reader@Json@@AAE_NXZ 10012030 f   json_reader.obj
 0001:00011260       ?readToken@Reader@Json@@AAE_NAAVToken@12@@Z 10012260 f   json_reader.obj
 0001:000114f0       ?readComment@Reader@Json@@AAE_NXZ 100124f0 f   json_reader.obj
 0001:00011570       ?addComment@Reader@Json@@AAEXPBD0W4CommentPlacement@2@@Z 10012570 f   json_reader.obj
 0001:00011670       ?readCStyleComment@Reader@Json@@AAE_NXZ 10012670 f   json_reader.obj
 0001:000116d0       ?readCppStyleComment@Reader@Json@@AAE_NXZ 100126d0 f   json_reader.obj
 0001:00011710       ?readNumber@Reader@Json@@AAEXXZ 10012710 f   json_reader.obj
 0001:00011750       ?readString@Reader@Json@@AAE_NXZ 10012750 f   json_reader.obj
 0001:000117a0       ?readObject@Reader@Json@@AAE_NAAVToken@12@@Z 100127a0 f   json_reader.obj
 0001:00011c40       ?readArray@Reader@Json@@AAE_NAAVToken@12@@Z 10012c40 f   json_reader.obj
 0001:00011ee0       ?decodeNumber@Reader@Json@@AAE_NAAVToken@12@@Z 10012ee0 f   json_reader.obj
 0001:00012170       ?decodeDouble@Reader@Json@@AAE_NAAVToken@12@@Z 10013170 f   json_reader.obj
 0001:000123b0       ?decodeString@Reader@Json@@AAE_NAAVToken@12@@Z 100133b0 f   json_reader.obj
 0001:00012490       ?decodeString@Reader@Json@@AAE_NAAVToken@12@AAV?$basic_string@DU?$char_traits@D@std@@V?$allocator@D@2@@std@@@Z 10013490 f   json_reader.obj
 0001:00012840       ?decodeUnicodeCodePoint@Reader@Json@@AAE_NAAVToken@12@AAPBDPBDAAI@Z 10013840 f   json_reader.obj
 0001:00012980       ?decodeUnicodeEscapeSequence@Reader@Json@@AAE_NAAVToken@12@AAPBDPBDAAI@Z 10013980 f   json_reader.obj
 0001:00012b00       ?addError@Reader@Json@@AAE_NABV?$basic_string@DU?$char_traits@D@std@@V?$allocator@D@2@@std@@AAVToken@12@PBD@Z 10013b00 f   json_reader.obj
 0001:00012c00       ?recoverFromError@Reader@Json@@AAE_NW4TokenType@12@@Z 10013c00 f   json_reader.obj
 0001:00012c80       ?back@?$deque@PAVValue@Json@@V?$allocator@PAVValue@Json@@@std@@@std@@QAEAAPAVValue@Json@@XZ 10013c80 f i json_reader.obj
 0001:00012ce0       ?push_back@?$deque@PAVValue@Json@@V?$allocator@PAVValue@Json@@@std@@@std@@QAEXABQAVValue@Json@@@Z 10013ce0 f i json_reader.obj
 0001:00012d60       ?resize@?$deque@VErrorInfo@Reader@Json@@V?$allocator@VErrorInfo@Reader@Json@@@std@@@std@@QAEXIVErrorInfo@Reader@Json@@@Z 10013d60 f i json_reader.obj
 0001:00012e80       ?_Growmap@?$deque@VErrorInfo@Reader@Json@@V?$allocator@VErrorInfo@Reader@Json@@@std@@@std@@IAEXI@Z 10013e80 f i json_reader.obj
 0001:00012fe0       ?_Growmap@?$deque@PAVValue@Json@@V?$allocator@PAVValue@Json@@@std@@@std@@IAEXI@Z 10013fe0 f i json_reader.obj
 0001:00013140       ?erase@?$deque@VErrorInfo@Reader@Json@@V?$allocator@VErrorInfo@Reader@Json@@@std@@@std@@QAE?AV?$_Deque_iterator@VErrorInfo@Reader@Json@@V?$allocator@VErrorInfo@Reader@Json@@@std@@$00@2@V32@0@Z 10014140 f i json_reader.obj
 0001:00013370       ?_Insert_n@?$deque@VErrorInfo@Reader@Json@@V?$allocator@VErrorInfo@Reader@Json@@@std@@@std@@IAEXV?$_Deque_iterator@VErrorInfo@Reader@Json@@V?$allocator@VErrorInfo@Reader@Json@@@std@@$00@2@IABVErrorInfo@Reader@Json@@@Z 10014370 f i json_reader.obj
 0001:00013c20       ?_Xlen@?$deque@VErrorInfo@Reader@Json@@V?$allocator@VErrorInfo@Reader@Json@@@std@@@std@@KAXXZ 10014c20 f i json_reader.obj
 0001:00013c20       ?_Xlen@?$deque@PAVValue@Json@@V?$allocator@PAVValue@Json@@@std@@@std@@KAXXZ 10014c20 f i json_reader.obj
 0001:00013ca0       ?allocate@?$allocator@PAVErrorInfo@Reader@Json@@@std@@QAEPAPAVErrorInfo@Reader@Json@@I@Z 10014ca0 f i json_reader.obj
 0001:00013ca0       ?allocate@?$allocator@PAPAVValue@Json@@@std@@QAEPAPAPAVValue@Json@@I@Z 10014ca0 f i json_reader.obj
 0001:00013d00       ?pop_front@?$deque@VErrorInfo@Reader@Json@@V?$allocator@VErrorInfo@Reader@Json@@@std@@@std@@QAEXXZ 10014d00 f i json_reader.obj
 0001:00013d50       ??$_Construct@VErrorInfo@Reader@Json@@V123@@std@@YAXPAVErrorInfo@Reader@Json@@ABV123@@Z 10014d50 f i json_reader.obj
 0001:00013dd0       ??$copy_backward@V?$_Deque_iterator@VErrorInfo@Reader@Json@@V?$allocator@VErrorInfo@Reader@Json@@@std@@$00@std@@V12@@std@@YA?AV?$_Deque_iterator@VErrorInfo@Reader@Json@@V?$allocator@VErrorInfo@Reader@Json@@@std@@$00@0@V10@00@Z 10014dd0 f i json_reader.obj
 0001:00013e40       ??$copy@V?$_Deque_iterator@VErrorInfo@Reader@Json@@V?$allocator@VErrorInfo@Reader@Json@@@std@@$00@std@@V12@@std@@YA?AV?$_Deque_iterator@VErrorInfo@Reader@Json@@V?$allocator@VErrorInfo@Reader@Json@@@std@@$00@0@V10@00@Z 10014e40 f i json_reader.obj
 0001:00013eb0       ??$_Copy_backward_opt@V?$_Deque_iterator@VErrorInfo@Reader@Json@@V?$allocator@VErrorInfo@Reader@Json@@@std@@$0A@@std@@V?$_Deque_iterator@VErrorInfo@Reader@Json@@V?$allocator@VErrorInfo@Reader@Json@@@std@@$00@2@@std@@YA?AV?$_Deque_iterator@VErrorInfo@Reader@Json@@V?$allocator@VErrorInfo@Reader@Json@@@std@@$00@0@V?$_Deque_iterator@VErrorInfo@Reader@Json@@V?$allocator@VErrorInfo@Reader@Json@@@std@@$0A@@0@0V10@Urandom_access_iterator_tag@0@U_Nonscalar_ptr_iterator_tag@0@U_Range_checked_iterator_tag@0@@Z 10014eb0 f i json_reader.obj
 0001:00013f70       ??$_Copy_opt@V?$_Deque_iterator@VErrorInfo@Reader@Json@@V?$allocator@VErrorInfo@Reader@Json@@@std@@$0A@@std@@V?$_Deque_iterator@VErrorInfo@Reader@Json@@V?$allocator@VErrorInfo@Reader@Json@@@std@@$00@2@@std@@YA?AV?$_Deque_iterator@VErrorInfo@Reader@Json@@V?$allocator@VErrorInfo@Reader@Json@@@std@@$00@0@V?$_Deque_iterator@VErrorInfo@Reader@Json@@V?$allocator@VErrorInfo@Reader@Json@@@std@@$0A@@0@0V10@Urandom_access_iterator_tag@0@U_Nonscalar_ptr_iterator_tag@0@U_Range_checked_iterator_tag@0@@Z 10014f70 f i json_reader.obj
 0001:00014030       ??$_Fill@V?$_Deque_iterator@VErrorInfo@Reader@Json@@V?$allocator@VErrorInfo@Reader@Json@@@std@@$0A@@std@@VErrorInfo@Reader@Json@@@std@@YAXV?$_Deque_iterator@VErrorInfo@Reader@Json@@V?$allocator@VErrorInfo@Reader@Json@@@std@@$0A@@0@0ABVErrorInfo@Reader@Json@@@Z 10015030 f i json_reader.obj
 0001:000140a0       ??$_Copy_backward_opt@V?$_Deque_iterator@VErrorInfo@Reader@Json@@V?$allocator@VErrorInfo@Reader@Json@@@std@@$0A@@std@@V12@Uforward_iterator_tag@2@@std@@YA?AV?$_Deque_iterator@VErrorInfo@Reader@Json@@V?$allocator@VErrorInfo@Reader@Json@@@std@@$0A@@0@V10@00Uforward_iterator_tag@0@U_Nonscalar_ptr_iterator_tag@0@U_Range_checked_iterator_tag@0@@Z 100150a0 f i json_reader.obj
 0001:00014170       ??$_Copy_opt@V?$_Deque_iterator@VErrorInfo@Reader@Json@@V?$allocator@VErrorInfo@Reader@Json@@@std@@$0A@@std@@V12@Uforward_iterator_tag@2@@std@@YA?AV?$_Deque_iterator@VErrorInfo@Reader@Json@@V?$allocator@VErrorInfo@Reader@Json@@@std@@$0A@@0@V10@00Uforward_iterator_tag@0@U_Nonscalar_ptr_iterator_tag@0@U_Range_checked_iterator_tag@0@@Z 10015170 f i json_reader.obj
 0001:00014240       ?makeMemberName@DefaultValueAllocator@Json@@UAEPADPBD@Z 10015240 f i json_value.obj
 0001:00014260       ?releaseMemberName@DefaultValueAllocator@Json@@UAEXPAD@Z 10015260 f i json_value.obj
 0001:00014270       ?duplicateStringValue@DefaultValueAllocator@Json@@UAEPADPBDI@Z 10015270 f i json_value.obj
 0001:000142c0       ?releaseStringValue@DefaultValueAllocator@Json@@UAEXPAD@Z 100152c0 f i json_value.obj
 0001:000142e0       ??_GValueAllocator@Json@@UAEPAXI@Z 100152e0 f i json_value.obj
 0001:000142e0       ??_EValueAllocator@Json@@UAEPAXI@Z 100152e0 f i  CIL library: CIL module
 0001:000142e0       ??_EDefaultValueAllocator@Json@@UAEPAXI@Z 100152e0 f i  CIL library: CIL module
 0001:000142e0       ??_GDefaultValueAllocator@Json@@UAEPAXI@Z 100152e0 f i json_value.obj
 0001:00014330       ??0CommentInfo@Value@Json@@QAE@XZ 10015330 f   json_value.obj
 0001:00014340       ??1CommentInfo@Value@Json@@QAE@XZ 10015340 f   json_value.obj
 0001:00014390       ?setComment@CommentInfo@Value@Json@@QAEXPBD@Z 10015390 f   json_value.obj
 0001:000144a0       ??0CZString@Value@Json@@QAE@ABV012@@Z 100154a0 f   json_value.obj
 0001:00014510       ??1CZString@Value@Json@@QAE@XZ 10015510 f   json_value.obj
 0001:00014560       ??0Value@Json@@QAE@ABV?$basic_string@DU?$char_traits@D@std@@V?$allocator@D@2@@std@@@Z 10015560 f   json_value.obj
 0001:000145d0       ??0Value@Json@@QAE@ABV01@@Z 100155d0 f   json_value.obj
 0001:00014720       ??1Value@Json@@QAE@XZ      10015720 f   json_value.obj
 0001:000147c0       ??4Value@Json@@QAEAAV01@ABV01@@Z 100157c0 f   json_value.obj
 0001:00014840       ?asString@Value@Json@@QBE?AV?$basic_string@DU?$char_traits@D@std@@V?$allocator@D@2@@std@@XZ 10015840 f   json_value.obj
 0001:00014970       ?asInt@Value@Json@@QBEHXZ  10015970 f   json_value.obj
 0001:00014b20       ?asUInt@Value@Json@@QBEIXZ 10015b20 f   json_value.obj
 0001:00014ce0       ?asDouble@Value@Json@@QBENXZ 10015ce0 f   json_value.obj
 0001:00014df0       ?asBool@Value@Json@@QBE_NXZ 10015df0 f   json_value.obj
 0001:00014e60       ?size@Value@Json@@QBEIXZ   10015e60 f   json_value.obj
 0001:00014ee0       ??AValue@Json@@QAEAAV01@I@Z 10015ee0 f   json_value.obj
 0001:000150c0       ??1?$pair@$$CBVCZString@Value@Json@@V23@@std@@QAE@XZ 100160c0 f i json_value.obj
 0001:00015160       ??AValue@Json@@QBEABV01@I@Z 10016160 f   json_value.obj
 0001:00015230       ?resolveReference@Value@Json@@AAEAAV12@PBD_N@Z 10016230 f   json_value.obj
 0001:00015410       ??AValue@Json@@QBEABV01@PBD@Z 10016410 f   json_value.obj
 0001:000154e0       ?getMemberNames@Value@Json@@QBE?AV?$vector@V?$basic_string@DU?$char_traits@D@std@@V?$allocator@D@2@@std@@V?$allocator@V?$basic_string@DU?$char_traits@D@std@@V?$allocator@D@2@@std@@@2@@std@@XZ 100164e0 f   json_value.obj
 0001:00015650       ?setComment@Value@Json@@QAEXPBDW4CommentPlacement@2@@Z 10016650 f   json_value.obj
 0001:000156e0       ??0?$_Tree@V?$_Tmap_traits@VCZString@Value@Json@@V23@U?$less@VCZString@Value@Json@@@std@@V?$allocator@U?$pair@$$CBVCZString@Value@Json@@V23@@std@@@5@$0A@@std@@@std@@QAE@ABV01@@Z 100166e0 f i json_value.obj
 0001:00015770       ?insert@?$_Tree@V?$_Tmap_traits@VCZString@Value@Json@@V23@U?$less@VCZString@Value@Json@@@std@@V?$allocator@U?$pair@$$CBVCZString@Value@Json@@V23@@std@@@5@$0A@@std@@@std@@QAE?AViterator@12@V312@ABU?$pair@$$CBVCZString@Value@Json@@V23@@2@@Z 10016770 f i json_value.obj
 0001:00015980       ?erase@?$_Tree@V?$_Tmap_traits@VCZString@Value@Json@@V23@U?$less@VCZString@Value@Json@@@std@@V?$allocator@U?$pair@$$CBVCZString@Value@Json@@V23@@std@@@5@$0A@@std@@@std@@QAE?AViterator@12@V312@@Z 10016980 f i json_value.obj
 0001:00015c80       ?find@?$_Tree@V?$_Tmap_traits@VCZString@Value@Json@@V23@U?$less@VCZString@Value@Json@@@std@@V?$allocator@U?$pair@$$CBVCZString@Value@Json@@V23@@std@@@5@$0A@@std@@@std@@QAE?AViterator@12@ABVCZString@Value@Json@@@Z 10016c80 f i json_value.obj
 0001:00015d20       ??Dconst_iterator@?$_Tree@V?$_Tmap_traits@VCZString@Value@Json@@V23@U?$less@VCZString@Value@Json@@@std@@V?$allocator@U?$pair@$$CBVCZString@Value@Json@@V23@@std@@@5@$0A@@std@@@std@@QBEABU?$pair@$$CBVCZString@Value@Json@@V23@@2@XZ 10016d20 f i json_value.obj
 0001:00015d40       ??8const_iterator@?$_Tree@V?$_Tmap_traits@VCZString@Value@Json@@V23@U?$less@VCZString@Value@Json@@@std@@V?$allocator@U?$pair@$$CBVCZString@Value@Json@@V23@@std@@@5@$0A@@std@@@std@@QBE_NABV012@@Z 10016d40 f i json_value.obj
 0001:00015d60       ??0?$vector@V?$basic_string@DU?$char_traits@D@std@@V?$allocator@D@2@@std@@V?$allocator@V?$basic_string@DU?$char_traits@D@std@@V?$allocator@D@2@@std@@@2@@std@@QAE@ABV01@@Z 10016d60 f i json_value.obj
 0001:00015e70       ?reserve@?$vector@V?$basic_string@DU?$char_traits@D@std@@V?$allocator@D@2@@std@@V?$allocator@V?$basic_string@DU?$char_traits@D@std@@V?$allocator@D@2@@std@@@2@@std@@QAEXI@Z 10016e70 f i json_value.obj
 0001:00015fc0       ?push_back@?$vector@V?$basic_string@DU?$char_traits@D@std@@V?$allocator@D@2@@std@@V?$allocator@V?$basic_string@DU?$char_traits@D@std@@V?$allocator@D@2@@std@@@2@@std@@QAEXABV?$basic_string@DU?$char_traits@D@std@@V?$allocator@D@2@@2@@Z 10016fc0 f i json_value.obj
 0001:00016070       ??0?$pair@$$CBVCZString@Value@Json@@V23@@std@@QAE@ABVCZString@Value@Json@@ABV34@@Z 10017070 f i json_value.obj
 0001:000160d0       ?insert@?$_Tree@V?$_Tmap_traits@VCZString@Value@Json@@V23@U?$less@VCZString@Value@Json@@@std@@V?$allocator@U?$pair@$$CBVCZString@Value@Json@@V23@@std@@@5@$0A@@std@@@std@@QAE?AU?$pair@Viterator@?$_Tree@V?$_Tmap_traits@VCZString@Value@Json@@V23@U?$less@VCZString@Value@Json@@@std@@V?$allocator@U?$pair@$$CBVCZString@Value@Json@@V23@@std@@@5@$0A@@std@@@std@@_N@2@ABU?$pair@$$CBVCZString@Value@Json@@V23@@2@@Z 100170d0 f i json_value.obj
 0001:00016250       ?erase@?$_Tree@V?$_Tmap_traits@VCZString@Value@Json@@V23@U?$less@VCZString@Value@Json@@@std@@V?$allocator@U?$pair@$$CBVCZString@Value@Json@@V23@@std@@@5@$0A@@std@@@std@@QAE?AViterator@12@V312@0@Z 10017250 f i json_value.obj
 0001:00016320       ?_Copy@?$_Tree@V?$_Tmap_traits@VCZString@Value@Json@@V23@U?$less@VCZString@Value@Json@@@std@@V?$allocator@U?$pair@$$CBVCZString@Value@Json@@V23@@std@@@5@$0A@@std@@@std@@IAEXABV12@@Z 10017320 f i json_value.obj
 0001:00016390       ?_Erase@?$_Tree@V?$_Tmap_traits@VCZString@Value@Json@@V23@U?$less@VCZString@Value@Json@@@std@@V?$allocator@U?$pair@$$CBVCZString@Value@Json@@V23@@std@@@5@$0A@@std@@@std@@IAEXPAU_Node@?$_Tree_nod@V?$_Tmap_traits@VCZString@Value@Json@@V23@U?$less@VCZString@Value@Json@@@std@@V?$allocator@U?$pair@$$CBVCZString@Value@Json@@V23@@std@@@5@$0A@@std@@@2@@Z 10017390 f i json_value.obj
 0001:00016420       ?_Insert@?$_Tree@V?$_Tmap_traits@VCZString@Value@Json@@V23@U?$less@VCZString@Value@Json@@@std@@V?$allocator@U?$pair@$$CBVCZString@Value@Json@@V23@@std@@@5@$0A@@std@@@std@@IAE?AViterator@12@_NPAU_Node@?$_Tree_nod@V?$_Tmap_traits@VCZString@Value@Json@@V23@U?$less@VCZString@Value@Json@@@std@@V?$allocator@U?$pair@$$CBVCZString@Value@Json@@V23@@std@@@5@$0A@@std@@@2@ABU?$pair@$$CBVCZString@Value@Json@@V23@@2@@Z 10017420 f i json_value.obj
 0001:00016660       ?_Lbound@?$_Tree@V?$_Tmap_traits@VCZString@Value@Json@@V23@U?$less@VCZString@Value@Json@@@std@@V?$allocator@U?$pair@$$CBVCZString@Value@Json@@V23@@std@@@5@$0A@@std@@@std@@IBEPAU_Node@?$_Tree_nod@V?$_Tmap_traits@VCZString@Value@Json@@V23@U?$less@VCZString@Value@Json@@@std@@V?$allocator@U?$pair@$$CBVCZString@Value@Json@@V23@@std@@@5@$0A@@std@@@2@ABVCZString@Value@Json@@@Z 10017660 f i json_value.obj
 0001:000166d0       ?_Lrotate@?$_Tree@V?$_Tset_traits@V?$basic_string@DU?$char_traits@D@std@@V?$allocator@D@2@@std@@U?$less@V?$basic_string@DU?$char_traits@D@std@@V?$allocator@D@2@@std@@@2@V?$allocator@V?$basic_string@DU?$char_traits@D@std@@V?$allocator@D@2@@std@@@2@$0A@@std@@@std@@IAEXPAU_Node@?$_Tree_nod@V?$_Tset_traits@V?$basic_string@DU?$char_traits@D@std@@V?$allocator@D@2@@std@@U?$less@V?$basic_string@DU?$char_traits@D@std@@V?$allocator@D@2@@std@@@2@V?$allocator@V?$basic_string@DU?$char_traits@D@std@@V?$allocator@D@2@@std@@@2@$0A@@std@@@2@@Z 100176d0 f i CommonFrameMain.obj
 0001:000166d0       ?_Lrotate@?$_Tree@V?$_Tmap_traits@VCZString@Value@Json@@V23@U?$less@VCZString@Value@Json@@@std@@V?$allocator@U?$pair@$$CBVCZString@Value@Json@@V23@@std@@@5@$0A@@std@@@std@@IAEXPAU_Node@?$_Tree_nod@V?$_Tmap_traits@VCZString@Value@Json@@V23@U?$less@VCZString@Value@Json@@@std@@V?$allocator@U?$pair@$$CBVCZString@Value@Json@@V23@@std@@@5@$0A@@std@@@2@@Z 100176d0 f i json_value.obj
 0001:00016720       ?_Max@?$_Tree@V?$_Tmap_traits@VCZString@Value@Json@@V23@U?$less@VCZString@Value@Json@@@std@@V?$allocator@U?$pair@$$CBVCZString@Value@Json@@V23@@std@@@5@$0A@@std@@@std@@KAPAU_Node@?$_Tree_nod@V?$_Tmap_traits@VCZString@Value@Json@@V23@U?$less@VCZString@Value@Json@@@std@@V?$allocator@U?$pair@$$CBVCZString@Value@Json@@V23@@std@@@5@$0A@@std@@@2@PAU342@@Z 10017720 f i json_value.obj
 0001:00016720       ?_Max@?$_Tree@V?$_Tset_traits@V?$basic_string@DU?$char_traits@D@std@@V?$allocator@D@2@@std@@U?$less@V?$basic_string@DU?$char_traits@D@std@@V?$allocator@D@2@@std@@@2@V?$allocator@V?$basic_string@DU?$char_traits@D@std@@V?$allocator@D@2@@std@@@2@$0A@@std@@@std@@KAPAU_Node@?$_Tree_nod@V?$_Tset_traits@V?$basic_string@DU?$char_traits@D@std@@V?$allocator@D@2@@std@@U?$less@V?$basic_string@DU?$char_traits@D@std@@V?$allocator@D@2@@std@@@2@V?$allocator@V?$basic_string@DU?$char_traits@D@std@@V?$allocator@D@2@@std@@@2@$0A@@std@@@2@PAU342@@Z 10017720 f i CommonFrameMain.obj
 0001:00016740       ?_Rrotate@?$_Tree@V?$_Tset_traits@V?$basic_string@DU?$char_traits@D@std@@V?$allocator@D@2@@std@@U?$less@V?$basic_string@DU?$char_traits@D@std@@V?$allocator@D@2@@std@@@2@V?$allocator@V?$basic_string@DU?$char_traits@D@std@@V?$allocator@D@2@@std@@@2@$0A@@std@@@std@@IAEXPAU_Node@?$_Tree_nod@V?$_Tset_traits@V?$basic_string@DU?$char_traits@D@std@@V?$allocator@D@2@@std@@U?$less@V?$basic_string@DU?$char_traits@D@std@@V?$allocator@D@2@@std@@@2@V?$allocator@V?$basic_string@DU?$char_traits@D@std@@V?$allocator@D@2@@std@@@2@$0A@@std@@@2@@Z 10017740 f i CommonFrameMain.obj
 0001:00016740       ?_Rrotate@?$_Tree@V?$_Tmap_traits@VCZString@Value@Json@@V23@U?$less@VCZString@Value@Json@@@std@@V?$allocator@U?$pair@$$CBVCZString@Value@Json@@V23@@std@@@5@$0A@@std@@@std@@IAEXPAU_Node@?$_Tree_nod@V?$_Tmap_traits@VCZString@Value@Json@@V23@U?$less@VCZString@Value@Json@@@std@@V?$allocator@U?$pair@$$CBVCZString@Value@Json@@V23@@std@@@5@$0A@@std@@@2@@Z 10017740 f i json_value.obj
 0001:00016790       ?_Tidy@?$_Tree@V?$_Tmap_traits@VCZString@Value@Json@@V23@U?$less@VCZString@Value@Json@@@std@@V?$allocator@U?$pair@$$CBVCZString@Value@Json@@V23@@std@@@5@$0A@@std@@@std@@IAEXXZ 10017790 f i json_value.obj
 0001:000167d0       ??R?$less@VCZString@Value@Json@@@std@@QBE_NABVCZString@Value@Json@@0@Z 100177d0 f i json_value.obj
 0001:00016820       ?size@?$vector@V?$basic_string@DU?$char_traits@D@std@@V?$allocator@D@2@@std@@V?$allocator@V?$basic_string@DU?$char_traits@D@std@@V?$allocator@D@2@@std@@@2@@std@@QBEIXZ 10017820 f i json_value.obj
 0001:00016850       ?insert@?$vector@V?$basic_string@DU?$char_traits@D@std@@V?$allocator@D@2@@std@@V?$allocator@V?$basic_string@DU?$char_traits@D@std@@V?$allocator@D@2@@std@@@2@@std@@QAE?AV?$_Vector_iterator@V?$basic_string@DU?$char_traits@D@std@@V?$allocator@D@2@@std@@V?$allocator@V?$basic_string@DU?$char_traits@D@std@@V?$allocator@D@2@@std@@@2@@2@V32@ABV?$basic_string@DU?$char_traits@D@std@@V?$allocator@D@2@@2@@Z 10017850 f i json_value.obj
 0001:00016910       ?_Ufill@?$vector@V?$basic_string@DU?$char_traits@D@std@@V?$allocator@D@2@@std@@V?$allocator@V?$basic_string@DU?$char_traits@D@std@@V?$allocator@D@2@@std@@@2@@std@@IAEPAV?$basic_string@DU?$char_traits@D@std@@V?$allocator@D@2@@2@PAV32@IABV32@@Z 10017910 f i json_value.obj
 0001:00016940       ?_Xlen@?$vector@V?$basic_string@DU?$char_traits@D@std@@V?$allocator@D@2@@std@@V?$allocator@V?$basic_string@DU?$char_traits@D@std@@V?$allocator@D@2@@std@@@2@@std@@KAXXZ 10017940 f i json_value.obj
 0001:000169c0       ?_Copy@?$_Tree@V?$_Tmap_traits@VCZString@Value@Json@@V23@U?$less@VCZString@Value@Json@@@std@@V?$allocator@U?$pair@$$CBVCZString@Value@Json@@V23@@std@@@5@$0A@@std@@@std@@IAEPAU_Node@?$_Tree_nod@V?$_Tmap_traits@VCZString@Value@Json@@V23@U?$less@VCZString@Value@Json@@@std@@V?$allocator@U?$pair@$$CBVCZString@Value@Json@@V23@@std@@@5@$0A@@std@@@2@PAU342@0@Z 100179c0 f i json_value.obj
 0001:00016a80       ?_Buynode@?$_Tree@V?$_Tmap_traits@VCZString@Value@Json@@V23@U?$less@VCZString@Value@Json@@@std@@V?$allocator@U?$pair@$$CBVCZString@Value@Json@@V23@@std@@@5@$0A@@std@@@std@@IAEPAU_Node@?$_Tree_nod@V?$_Tmap_traits@VCZString@Value@Json@@V23@U?$less@VCZString@Value@Json@@@std@@V?$allocator@U?$pair@$$CBVCZString@Value@Json@@V23@@std@@@5@$0A@@std@@@2@XZ 10017a80 f i json_value.obj
 0001:00016ac0       ?_Buynode@?$_Tree@V?$_Tmap_traits@VCZString@Value@Json@@V23@U?$less@VCZString@Value@Json@@@std@@V?$allocator@U?$pair@$$CBVCZString@Value@Json@@V23@@std@@@5@$0A@@std@@@std@@IAEPAU_Node@?$_Tree_nod@V?$_Tmap_traits@VCZString@Value@Json@@V23@U?$less@VCZString@Value@Json@@@std@@V?$allocator@U?$pair@$$CBVCZString@Value@Json@@V23@@std@@@5@$0A@@std@@@2@PAU342@00ABU?$pair@$$CBVCZString@Value@Json@@V23@@2@D@Z 10017ac0 f i json_value.obj
 0001:00016b50       ?_Insert_n@?$vector@V?$basic_string@DU?$char_traits@D@std@@V?$allocator@D@2@@std@@V?$allocator@V?$basic_string@DU?$char_traits@D@std@@V?$allocator@D@2@@std@@@2@@std@@IAEXV?$_Vector_iterator@V?$basic_string@DU?$char_traits@D@std@@V?$allocator@D@2@@std@@V?$allocator@V?$basic_string@DU?$char_traits@D@std@@V?$allocator@D@2@@std@@@2@@2@IABV?$basic_string@DU?$char_traits@D@std@@V?$allocator@D@2@@2@@Z 10017b50 f i json_value.obj
 0001:00016e80       ??0_Node@?$_Tree_nod@V?$_Tmap_traits@VCZString@Value@Json@@V23@U?$less@VCZString@Value@Json@@@std@@V?$allocator@U?$pair@$$CBVCZString@Value@Json@@V23@@std@@@5@$0A@@std@@@std@@QAE@PAU012@00ABU?$pair@$$CBVCZString@Value@Json@@V23@@2@D@Z 10017e80 f i json_value.obj
 0001:00016f00       ??$_Allocate@V?$basic_string@DU?$char_traits@D@std@@V?$allocator@D@2@@std@@@std@@YAPAV?$basic_string@DU?$char_traits@D@std@@V?$allocator@D@2@@0@IPAV10@@Z 10017f00 f i json_value.obj
 0001:00016f60       ??$_Umove@PAV?$basic_string@DU?$char_traits@D@std@@V?$allocator@D@2@@std@@@?$vector@V?$basic_string@DU?$char_traits@D@std@@V?$allocator@D@2@@std@@V?$allocator@V?$basic_string@DU?$char_traits@D@std@@V?$allocator@D@2@@std@@@2@@std@@IAEPAV?$basic_string@DU?$char_traits@D@std@@V?$allocator@D@2@@1@PAV21@00@Z 10017f60 f i json_value.obj
 0001:00016f90       ??$fill@PAV?$basic_string@DU?$char_traits@D@std@@V?$allocator@D@2@@std@@V12@@std@@YAXPAV?$basic_string@DU?$char_traits@D@std@@V?$allocator@D@2@@0@0ABV10@@Z 10017f90 f i json_value.obj
 0001:00016fb0       ??$_Unchecked_move_backward@PAV?$basic_string@DU?$char_traits@D@std@@V?$allocator@D@2@@std@@PAV12@@stdext@@YAPAV?$basic_string@DU?$char_traits@D@std@@V?$allocator@D@2@@std@@PAV12@00@Z 10017fb0 f i json_value.obj
 0001:00017000       ??$_Uninit_fill_n@PAV?$basic_string@DU?$char_traits@D@std@@V?$allocator@D@2@@std@@IV12@V?$allocator@V?$basic_string@DU?$char_traits@D@std@@V?$allocator@D@2@@std@@@2@@std@@YAXPAV?$basic_string@DU?$char_traits@D@std@@V?$allocator@D@2@@0@IABV10@AAV?$allocator@V?$basic_string@DU?$char_traits@D@std@@V?$allocator@D@2@@std@@@0@U_Nonscalar_ptr_iterator_tag@0@U_Range_checked_iterator_tag@0@@Z 10018000 f i json_value.obj
 0001:000170b0       ??$_Uninit_copy@PBV?$basic_string@DU?$char_traits@D@std@@V?$allocator@D@2@@std@@PAV12@V?$allocator@V?$basic_string@DU?$char_traits@D@std@@V?$allocator@D@2@@std@@@2@@std@@YAPAV?$basic_string@DU?$char_traits@D@std@@V?$allocator@D@2@@0@PBV10@0PAV10@AAV?$allocator@V?$basic_string@DU?$char_traits@D@std@@V?$allocator@D@2@@std@@@0@U_Nonscalar_ptr_iterator_tag@0@U_Range_checked_iterator_tag@0@@Z 100180b0 f i json_value.obj
 0001:00017160       ??$_Uninit_move@PAV?$basic_string@DU?$char_traits@D@std@@V?$allocator@D@2@@std@@PAV12@V?$allocator@V?$basic_string@DU?$char_traits@D@std@@V?$allocator@D@2@@std@@@2@@std@@YAPAV?$basic_string@DU?$char_traits@D@std@@V?$allocator@D@2@@0@PAV10@00AAV?$allocator@V?$basic_string@DU?$char_traits@D@std@@V?$allocator@D@2@@std@@@0@U_Swap_move_tag@0@U_Range_checked_iterator_tag@0@@Z 10018160 f i json_value.obj
 0001:000172a0       ??$_Move_backward_opt@PAV?$basic_string@DU?$char_traits@D@std@@V?$allocator@D@2@@std@@PAV12@Uforward_iterator_tag@2@@std@@YAPAV?$basic_string@DU?$char_traits@D@std@@V?$allocator@D@2@@0@PAV10@00Uforward_iterator_tag@0@U_Swap_move_tag@0@U_Range_checked_iterator_tag@0@@Z 100182a0 f i json_value.obj
 0001:00017370       ?valueToString@Json@@YA?AV?$basic_string@DU?$char_traits@D@std@@V?$allocator@D@2@@std@@H@Z 10018370 f   json_writer.obj
 0001:00017400       ?valueToString@Json@@YA?AV?$basic_string@DU?$char_traits@D@std@@V?$allocator@D@2@@std@@I@Z 10018400 f   json_writer.obj
 0001:00017470       ?valueToString@Json@@YA?AV?$basic_string@DU?$char_traits@D@std@@V?$allocator@D@2@@std@@N@Z 10018470 f   json_writer.obj
 0001:000175d0       ?valueToString@Json@@YA?AV?$basic_string@DU?$char_traits@D@std@@V?$allocator@D@2@@std@@_N@Z 100185d0 f   json_writer.obj
 0001:00017620       ?valueToQuotedString@Json@@YA?AV?$basic_string@DU?$char_traits@D@std@@V?$allocator@D@2@@std@@PBD@Z 10018620 f   json_writer.obj
 0001:00017ac0       ??_D?$basic_ostringstream@DU?$char_traits@D@std@@V?$allocator@D@2@@std@@QAEXXZ 10018ac0 f i json_writer.obj
 0001:00017ae0       ??_EWriter@Json@@UAEPAXI@Z 10018ae0 f i  CIL library: CIL module
 0001:00017ae0       ??_GWriter@Json@@UAEPAXI@Z 10018ae0 f i json_writer.obj
 0001:00017b00       ?write@FastWriter@Json@@UAE?AV?$basic_string@DU?$char_traits@D@std@@V?$allocator@D@2@@std@@ABVValue@2@@Z 10018b00 f   json_writer.obj
 0001:00017b70       ?writeValue@FastWriter@Json@@AAEXABVValue@2@@Z 10018b70 f   json_writer.obj
 0001:00017fa0       ??6?$basic_ostream@DU?$char_traits@D@std@@@std@@QAEAAV01@H@Z 10018fa0 f i json_writer.obj
 0001:000180f0       ??0?$basic_ostringstream@DU?$char_traits@D@std@@V?$allocator@D@2@@std@@QAE@H@Z 100190f0 f i json_writer.obj
 0001:00018180       ??1?$basic_ostringstream@DU?$char_traits@D@std@@V?$allocator@D@2@@std@@UAE@XZ 10019180 f i json_writer.obj
 0001:000181f0       ?str@?$basic_ostringstream@DU?$char_traits@D@std@@V?$allocator@D@2@@std@@QBE?AV?$basic_string@DU?$char_traits@D@std@@V?$allocator@D@2@@2@XZ 100191f0 f i json_writer.obj
 0001:00018210       ?overflow@?$basic_stringbuf@DU?$char_traits@D@std@@V?$allocator@D@2@@std@@MAEHH@Z 10019210 f i json_writer.obj
 0001:000183c0       ?pbackfail@?$basic_stringbuf@DU?$char_traits@D@std@@V?$allocator@D@2@@std@@MAEHH@Z 100193c0 f i json_writer.obj
 0001:00018410       ?underflow@?$basic_stringbuf@DU?$char_traits@D@std@@V?$allocator@D@2@@std@@MAEHXZ 10019410 f i json_writer.obj
 0001:00018480       ?seekoff@?$basic_stringbuf@DU?$char_traits@D@std@@V?$allocator@D@2@@std@@MAE?AV?$fpos@H@2@JHH@Z 10019480 f i json_writer.obj
 0001:000185e0       ?seekpos@?$basic_stringbuf@DU?$char_traits@D@std@@V?$allocator@D@2@@std@@MAE?AV?$fpos@H@2@V32@H@Z 100195e0 f i json_writer.obj
 0001:000186b0       ??_E?$basic_ostringstream@DU?$char_traits@D@std@@V?$allocator@D@2@@std@@UAEPAXI@Z 100196b0 f i  CIL library: CIL module
 0001:000186b0       ??_G?$basic_ostringstream@DU?$char_traits@D@std@@V?$allocator@D@2@@std@@UAEPAXI@Z 100196b0 f i json_writer.obj
 0001:000186f0       ??_G?$basic_stringbuf@DU?$char_traits@D@std@@V?$allocator@D@2@@std@@UAEPAXI@Z 100196f0 f i json_writer.obj
 0001:000186f0       ??_E?$basic_stringbuf@DU?$char_traits@D@std@@V?$allocator@D@2@@std@@UAEPAXI@Z 100196f0 f i  CIL library: CIL module
 0001:00018720       ??0?$basic_stringbuf@DU?$char_traits@D@std@@V?$allocator@D@2@@std@@QAE@H@Z 10019720 f i json_writer.obj
 0001:00018780       ?str@?$basic_stringbuf@DU?$char_traits@D@std@@V?$allocator@D@2@@std@@QBE?AV?$basic_string@DU?$char_traits@D@std@@V?$allocator@D@2@@2@XZ 10019780 f i json_writer.obj
 0001:00018900       ?_Tidy@?$basic_stringbuf@DU?$char_traits@D@std@@V?$allocator@D@2@@std@@IAEXXZ 10019900 f i json_writer.obj
 0001:00018960       ?do_put@?$num_put@DV?$ostreambuf_iterator@DU?$char_traits@D@std@@@std@@@std@@MBE?AV?$ostreambuf_iterator@DU?$char_traits@D@std@@@2@V32@AAVios_base@2@D_N@Z 10019960 f i json_writer.obj
 0001:00018ba0       ?do_put@?$num_put@DV?$ostreambuf_iterator@DU?$char_traits@D@std@@@std@@@std@@MBE?AV?$ostreambuf_iterator@DU?$char_traits@D@std@@@2@V32@AAVios_base@2@DJ@Z 10019ba0 f i json_writer.obj
 0001:00018c30       ?do_put@?$num_put@DV?$ostreambuf_iterator@DU?$char_traits@D@std@@@std@@@std@@MBE?AV?$ostreambuf_iterator@DU?$char_traits@D@std@@@2@V32@AAVios_base@2@DK@Z 10019c30 f i json_writer.obj
 0001:00018cc0       ?do_put@?$num_put@DV?$ostreambuf_iterator@DU?$char_traits@D@std@@@std@@@std@@MBE?AV?$ostreambuf_iterator@DU?$char_traits@D@std@@@2@V32@AAVios_base@2@D_J@Z 10019cc0 f i json_writer.obj
 0001:00018d50       ?do_put@?$num_put@DV?$ostreambuf_iterator@DU?$char_traits@D@std@@@std@@@std@@MBE?AV?$ostreambuf_iterator@DU?$char_traits@D@std@@@2@V32@AAVios_base@2@D_K@Z 10019d50 f i json_writer.obj
 0001:00018de0       ?do_put@?$num_put@DV?$ostreambuf_iterator@DU?$char_traits@D@std@@@std@@@std@@MBE?AV?$ostreambuf_iterator@DU?$char_traits@D@std@@@2@V32@AAVios_base@2@DN@Z 10019de0 f i json_writer.obj
 0001:00018fa0       ?do_put@?$num_put@DV?$ostreambuf_iterator@DU?$char_traits@D@std@@@std@@@std@@MBE?AV?$ostreambuf_iterator@DU?$char_traits@D@std@@@2@V32@AAVios_base@2@DO@Z 10019fa0 f i json_writer.obj
 0001:00019170       ?do_put@?$num_put@DV?$ostreambuf_iterator@DU?$char_traits@D@std@@@std@@@std@@MBE?AV?$ostreambuf_iterator@DU?$char_traits@D@std@@@2@V32@AAVios_base@2@DPBX@Z 1001a170 f i json_writer.obj
 0001:000191f0       ?_Fput@?$num_put@DV?$ostreambuf_iterator@DU?$char_traits@D@std@@@std@@@std@@ABA?AV?$ostreambuf_iterator@DU?$char_traits@D@std@@@2@V32@AAVios_base@2@DPBDIIII@Z 1001a1f0 f i json_writer.obj
 0001:000198b0       ?_Ifmt@?$num_put@DV?$ostreambuf_iterator@DU?$char_traits@D@std@@@std@@@std@@ABAPADPADPBDH@Z 1001a8b0 f i json_writer.obj
 0001:00019940       ?_Iput@?$num_put@DV?$ostreambuf_iterator@DU?$char_traits@D@std@@@std@@@std@@ABA?AV?$ostreambuf_iterator@DU?$char_traits@D@std@@@2@V32@AAVios_base@2@DPADI@Z 1001a940 f i json_writer.obj
 0001:00019c70       ?_Rep@?$num_put@DV?$ostreambuf_iterator@DU?$char_traits@D@std@@@std@@@std@@ABA?AV?$ostreambuf_iterator@DU?$char_traits@D@std@@@2@V32@DI@Z 1001ac70 f i json_writer.obj
 0001:00019ce0       ?falsename@?$numpunct@D@std@@QBE?AV?$basic_string@DU?$char_traits@D@std@@V?$allocator@D@2@@2@XZ 1001ace0 f i json_writer.obj
 0001:00019d00       ?truename@?$numpunct@D@std@@QBE?AV?$basic_string@DU?$char_traits@D@std@@V?$allocator@D@2@@2@XZ 1001ad00 f i json_writer.obj
 0001:00019d20       ?do_decimal_point@?$numpunct@D@std@@MBEDXZ 1001ad20 f i json_writer.obj
 0001:00019d30       ?do_thousands_sep@?$numpunct@D@std@@MBEDXZ 1001ad30 f i json_writer.obj
 0001:00019d40       ?do_grouping@?$numpunct@D@std@@MBE?AV?$basic_string@DU?$char_traits@D@std@@V?$allocator@D@2@@2@XZ 1001ad40 f i json_writer.obj
 0001:00019d90       ?do_falsename@?$numpunct@D@std@@MBE?AV?$basic_string@DU?$char_traits@D@std@@V?$allocator@D@2@@2@XZ 1001ad90 f i json_writer.obj
 0001:00019de0       ?do_truename@?$numpunct@D@std@@MBE?AV?$basic_string@DU?$char_traits@D@std@@V?$allocator@D@2@@2@XZ 1001ade0 f i json_writer.obj
 0001:00019e30       ??_G?$numpunct@D@std@@MAEPAXI@Z 1001ae30 f i json_writer.obj
 0001:00019e30       ??_E?$numpunct@D@std@@MAEPAXI@Z 1001ae30 f i  CIL library: CIL module
 0001:00019e80       ?insert@?$basic_string@DU?$char_traits@D@std@@V?$allocator@D@2@@std@@QAEAAV12@IID@Z 1001ae80 f i json_writer.obj
 0001:00019f80       ?_Put@?$num_put@DV?$ostreambuf_iterator@DU?$char_traits@D@std@@@std@@@std@@ABA?AV?$ostreambuf_iterator@DU?$char_traits@D@std@@@2@V32@PBDI@Z 1001af80 f i json_writer.obj
 0001:00019f80       ?_Putc@?$num_put@DV?$ostreambuf_iterator@DU?$char_traits@D@std@@@std@@@std@@ABA?AV?$ostreambuf_iterator@DU?$char_traits@D@std@@@2@V32@PBDI@Z 1001af80 f i json_writer.obj
 0001:0001a000       ?_Putgrouped@?$num_put@DV?$ostreambuf_iterator@DU?$char_traits@D@std@@@std@@@std@@ABA?AV?$ostreambuf_iterator@DU?$char_traits@D@std@@@2@V32@PBDID@Z 1001b000 f i json_writer.obj
 0001:0001a0d0       ?grouping@?$numpunct@D@std@@QBE?AV?$basic_string@DU?$char_traits@D@std@@V?$allocator@D@2@@2@XZ 1001b0d0 f i json_writer.obj
 0001:0001a0f0       ?_Tidy@?$numpunct@D@std@@AAEXXZ 1001b0f0 f i json_writer.obj
 0001:0001a110       ??$use_facet@V?$num_put@DV?$ostreambuf_iterator@DU?$char_traits@D@std@@@std@@@std@@@std@@YAABV?$num_put@DV?$ostreambuf_iterator@DU?$char_traits@D@std@@@std@@@0@ABVlocale@0@@Z 1001b110 f i json_writer.obj
 0001:0001a260       ??$use_facet@V?$numpunct@D@std@@@std@@YAABV?$numpunct@D@0@ABVlocale@0@@Z 1001b260 f i json_writer.obj
 0001:0001a3b0       ?_Getcat@?$num_put@DV?$ostreambuf_iterator@DU?$char_traits@D@std@@@std@@@std@@SAIPAPBVfacet@locale@2@@Z 1001b3b0 f i json_writer.obj
 0001:0001a420       ?_Getcat@?$numpunct@D@std@@SAIPAPBVfacet@locale@2@@Z 1001b420 f i json_writer.obj
 0001:0001a490       ??0?$num_put@DV?$ostreambuf_iterator@DU?$char_traits@D@std@@@std@@@std@@QAE@I@Z 1001b490 f i json_writer.obj
 0001:0001a530       ??0?$numpunct@D@std@@QAE@I@Z 1001b530 f i json_writer.obj
 0001:0001a5f0       ?_Init@?$numpunct@D@std@@IAEXABV_Locinfo@2@@Z 1001b5f0 f i json_writer.obj
 0001:0001a740       ?_string_tailmatch@?A0x0360aece@pystring@@YAHABV?$basic_string@DU?$char_traits@D@std@@V?$allocator@D@2@@std@@0HHH@Z 1001b740 f   pystring.obj
 0001:0001a850       ?lower@pystring@@YA?AV?$basic_string@DU?$char_traits@D@std@@V?$allocator@D@2@@std@@ABV23@@Z 1001b850 f   pystring.obj
 0001:0001a910       ?slice@pystring@@YA?AV?$basic_string@DU?$char_traits@D@std@@V?$allocator@D@2@@std@@ABV23@HH@Z 1001b910 f   pystring.obj
 0001:0001a980       ?splitdrive_nt@path@os@pystring@@YAXAAV?$basic_string@DU?$char_traits@D@std@@V?$allocator@D@2@@std@@0ABV45@@Z 1001b980 f   pystring.obj
 0001:0001ab10       ?isabs_nt@path@os@pystring@@YA_NABV?$basic_string@DU?$char_traits@D@std@@V?$allocator@D@2@@std@@@Z 1001bb10 f   pystring.obj
 0001:0001ac40       ?join_nt@path@os@pystring@@YA?AV?$basic_string@DU?$char_traits@D@std@@V?$allocator@D@2@@std@@ABV?$vector@V?$basic_string@DU?$char_traits@D@std@@V?$allocator@D@2@@std@@V?$allocator@V?$basic_string@DU?$char_traits@D@std@@V?$allocator@D@2@@std@@@2@@5@@Z 1001bc40 f   pystring.obj
 0001:0001b3e0       ?join_nt@path@os@pystring@@YA?AV?$basic_string@DU?$char_traits@D@std@@V?$allocator@D@2@@std@@ABV45@0@Z 1001c3e0 f   pystring.obj
 0001:0001b4d0       ?join@path@os@pystring@@YA?AV?$basic_string@DU?$char_traits@D@std@@V?$allocator@D@2@@std@@ABV45@0@Z 1001c4d0 f   pystring.obj
 0001:0001b4f0       ?split_nt@path@os@pystring@@YAXAAV?$basic_string@DU?$char_traits@D@std@@V?$allocator@D@2@@std@@0ABV45@@Z 1001c4f0 f   pystring.obj
 0001:0001b940       ?basename_nt@path@os@pystring@@YA?AV?$basic_string@DU?$char_traits@D@std@@V?$allocator@D@2@@std@@ABV45@@Z 1001c940 f   pystring.obj
 0001:0001b9e0       ?basename@path@os@pystring@@YA?AV?$basic_string@DU?$char_traits@D@std@@V?$allocator@D@2@@std@@ABV45@@Z 1001c9e0 f   pystring.obj
 0001:0001ba00       ?dirname_nt@path@os@pystring@@YA?AV?$basic_string@DU?$char_traits@D@std@@V?$allocator@D@2@@std@@ABV45@@Z 1001ca00 f   pystring.obj
 0001:0001bab0       ?dirname@path@os@pystring@@YA?AV?$basic_string@DU?$char_traits@D@std@@V?$allocator@D@2@@std@@ABV45@@Z 1001cab0 f   pystring.obj
 0001:0001bad0       ??0?$vector@V?$basic_string@DU?$char_traits@D@std@@V?$allocator@D@2@@std@@V?$allocator@V?$basic_string@DU?$char_traits@D@std@@V?$allocator@D@2@@std@@@2@@std@@QAE@I@Z 1001cad0 f i pystring.obj
 0001:0001bb40       ?_Construct_n@?$vector@V?$basic_string@DU?$char_traits@D@std@@V?$allocator@D@2@@std@@V?$allocator@V?$basic_string@DU?$char_traits@D@std@@V?$allocator@D@2@@std@@@2@@std@@QAEXIABV?$basic_string@DU?$char_traits@D@std@@V?$allocator@D@2@@2@@Z 1001cb40 f i pystring.obj
 0001:0001bbe0       ??$?8DU?$char_traits@D@std@@V?$allocator@D@1@@std@@YA_NABV?$basic_string@DU?$char_traits@D@std@@V?$allocator@D@2@@0@PBD@Z 1001cbe0 f i pystring.obj
 0001:0001bc3c       ?AfxNewHandler@@YAHI@Z     1001cc3c f   nafxcw:afxmem.obj
 0001:0001bc41       ?AfxSetNewHandler@@YGP6AHI@ZP6AHI@Z@Z 1001cc41 f   nafxcw:afxmem.obj
 0001:0001bc53       ??2@YAPAXI@Z               1001cc53 f   nafxcw:afxmem.obj
 0001:0001bc7e       ??_U@YAPAXI@Z              1001cc7e f   nafxcw:afxmem.obj
 0001:0001bc83       ??_V@YAXPAX@Z              1001cc83 f   nafxcw:afxmem.obj
 0001:0001bc83       ??3@YAXPAX@Z               1001cc83 f   nafxcw:afxmem.obj
 0001:0001bc88       _RawDllMain@12             1001cc88 f   nafxcw:dllmodul.obj
 0001:0001bc8e       ?AfxTermDllState@@YAXXZ    1001cc8e f   nafxcw:dllmodul.obj
 0001:0001bca1       _InternalDllMain@12        1001cca1 f   nafxcw:dllmodul.obj
 0001:0001bd68       _DllMain@12                1001cd68 f   nafxcw:dllmodul.obj
 0001:0001bd98       ??1?$CThreadLocal@VAFX_MODULE_THREAD_STATE@@@@QAE@XZ 1001cd98 f i nafxcw:afxstate.obj
 0001:0001bd9d       ?_AfxInitContextAPI@@YGXXZ 1001cd9d f   nafxcw:afxstate.obj
 0001:0001be0b       ?AfxCreateActCtxW@@YGPAXPBUtagACTCTXW@@@Z 1001ce0b f   nafxcw:afxstate.obj
 0001:0001be1c       ?AfxReleaseActCtx@@YGXPAX@Z 1001ce1c f   nafxcw:afxstate.obj
 0001:0001be2a       ?AfxActivateActCtx@@YGHPAXPAK@Z 1001ce2a f   nafxcw:afxstate.obj
 0001:0001be3a       ?AfxDeactivateActCtx@@YGHKK@Z 1001ce3a f   nafxcw:afxstate.obj
 0001:0001be4a       ?AfxActivateActCtxWrapper@@YG?AW4eActCtxResult@@PAXPAK@Z 1001ce4a f   nafxcw:afxstate.obj
 0001:0001be7a       ?CreateActivationContext@AFX_MODULE_STATE@@QAEXXZ 1001ce7a f   nafxcw:afxstate.obj
 0001:0001bf67       ??0_AFX_THREAD_STATE@@QAE@XZ 1001cf67 f   nafxcw:afxstate.obj
 0001:0001bf80       ??1_AFX_THREAD_STATE@@UAE@XZ 1001cf80 f   nafxcw:afxstate.obj
 0001:0001bfb5       ??1AFX_MODULE_THREAD_STATE@@UAE@XZ 1001cfb5 f   nafxcw:afxstate.obj
 0001:0001c061       ?CreateObject@?$CThreadLocal@V_AFX_THREAD_STATE@@@@SGPAVCNoTrackObject@@XZ 1001d061 f i nafxcw:afxstate.obj
 0001:0001c079       ??_E_AFX_THREAD_STATE@@UAEPAXI@Z 1001d079 f i nafxcw:afxstate.obj
 0001:0001c079       ??_G_AFX_THREAD_STATE@@UAEPAXI@Z 1001d079 f i nafxcw:afxstate.obj
 0001:0001c094       ??0AFX_MODULE_THREAD_STATE@@QAE@XZ 1001d094 f   nafxcw:afxstate.obj
 0001:0001c0be       ??_EAFX_MODULE_THREAD_STATE@@UAEPAXI@Z 1001d0be f i nafxcw:afxstate.obj
 0001:0001c0be       ??_GAFX_MODULE_THREAD_STATE@@UAEPAXI@Z 1001d0be f i nafxcw:afxstate.obj
 0001:0001c0d9       ?CreateObject@?$CThreadLocal@VAFX_MODULE_THREAD_STATE@@@@SGPAVCNoTrackObject@@XZ 1001d0d9 f i nafxcw:afxstate.obj
 0001:0001c0ee       ?AfxGetThreadState@@YGPAV_AFX_THREAD_STATE@@XZ 1001d0ee f   nafxcw:afxstate.obj
 0001:0001c107       ??1AFX_MODULE_STATE@@UAE@XZ 1001d107 f   nafxcw:afxstate.obj
 0001:0001c1aa       ?GetData@?$CThreadLocal@VAFX_MODULE_THREAD_STATE@@@@QAEPAVAFX_MODULE_THREAD_STATE@@XZ 1001d1aa f i nafxcw:afxstate.obj
 0001:0001c1be       ??0CDllIsolationWrapperBase@@QAE@ABV?$CStringT@DV?$StrTraitMFC@DV?$ChTraitsCRT@D@ATL@@@@@ATL@@@Z 1001d1be f i nafxcw:afxstate.obj
 0001:0001c1e1       ??1CDllIsolationWrapperBase@@UAE@XZ 1001d1e1 f i nafxcw:afxstate.obj
 0001:0001c205       ??_GAFX_MODULE_STATE@@UAEPAXI@Z 1001d205 f i nafxcw:afxstate.obj
 0001:0001c205       ??_E_AFX_BASE_MODULE_STATE@@UAEPAXI@Z 1001d205 f i nafxcw:afxstate.obj
 0001:0001c205       ??_EAFX_MODULE_STATE@@UAEPAXI@Z 1001d205 f i nafxcw:afxstate.obj
 0001:0001c205       ??_G_AFX_BASE_MODULE_STATE@@UAEPAXI@Z 1001d205 f i nafxcw:afxstate.obj
 0001:0001c220       ??0CComCtlWrapper@@QAE@XZ  1001d220 f i nafxcw:afxstate.obj
 0001:0001c444       ??_GCCommDlgWrapper@@UAEPAXI@Z 1001d444 f i nafxcw:afxstate.obj
 0001:0001c444       ??_GCComCtlWrapper@@UAEPAXI@Z 1001d444 f i nafxcw:afxstate.obj
 0001:0001c444       ??_ECComCtlWrapper@@UAEPAXI@Z 1001d444 f i nafxcw:afxstate.obj
 0001:0001c444       ??_GCDllIsolationWrapperBase@@UAEPAXI@Z 1001d444 f i nafxcw:afxstate.obj
 0001:0001c444       ??_ECCommDlgWrapper@@UAEPAXI@Z 1001d444 f i nafxcw:afxstate.obj
 0001:0001c444       ??_ECDllIsolationWrapperBase@@UAEPAXI@Z 1001d444 f i nafxcw:afxstate.obj
 0001:0001c45f       ??0CCommDlgWrapper@@QAE@XZ 1001d45f f i nafxcw:afxstate.obj
 0001:0001c4e2       ??0AFX_MODULE_STATE@@QAE@H@Z 1001d4e2 f   nafxcw:afxstate.obj
 0001:0001c5eb       ??0_AFX_BASE_MODULE_STATE@@QAE@XZ 1001d5eb f i nafxcw:afxstate.obj
 0001:0001c5ff       ?CreateObject@?$CProcessLocal@V_AFX_BASE_MODULE_STATE@@@@SGPAVCNoTrackObject@@XZ 1001d5ff f i nafxcw:afxstate.obj
 0001:0001c62e       ?AfxGetModuleState@@YGPAVAFX_MODULE_STATE@@XZ 1001d62e f   nafxcw:afxstate.obj
 0001:0001c661       ?AfxGetModuleThreadState@@YGPAVAFX_MODULE_THREAD_STATE@@XZ 1001d661 f   nafxcw:afxstate.obj
 0001:0001c67a       ??0AFX_MAINTAIN_STATE2@@QAE@PAVAFX_MODULE_STATE@@@Z 1001d67a f   nafxcw:afxstate.obj
 0001:0001c6ad       ?GetRuntimeClass@COleException@@UBEPAUCRuntimeClass@@XZ 1001d6ad f   nafxcw:olemisc.obj
 0001:0001c6b3       ?memcpy_s@Checked@ATL@@YAXPAXIPBXI@Z 1001d6b3 f i nafxcw:olemisc.obj
 0001:0001c6d2       ?tcsncpy_s@Checked@ATL@@YAHPADIPBDI@Z 1001d6d2 f i nafxcw:olemisc.obj
 0001:0001c6f1       ??3CObject@@SGXPAX@Z       1001d6f1 f i nafxcw:olemisc.obj
 0001:0001c6fe       ??0COleException@@QAE@XZ   1001d6fe f i nafxcw:olemisc.obj
 0001:0001c714       ?AfxThrowOleException@@YGXJ@Z 1001d714 f   nafxcw:olemisc.obj
 0001:0001c757       ?GetErrorMessage@COleException@@UBEHPADIPAI@Z 1001d757 f   nafxcw:olemisc.obj
 0001:0001c7b1       ??_ECOleException@@UAEPAXI@Z 1001d7b1 f i nafxcw:olemisc.obj
 0001:0001c7b1       ??_GCOleException@@UAEPAXI@Z 1001d7b1 f i nafxcw:olemisc.obj
 0001:0001c7ce       ?AppendChar@?$CSimpleStringT@D$0A@@ATL@@QAEXD@Z 1001d7ce f i nafxcw:olemisc.obj
 0001:0001c7f6       ?Append@?$CSimpleStringT@D$0A@@ATL@@QAEXPBDH@Z 1001d7f6 f i nafxcw:olemisc.obj
 0001:0001c845       ?Append@?$CSimpleStringT@D$0A@@ATL@@QAEXPBD@Z 1001d845 f i nafxcw:olemisc.obj
 0001:0001c86a       ?Delete@CException@@QAEXXZ 1001d86a f   nafxcw:except.obj
 0001:0001c878       ?GetErrorMessage@CException@@UAEHPADIPAI@Z 1001d878 f   nafxcw:except.obj
 0001:0001c87d       ?ReportError@CException@@UAEHII@Z 1001d87d f   nafxcw:except.obj
 0001:0001c8ef       ?GetRuntimeClass@CMemoryException@@UBEPAUCRuntimeClass@@XZ 1001d8ef f   nafxcw:except.obj
 0001:0001c8f5       ?GetRuntimeClass@CNotSupportedException@@UBEPAUCRuntimeClass@@XZ 1001d8f5 f   nafxcw:except.obj
 0001:0001c8fb       ?GetRuntimeClass@CInvalidArgException@@UBEPAUCRuntimeClass@@XZ 1001d8fb f   nafxcw:except.obj
 0001:0001c901       ?InitString@CSimpleException@@QAEXXZ 1001d901 f   nafxcw:except.obj
 0001:0001c92a       ?AfxThrowMemoryException@@YGXXZ 1001d92a f   nafxcw:except.obj
 0001:0001c944       ?AfxThrowInvalidArgException@@YGXXZ 1001d944 f   nafxcw:except.obj
 0001:0001c95e       ??0CException@@QAE@XZ      1001d95e f   nafxcw:except.obj
 0001:0001c968       ??0CException@@QAE@H@Z     1001d968 f   nafxcw:except.obj
 0001:0001c974       ?GetErrorMessage@CSimpleException@@UBEHPADIPAI@Z 1001d974 f   nafxcw:except.obj
 0001:0001c9c6       ??_ECMemoryException@@UAEPAXI@Z 1001d9c6 f i nafxcw:except.obj
 0001:0001c9c6       ??_GCMemoryException@@UAEPAXI@Z 1001d9c6 f i nafxcw:except.obj
 0001:0001c9e3       ??_GCNotSupportedException@@UAEPAXI@Z 1001d9e3 f i nafxcw:except.obj
 0001:0001c9e3       ??_ECNotSupportedException@@UAEPAXI@Z 1001d9e3 f i nafxcw:except.obj
 0001:0001ca00       ??_ECInvalidArgException@@UAEPAXI@Z 1001da00 f i nafxcw:except.obj
 0001:0001ca00       ??_GCInvalidArgException@@UAEPAXI@Z 1001da00 f i nafxcw:except.obj
 0001:0001ca1d       ?AfxGetStringManager@@YGPAUIAtlStringMgr@ATL@@XZ 1001da1d f   nafxcw:strcore.obj
 0001:0001ca23       ?Allocate@CAfxStringMgr@@UAEPAUCStringData@ATL@@HH@Z 1001da23 f   nafxcw:strcore.obj
 0001:0001ca5e       ?Free@CAfxStringMgr@@UAEXPAUCStringData@ATL@@@Z 1001da5e f   nafxcw:strcore.obj
 0001:0001ca6b       ?Reallocate@CAfxStringMgr@@UAEPAUCStringData@ATL@@PAU23@HH@Z 1001da6b f   nafxcw:strcore.obj
 0001:0001ca9a       ?Clone@CAfxStringMgr@@UAEPAUIAtlStringMgr@ATL@@XZ 1001da9a f   nafxcw:strcore.obj
 0001:0001ca9d       ??0CAfxStringMgr@@QAE@XZ   1001da9d f i nafxcw:strcore.obj
 0001:0001cac0       ?GetNilString@CAfxStringMgr@@UAEPAUCStringData@ATL@@XZ 1001dac0 f   nafxcw:strcore.obj
 0001:0001cace       ?AfxLoadString@@YGHIPADI@Z 1001dace f   nafxcw:winstr.obj
 0001:0001cb25       ?AfxFindStringResourceHandle@@YGPAUHINSTANCE__@@I@Z 1001db25 f   nafxcw:winstr.obj
 0001:0001cb30       ?ReleaseBuffer@?$CSimpleStringT@D$0A@@ATL@@QAEXH@Z 1001db30 f i nafxcw:winstr.obj
 0001:0001cb55       ??2CNoTrackObject@@SGPAXI@Z 1001db55 f   nafxcw:afxtls.obj
 0001:0001cb6d       ??3CNoTrackObject@@SGXPAX@Z 1001db6d f   nafxcw:afxtls.obj
 0001:0001cb7d       ?GetThreadValue@CThreadSlotData@@QAEPAXH@Z 1001db7d f i nafxcw:afxtls.obj
 0001:0001cbca       ?AssignInstance@CThreadSlotData@@QAEXPAUHINSTANCE__@@@Z 1001dbca f   nafxcw:afxtls.obj
 0001:0001cc0a       ?GetDataNA@CThreadLocalObject@@QAEPAVCNoTrackObject@@XZ 1001dc0a f   nafxcw:afxtls.obj
 0001:0001cc24       ?GetData@CProcessLocalObject@@QAEPAVCNoTrackObject@@P6GPAV2@XZ@Z 1001dc24 f   nafxcw:afxtls.obj
 0001:0001cc74       ??1CProcessLocalObject@@QAE@XZ 1001dc74 f   nafxcw:afxtls.obj
 0001:0001cc9b       ?AfxInitLocalData@@YGXPAUHINSTANCE__@@@Z 1001dc9b f   nafxcw:afxtls.obj
 0001:0001ccad       ?AfxTlsAddRef@@YGXXZ       1001dcad f   nafxcw:afxtls.obj
 0001:0001ccb4       ?GetNextPtr@CSimpleList@@QBEPAPAXPAX@Z 1001dcb4 f i nafxcw:afxtls.obj
 0001:0001ccca       ?AddHead@CSimpleList@@QAEXPAX@Z 1001dcca f   nafxcw:afxtls.obj
 0001:0001cce3       ?Remove@CSimpleList@@QAEHPAX@Z 1001dce3 f   nafxcw:afxtls.obj
 0001:0001cd49       ?AllocSlot@CThreadSlotData@@QAEHXZ 1001dd49 f   nafxcw:afxtls.obj
 0001:0001ce59       ??0CThreadSlotData@@QAE@XZ 1001de59 f   nafxcw:afxtls.obj
 0001:0001ce98       ?FreeSlot@CThreadSlotData@@QAEXH@Z 1001de98 f   nafxcw:afxtls.obj
 0001:0001cefb       ?SetValue@CThreadSlotData@@QAEXHPAX@Z 1001defb f   nafxcw:afxtls.obj
 0001:0001d030       ??_ECThreadData@@UAEPAXI@Z 1001e030 f i nafxcw:afxtls.obj
 0001:0001d030       ??_GCThreadData@@UAEPAXI@Z 1001e030 f i nafxcw:afxtls.obj
 0001:0001d046       ?DeleteValues@CThreadSlotData@@QAEXPAUCThreadData@@PAUHINSTANCE__@@@Z 1001e046 f   nafxcw:afxtls.obj
 0001:0001d0db       ?DeleteValues@CThreadSlotData@@QAEXPAUHINSTANCE__@@H@Z 1001e0db f   nafxcw:afxtls.obj
 0001:0001d134       ?GetData@CThreadLocalObject@@QAEPAVCNoTrackObject@@P6GPAV2@XZ@Z 1001e134 f   nafxcw:afxtls.obj
 0001:0001d1be       ??1CThreadLocalObject@@QAE@XZ 1001e1be f   nafxcw:afxtls.obj
 0001:0001d1dc       ?AfxTermLocalData@@YGXPAUHINSTANCE__@@H@Z 1001e1dc f   nafxcw:afxtls.obj
 0001:0001d1ee       ??1CThreadSlotData@@QAE@XZ 1001e1ee f   nafxcw:afxtls.obj
 0001:0001d245       ?AfxTlsRelease@@YGXXZ      1001e245 f   nafxcw:afxtls.obj
 0001:0001d26d       ?AfxCriticalInit@@YGHXZ    1001e26d f   nafxcw:afxcrit.obj
 0001:0001d291       ?AfxCriticalTerm@@YGXXZ    1001e291 f   nafxcw:afxcrit.obj
 0001:0001d2d6       ?AfxLockGlobals@@YGXH@Z    1001e2d6 f   nafxcw:afxcrit.obj
 0001:0001d343       ?AfxUnlockGlobals@@YGXH@Z  1001e343 f   nafxcw:afxcrit.obj
 0001:0001d363       ?AfxGetThread@@YGPAVCWinThread@@XZ 1001e363 f   nafxcw:thrdcore.obj
 0001:0001d36c       ?AfxInternalProcessWndProcException@@YGJPAVCException@@PBUtagMSG@@@Z 1001e36c f   nafxcw:thrdcore.obj
 0001:0001d391       ?AfxProcessWndProcException@@YGJPAVCException@@PBUtagMSG@@@Z 1001e391 f   nafxcw:thrdcore.obj
 0001:0001d3a7       ?AfxTermThread@@YGXPAUHINSTANCE__@@@Z 1001e3a7 f   nafxcw:thrdcore.obj
 0001:0001d446       ?AfxGetMainWnd@@YGPAVCWnd@@XZ 1001e446 f i nafxcw:thrdcore.obj
 0001:0001d45a       ?_AfxMsgFilterHook@@YGJHIJ@Z 1001e45a f   nafxcw:thrdcore.obj
 0001:0001d4bc       ?AfxInitThread@@YGXXZ      1001e4bc f   nafxcw:thrdcore.obj
 0001:0001d4ea       ?AfxLockTempMaps@@YGXXZ    1001e4ea f   nafxcw:winhand.obj
 0001:0001d4f3       ??0CHandleMap@@QAE@PAUCRuntimeClass@@P6GXPAVCObject@@@Z2IH@Z 1001e4f3 f   nafxcw:winhand.obj
 0001:0001d57c       ?FromHandle@CHandleMap@@QAEPAVCObject@@PAX@Z 1001e57c f   nafxcw:winhand.obj
 0001:0001d62f       ?DeleteTemp@CHandleMap@@QAEXXZ 1001e62f f   nafxcw:winhand.obj
 0001:0001d692       ??1CHandleMap@@UAE@XZ      1001e692 f i nafxcw:winhand.obj
 0001:0001d6df       ??_GCHandleMap@@UAEPAXI@Z  1001e6df f i nafxcw:winhand.obj
 0001:0001d6df       ??_ECHandleMap@@UAEPAXI@Z  1001e6df f i nafxcw:winhand.obj
 0001:0001d6fb       ?AfxUnlockTempMaps@@YGHH@Z 1001e6fb f   nafxcw:winhand.obj
 0001:0001d7f4       ??$AtlAdd@H@ATL@@YAJPAHHH@Z 1001e7f4 f i nafxcw:appterm.obj
 0001:0001d818       ??$AtlAddThrow@H@ATL@@YAHHH@Z 1001e818 f i nafxcw:appterm.obj
 0001:0001d83d       ?Mid@?$CStringT@DV?$StrTraitMFC@DV?$ChTraitsCRT@D@ATL@@@@@ATL@@QBE?AV12@HH@Z 1001e83d f i nafxcw:appterm.obj
 0001:0001d8ba       ??0?$CStringT@DV?$StrTraitMFC@DV?$ChTraitsCRT@D@ATL@@@@@ATL@@QAE@PBDPAUIAtlStringMgr@1@@Z 1001e8ba f i nafxcw:appterm.obj
 0001:0001d8f9       ?Tokenize@?$CStringT@DV?$StrTraitMFC@DV?$ChTraitsCRT@D@ATL@@@@@ATL@@QBE?AV12@PBDAAH@Z 1001e8f9 f i nafxcw:appterm.obj
 0001:0001d9ac       ?AfxUnregisterWndClasses@@YGXXZ 1001e9ac f   nafxcw:appterm.obj
 0001:0001da4b       ?AfxWinTerm@@YGXXZ         1001ea4b f   nafxcw:appterm.obj
 0001:0001dabf       ?tcscpy_s@Checked@ATL@@YAXPADIPBD@Z 1001eabf f i nafxcw:appinit.obj
 0001:0001dada       ?AfxGetFileName@@YGIPBDPADI@Z 1001eada f   nafxcw:appinit.obj
 0001:0001db18       ?SetCurrentHandles@CWinApp@@QAEXXZ 1001eb18 f   nafxcw:appinit.obj
 0001:0001dc97       ?AfxWinInit@@YGHPAUHINSTANCE__@@0PADH@Z 1001ec97 f   nafxcw:appinit.obj
 0001:0001dd1b       ?InitHashTable@CMapPtrToPtr@@QAEXIH@Z 1001ed1b f   nafxcw:map_pp.obj
 0001:0001dd75       ?RemoveAll@CMapPtrToPtr@@QAEXXZ 1001ed75 f   nafxcw:map_pp.obj
 0001:0001dda0       ?FreeAssoc@CMapPtrToPtr@@IAEXPAUCAssoc@1@@Z 1001eda0 f   nafxcw:map_pp.obj
 0001:0001ddb9       ?GetAssocAt@CMapPtrToPtr@@IBEPAUCAssoc@1@PAXAAI1@Z 1001edb9 f   nafxcw:map_pp.obj
 0001:0001ddf1       ?GetValueAt@CMapPtrToPtr@@QBEPAXPAX@Z 1001edf1 f   nafxcw:map_pp.obj
 0001:0001de31       ?RemoveKey@CMapPtrToPtr@@QAEHPAX@Z 1001ee31 f   nafxcw:map_pp.obj
 0001:0001de74       ?GetNextAssoc@CMapPtrToPtr@@QBEXAAPAU__POSITION@@AAPAX1@Z 1001ee74 f   nafxcw:map_pp.obj
 0001:0001deef       ?GetRuntimeClass@CMapPtrToPtr@@UBEPAUCRuntimeClass@@XZ 1001eeef f   nafxcw:map_pp.obj
 0001:0001def5       ??0CMapPtrToPtr@@QAE@H@Z   1001eef5 f   nafxcw:map_pp.obj
 0001:0001df23       ??1CMapPtrToPtr@@UAE@XZ    1001ef23 f   nafxcw:map_pp.obj
 0001:0001df2e       ?NewAssoc@CMapPtrToPtr@@IAEPAUCAssoc@1@XZ 1001ef2e f   nafxcw:map_pp.obj
 0001:0001df7c       ??ACMapPtrToPtr@@QAEAAPAXPAX@Z 1001ef7c f   nafxcw:map_pp.obj
 0001:0001dfd1       ??_ECMapPtrToPtr@@UAEPAXI@Z 1001efd1 f i nafxcw:map_pp.obj
 0001:0001dfd1       ??_GCMapPtrToPtr@@UAEPAXI@Z 1001efd1 f i nafxcw:map_pp.obj
 0001:0001dff3       ?RemoveAll@CPtrList@@QAEXXZ 1001eff3 f   nafxcw:list_p.obj
 0001:0001e013       ?FreeNode@CPtrList@@IAEXPAUCNode@1@@Z 1001f013 f   nafxcw:list_p.obj
 0001:0001e035       ?RemoveHead@CPtrList@@QAEPAXXZ 1001f035 f   nafxcw:list_p.obj
 0001:0001e066       ?AfxClassInit@@YGXPAUCRuntimeClass@@@Z 1001f066 f   nafxcw:objcore.obj
 0001:0001e08c       ?GetInterface@CCmdTarget@@QAEPAUIUnknown@@PBX@Z 1001f08c f   nafxcw:oleunk.obj
 0001:0001e13a       ?QueryAggregates@CCmdTarget@@QAEPAUIUnknown@@PBX@Z 1001f13a f   nafxcw:oleunk.obj
 0001:0001e19a       _IsEqualGUID               1001f19a f i nafxcw:oleunk.obj
 0001:0001e1b2       ??1AFX_MAINTAIN_STATE2@@QAE@XZ 1001f1b2 f i nafxcw:oleunk.obj
 0001:0001e1c2       ?ExternalAddRef@CCmdTarget@@QAEKXZ 1001f1c2 f   nafxcw:oleunk.obj
 0001:0001e1dd       ?InternalRelease@CCmdTarget@@QAEKXZ 1001f1dd f   nafxcw:oleunk.obj
 0001:0001e233       ?ExternalRelease@CCmdTarget@@QAEKXZ 1001f233 f   nafxcw:oleunk.obj
 0001:0001e248       ?InternalQueryInterface@CCmdTarget@@QAEKPBXPAPAX@Z 1001f248 f   nafxcw:oleunk.obj
 0001:0001e288       ?ExternalQueryInterface@CCmdTarget@@QAEKPBXPAPAX@Z 1001f288 f   nafxcw:oleunk.obj
 0001:0001e2a6       ?UpdateSysColors@AUX_DATA@@QAEXXZ 1001f2a6 f   nafxcw:auxdata.obj
 0001:0001e2ea       ?UpdateSysMetrics@AUX_DATA@@QAEXXZ 1001f2ea f   nafxcw:auxdata.obj
 0001:0001e344       ??0AUX_DATA@@QAE@XZ        1001f344 f   nafxcw:auxdata.obj
 0001:0001e399       ??1AUX_DATA@@QAE@XZ        1001f399 f   nafxcw:auxdata.obj
 0001:0001e481       ?GetRoutingFrame_@CCmdTarget@@KGPAVCFrameWnd@@XZ 1001f481 f   nafxcw:appui1.obj
 0001:0001e48d       ?AfxCtxMessageBoxA@@YAHPAUHWND__@@PBD1I@Z 1001f48d f i nafxcw:appui1.obj
 0001:0001e524       ?DoEnableModeless@CWinApp@@SAXH@Z 1001f524 f   nafxcw:appui1.obj
 0001:0001e558       ?GetSafeOwner_@CWnd@@SGPAUHWND__@@PAU2@PAPAU2@@Z 1001f558 f   nafxcw:appui1.obj
 0001:0001e5f6       ?ShowAppMessageBox@CWinApp@@SAHPAV1@PBDII@Z 1001f5f6 f   nafxcw:appui1.obj
 0001:0001e751       ?AfxMessageBox@@YGHPBDII@Z 1001f751 f   nafxcw:appui1.obj
 0001:0001e782       ?AfxMessageBox@@YGHIII@Z   1001f782 f   nafxcw:appui1.obj
 0001:0001e7d7       ?AfxIsValidString@@YGHPBDH@Z 1001f7d7 f   nafxcw:validadd.obj
 0001:0001e7e3       ?memmove_s@Checked@ATL@@YAXPAXIPBXI@Z 1001f7e3 f i nafxcw:arccore.obj
 0001:0001e802       ?Read@CArchive@@QAEIPAXI@Z 1001f802 f   nafxcw:arccore.obj
 0001:0001e931       ?Flush@CArchive@@QAEXXZ    1001f931 f   nafxcw:arccore.obj
 0001:0001e9a8       ?FillBuffer@CArchive@@QAEXI@Z 1001f9a8 f   nafxcw:arccore.obj
 0001:0001ea95       ??6CArchive@@QAEAAV0@G@Z   1001fa95 f i nafxcw:arccore.obj
 0001:0001eacf       ??6CArchive@@QAEAAV0@K@Z   1001facf f i nafxcw:arccore.obj
 0001:0001eb08       ??5CArchive@@QAEAAV0@AAG@Z 1001fb08 f i nafxcw:arccore.obj
 0001:0001eb4b       ??5CArchive@@QAEAAV0@AAK@Z 1001fb4b f i nafxcw:arccore.obj
 0001:0001eb8d       ?Write@CArchive@@QAEXPBXI@Z 1001fb8d f   nafxcw:arccore.obj
 0001:0001ec52       ?WriteCount@CArchive@@QAEXK@Z 1001fc52 f   nafxcw:arccore.obj
 0001:0001ec7e       ?ReadCount@CArchive@@QAEKXZ 1001fc7e f   nafxcw:arccore.obj
 0001:0001ecad       ?EnsureRead@CArchive@@QAEXPAXI@Z 1001fcad f i nafxcw:olevar.obj
 0001:0001eccc       ?GetRuntimeClass@CArchiveException@@UBEPAUCRuntimeClass@@XZ 1001fccc f   nafxcw:arcex.obj
 0001:0001ecd2       ?GetErrorMessage@CArchiveException@@UBEHPADIPAI@Z 1001fcd2 f   nafxcw:arcex.obj
 0001:0001ed89       ??0CArchiveException@@QAE@HPBD@Z 1001fd89 f i nafxcw:arcex.obj
 0001:0001edcd       ??_GCArchiveException@@UAEPAXI@Z 1001fdcd f i nafxcw:arcex.obj
 0001:0001edcd       ??_ECArchiveException@@UAEPAXI@Z 1001fdcd f i nafxcw:arcex.obj
 0001:0001edf5       ?AfxThrowArchiveException@@YGXHPBD@Z 1001fdf5 f   nafxcw:arcex.obj
 0001:0001ee38       ?_AfxDispatchCmdMsg@@YGHPAVCCmdTarget@@IHP81@AEXXZPAXIPAUAFX_CMDHANDLERINFO@@@Z 1001fe38 f   nafxcw:cmdtarg.obj
 0001:0001ef70       ?OnCmdMsg@CCmdTarget@@UAEHIHPAXPAUAFX_CMDHANDLERINFO@@@Z 1001ff70 f   nafxcw:cmdtarg.obj
 0001:0001f08a       ?IsInvokeAllowed@CCmdTarget@@UAEHJ@Z 1002008a f   nafxcw:cmdtarg.obj
 0001:0001f090       ?GetTypeLib@CCmdTarget@@UAEJKPAPAUITypeLib@@@Z 10020090 f   nafxcw:cmdtarg.obj
 0001:0001f098       ?GetThisMessageMap@CCmdTarget@@KGPBUAFX_MSGMAP@@XZ 10020098 f   nafxcw:cmdtarg.obj
 0001:0001f09e       ?GetDispatchMap@CCmdTarget@@MBEPBUAFX_DISPMAP@@XZ 1002009e f   nafxcw:cmdtarg.obj
 0001:0001f0a4       ?GetEventSinkMap@CCmdTarget@@MBEPBUAFX_EVENTSINKMAP@@XZ 100200a4 f   nafxcw:cmdtarg.obj
 0001:0001f0aa       ?GetConnectionMap@CCmdTarget@@MBEPBUAFX_CONNECTIONMAP@@XZ 100200aa f   nafxcw:cmdtarg.obj
 0001:0001f0b0       ?GetCommandMap@CCmdTarget@@MBEPBUAFX_OLECMDMAP@@XZ 100200b0 f   nafxcw:cmdtarg.obj
 0001:0001f0b6       ??0CCmdUI@@QAE@XZ          100200b6 f   nafxcw:cmdtarg.obj
 0001:0001f0dc       ?ModifyMenuA@CMenu@@QAEHIIIPBD@Z 100200dc f i nafxcw:cmdtarg.obj
 0001:0001f0f8       ??0CCmdTarget@@QAE@XZ      100200f8 f   nafxcw:cmdtarg.obj
 0001:0001f11e       ??1CCmdTarget@@UAE@XZ      1002011e f   nafxcw:cmdtarg.obj
 0001:0001f133       ?BeginWaitCursor@CCmdTarget@@QAEXXZ 10020133 f   nafxcw:cmdtarg.obj
 0001:0001f148       ?EndWaitCursor@CCmdTarget@@QAEXXZ 10020148 f   nafxcw:cmdtarg.obj
 0001:0001f15d       ?Enable@CCmdUI@@UAEXH@Z    1002015d f   nafxcw:cmdtarg.obj
 0001:0001f1ec       ?SetCheck@CCmdUI@@UAEXH@Z  100201ec f   nafxcw:cmdtarg.obj
 0001:0001f261       ?SetText@CCmdUI@@UAEXPBD@Z 10020261 f   nafxcw:cmdtarg.obj
 0001:0001f2c8       ?_AfxLoadDotBitmap@@YGXXZ  100202c8 f   nafxcw:cmdtarg.obj
 0001:0001f3c6       ?SetRadio@CCmdUI@@UAEXH@Z  100203c6 f   nafxcw:cmdtarg.obj
 0001:0001f429       _IsPlatformNT              10020429 f   nafxcw:wincore.obj
 0001:0001f481       _InitMultipleMonitorStubs  10020481 f   nafxcw:wincore.obj
 0001:0001f576       _xMonitorFromRect@8        10020576 f   nafxcw:wincore.obj
 0001:0001f5c2       _xMonitorFromWindow@8      100205c2 f   nafxcw:wincore.obj
 0001:0001f62d       _xGetMonitorInfo@8         1002062d f   nafxcw:wincore.obj
 0001:0001f6c6       ?AtlIAccessibleInvokeHelper@ATL@@YGJPAUIAccessible@@JABU_GUID@@KGPAUtagDISPPARAMS@@PAUtagVARIANT@@PAUtagEXCEPINFO@@PAI@Z 100206c6 f i nafxcw:wincore.obj
 0001:0001fc92       ?AtlIAccessibleGetIDsOfNamesHelper@ATL@@YGJABU_GUID@@PAPA_WIKPAJ@Z 10020c92 f i nafxcw:wincore.obj
 0001:0001fcf2       ??0CWnd@@AAE@PAUHWND__@@@Z 10020cf2 f   nafxcw:wincore.obj
 0001:0001fd38       ?OnFinalRelease@CWnd@@UAEXXZ 10020d38 f   nafxcw:wincore.obj
 0001:0001fd49       ?DefWindowProcA@CWnd@@MAEJIIJ@Z 10020d49 f   nafxcw:wincore.obj
 0001:0001fd90       ?GetSuperWndProcAddr@CWnd@@MAEPAP6GJPAUHWND__@@IIJ@ZXZ 10020d90 f   nafxcw:wincore.obj
 0001:0001fd94       ?PreTranslateMessage@CWnd@@UAEHPAUtagMSG@@@Z 10020d94 f   nafxcw:wincore.obj
 0001:0001fdb0       ?OnToolHitTest@CWnd@@UBEHVCPoint@@PAUtagTOOLINFOA@@@Z 10020db0 f   nafxcw:wincore.obj
 0001:0001fe23       ?AfxFindMessageEntry@@YGPBUAFX_MSGMAP_ENTRY@@PBU1@III@Z 10020e23 f   nafxcw:wincore.obj
 0001:0001fe63       ?WindowProc@CWnd@@MAEJIIJ@Z 10020e63 f   nafxcw:wincore.obj
 0001:0001fea7       ??0CTestCmdUI@@QAE@XZ      10020ea7 f   nafxcw:wincore.obj
 0001:0001fec0       ?Enable@CTestCmdUI@@UAEXH@Z 10020ec0 f   nafxcw:wincore.obj
 0001:0001fed1       ?DoDataExchange@CWnd@@MAEXPAVCDataExchange@@@Z 10020ed1 f   nafxcw:wincore.obj
 0001:0001fed1       ?SetCheck@CTestCmdUI@@UAEXH@Z 10020ed1 f   nafxcw:wincore.obj
 0001:0001fed1       ?MeasureItem@CMenu@@UAEXPAUtagMEASUREITEMSTRUCT@@@Z 10020ed1 f   nafxcw:winmenu.obj
 0001:0001fed1       ?DrawItem@CMenu@@UAEXPAUtagDRAWITEMSTRUCT@@@Z 10020ed1 f   nafxcw:winmenu.obj
 0001:0001fed1       ?Serialize@CObject@@UAEXAAVCArchive@@@Z 10020ed1 f   nafxcw:olemisc.obj
 0001:0001fed1       ?SetText@CTestCmdUI@@UAEXPBD@Z 10020ed1 f   nafxcw:wincore.obj
 0001:0001fed1       ?SetRadio@CTestCmdUI@@UAEXH@Z 10020ed1 f   nafxcw:wincore.obj
 0001:0001fed4       ?GetExtraConnectionPoints@CCmdTarget@@MAEHPAVCPtrArray@@@Z 10020ed4 f   nafxcw:cmdtarg.obj
 0001:0001fed4       ?GetInterfaceHook@CCmdTarget@@UAEPAUIUnknown@@PBX@Z 10020ed4 f   nafxcw:cmdtarg.obj
 0001:0001fed4       ?SetOccDialogInfo@CWnd@@MAEHPAU_AFX_OCC_DIALOG_INFO@@@Z 10020ed4 f   nafxcw:wincore.obj
 0001:0001fed4       ?GetScrollBarCtrl@CWnd@@UBEPAVCScrollBar@@H@Z 10020ed4 f   nafxcw:wincore.obj
 0001:0001fed4       ?GetDispatchIID@CCmdTarget@@UAEHPAU_GUID@@@Z 10020ed4 f   nafxcw:cmdtarg.obj
 0001:0001fed4       ?GetConnectionHook@CCmdTarget@@MAEPAUIConnectionPoint@@ABU_GUID@@@Z 10020ed4 f   nafxcw:cmdtarg.obj
 0001:0001fed9       ?CalcWindowRect@CWnd@@UAEXPAUtagRECT@@I@Z 10020ed9 f   nafxcw:wincore.obj
 0001:0001ff06       ?GetInterfaceMap@CWnd@@MBEPBUAFX_INTERFACEMAP@@XZ 10020f06 f   nafxcw:wincore.obj
 0001:0001ff0c       ?GetIDsOfNames@XAccessible@CWnd@@UAGJABU_GUID@@PAPA_WIKPAJ@Z 10020f0c f   nafxcw:wincore.obj
 0001:0001ff27       ?GetTypeInfoCount@XAccessible@CWnd@@UAGJPAI@Z 10020f27 f   nafxcw:wincore.obj
 0001:0001ff41       ?GetTypeInfo@XAccessible@CWnd@@UAGJIKPAPAUITypeInfo@@@Z 10020f41 f   nafxcw:wincore.obj
 0001:0001ff49       ?GetEnumVariant@XAccessibleServer@CWnd@@UAGJPAPAUIEnumVARIANT@@@Z 10020f49 f   nafxcw:wincore.obj
 0001:0001ff63       ?EnsureStdObj@CWnd@@UAEJXZ 10020f63 f   nafxcw:wincore.obj
 0001:0001ff82       ?get_accParent@CWnd@@UAEJPAPAUIDispatch@@@Z 10020f82 f   nafxcw:wincore.obj
 0001:0001ff92       ?get_accChildCount@CWnd@@UAEJPAJ@Z 10020f92 f   nafxcw:wincore.obj
 0001:0001ffa2       ?get_accChild@CWnd@@UAEJUtagVARIANT@@PAPAUIDispatch@@@Z 10020fa2 f   nafxcw:wincore.obj
 0001:0001ffc3       ?get_accName@CWnd@@UAEJUtagVARIANT@@PAPA_W@Z 10020fc3 f   nafxcw:wincore.obj
 0001:0001ffe4       ?get_accValue@CWnd@@UAEJUtagVARIANT@@PAPA_W@Z 10020fe4 f   nafxcw:wincore.obj
 0001:00020005       ?get_accDescription@CWnd@@UAEJUtagVARIANT@@PAPA_W@Z 10021005 f   nafxcw:wincore.obj
 0001:00020026       ?get_accRole@CWnd@@UAEJUtagVARIANT@@PAU2@@Z 10021026 f   nafxcw:wincore.obj
 0001:00020047       ?get_accState@CWnd@@UAEJUtagVARIANT@@PAU2@@Z 10021047 f   nafxcw:wincore.obj
 0001:00020068       ?get_accHelp@CWnd@@UAEJUtagVARIANT@@PAPA_W@Z 10021068 f   nafxcw:wincore.obj
 0001:00020089       ?get_accHelpTopic@CWnd@@UAEJPAPA_WUtagVARIANT@@PAJ@Z 10021089 f   nafxcw:wincore.obj
 0001:000200ae       ?get_accKeyboardShortcut@CWnd@@UAEJUtagVARIANT@@PAPA_W@Z 100210ae f   nafxcw:wincore.obj
 0001:000200cf       ?get_accFocus@CWnd@@UAEJPAUtagVARIANT@@@Z 100210cf f   nafxcw:wincore.obj
 0001:000200df       ?get_accSelection@CWnd@@UAEJPAUtagVARIANT@@@Z 100210df f   nafxcw:wincore.obj
 0001:000200ef       ?get_accDefaultAction@CWnd@@UAEJUtagVARIANT@@PAPA_W@Z 100210ef f   nafxcw:wincore.obj
 0001:00020110       ?accSelect@CWnd@@UAEJJUtagVARIANT@@@Z 10021110 f   nafxcw:wincore.obj
 0001:00020131       ?accLocation@CWnd@@UAEJPAJ000UtagVARIANT@@@Z 10021131 f   nafxcw:wincore.obj
 0001:0002015d       ?accNavigate@CWnd@@UAEJJUtagVARIANT@@PAU2@@Z 1002115d f   nafxcw:wincore.obj
 0001:00020182       ?accHitTest@CWnd@@UAEJJJPAUtagVARIANT@@@Z 10021182 f   nafxcw:wincore.obj
 0001:0002019a       ?accDoDefaultAction@CWnd@@UAEJUtagVARIANT@@@Z 1002119a f   nafxcw:wincore.obj
 0001:000201b7       ?put_accName@CWnd@@UAEJUtagVARIANT@@PA_W@Z 100211b7 f   nafxcw:wincore.obj
 0001:000201b7       ?put_accValue@CWnd@@UAEJUtagVARIANT@@PA_W@Z 100211b7 f   nafxcw:wincore.obj
 0001:000201d8       ?SetProxy@CWnd@@UAEJPAUIAccessibleProxy@@@Z 100211d8 f   nafxcw:wincore.obj
 0001:000201e4       ?CheckAutoCenter@CWnd@@UAEHXZ 100211e4 f   nafxcw:wincore.obj
 0001:000201e4       ?OnCreateAggregates@CCmdTarget@@UAEHXZ 100211e4 f   nafxcw:cmdtarg.obj
 0001:000201e8       ?ContinueModal@CWnd@@UAEHXZ 100211e8 f   nafxcw:wincore.obj
 0001:000201ef       ??3CObject@@SGXPAX0@Z      100211ef f i nafxcw:wincore.obj
 0001:000201fc       ?GetTypeLibCache@CCmdTarget@@UAEPAVCTypeLibCache@@XZ 100211fc f   nafxcw:cmdtarg.obj
 0001:000201fc       ?IsFrameWnd@CWnd@@UBEHXZ   100211fc f   nafxcw:wincore.obj
 0001:000201fc       ?GetTypeInfoCount@CCmdTarget@@UAEIXZ 100211fc f   nafxcw:cmdtarg.obj
 0001:000201fc       ?GetOccDialogInfo@CWnd@@MAEPAU_AFX_OCC_DIALOG_INFO@@XZ 100211fc f   nafxcw:wincore.obj
 0001:000201fc       ___init_dummy              100211fc f   LIBCMT:setlocal.obj
 0001:000201fc       ___init_collate            100211fc f   LIBCMT:initcoll.obj
 0001:000201ff       ?CreateControlContainer@CWnd@@MAEHPAPAVCOleControlContainer@@@Z 100211ff f   nafxcw:wincore.obj
 0001:00020215       ?CreateControlSite@CWnd@@MAEHPAVCOleControlContainer@@PAPAVCOleControlSite@@IABU_GUID@@@Z 10021215 f   nafxcw:wincore.obj
 0001:0002022b       ?GetRuntimeClass@CWnd@@UBEPAUCRuntimeClass@@XZ 1002122b f   nafxcw:wincore.obj
 0001:00020231       ?Destruct@?$ConstructDestruct@VCWnd@@@@SGXPAVCObject@@@Z 10021231 f i nafxcw:wincore.obj
 0001:00020231       ?Destruct@?$ConstructDestruct@VCDC@@@@SGXPAVCObject@@@Z 10021231 f i nafxcw:wingdi.obj
 0001:00020231       ?Destruct@?$ConstructDestruct@VCGdiObject@@@@SGXPAVCObject@@@Z 10021231 f i nafxcw:wingdi.obj
 0001:00020231       ?Destruct@?$ConstructDestruct@VCMenu@@@@SGXPAVCObject@@@Z 10021231 f i nafxcw:winmenu.obj
 0001:0002023f       ?AfxCtxRegisterClassA@@YAGPBUtagWNDCLASSA@@@Z 1002123f f i nafxcw:wincore.obj
 0001:000202d2       ?AfxCtxGetClassInfoA@@YAHPAUHINSTANCE__@@PBDPAUtagWNDCLASSA@@@Z 100212d2 f i nafxcw:wincore.obj
 0001:00020366       ?AfxCtxGetClassInfoExA@@YAHPAUHINSTANCE__@@PBDPAUtagWNDCLASSEXA@@@Z 10021366 f i nafxcw:wincore.obj
 0001:000203fa       ?AfxCtxCreateWindowExA@@YAPAUHWND__@@KPBD0KHHHHPAU1@PAUHMENU__@@PAUHINSTANCE__@@PAX@Z 100213fa f i nafxcw:wincore.obj
 0001:000204a9       ?AfxCtxLoadLibraryA@@YAPAUHINSTANCE__@@PBD@Z 100214a9 f i nafxcw:wincore.obj
 0001:00020537       ?GetSubMenu@CMenu@@QBEPAV1@H@Z 10021537 f i nafxcw:wincore.obj
 0001:0002054d       ?BeginModalState@CWnd@@UAEXXZ 1002154d f i nafxcw:wincore.obj
 0001:00020559       ?EndModalState@CWnd@@UAEXXZ 10021559 f i nafxcw:wincore.obj
 0001:00020565       ?AfxInvariantStrICmp@@YAHPBD0@Z 10021565 f i nafxcw:wincore.obj
 0001:00020581       ?Lock@CInternalGlobalLock@@QAEXH@Z 10021581 f i nafxcw:wincore.obj
 0001:000205b0       ?Unlock@CInternalGlobalLock@@QAEXXZ 100215b0 f i nafxcw:wincore.obj
 0001:000205ca       ??0CWnd@@QAE@XZ            100215ca f   nafxcw:wincore.obj
 0001:0002060d       ?_AfxPreInitDialog@@YGXPAVCWnd@@PAUtagRECT@@PAK@Z 1002160d f   nafxcw:wincore.obj
 0001:00020630       ?CreateEx@CWnd@@UAEHKPBD0KABUtagRECT@@PAV1@IPAX@Z 10021630 f   nafxcw:wincore.obj
 0001:00020679       ?Create@CWnd@@UAEHPBD0KABUtagRECT@@PAV1@IPAUCCreateContext@@@Z 10021679 f   nafxcw:wincore.obj
 0001:000206c7       ?CancelToolTips@CWnd@@SGXH@Z 100216c7 f   nafxcw:wincore.obj
 0001:00020718       ?_AfxFindPopupMenuFromID@@YGPAVCMenu@@PAV1@I@Z 10021718 f   nafxcw:wincore.obj
 0001:00020784       ??1_AFX_HTMLHELP_STATE@@UAE@XZ 10021784 f   nafxcw:wincore.obj
 0001:00020799       ??_G_AFX_HTMLHELP_STATE@@UAEPAXI@Z 10021799 f i nafxcw:wincore.obj
 0001:00020799       ??_E_AFX_HTMLHELP_STATE@@UAEPAXI@Z 10021799 f i nafxcw:wincore.obj
 0001:000207b4       ?WinHelpInternal@CWnd@@UAEXKI@Z 100217b4 f   nafxcw:wincore.obj
 0001:00020805       ?OnActivateTopLevel@CWnd@@IAEJIJ@Z 10021805 f   nafxcw:wincore.obj
 0001:0002082e       ?AddRef@XAccessible@CWnd@@UAGKXZ 1002182e f   nafxcw:wincore.obj
 0001:00020876       ?Release@XAccessible@CWnd@@UAGKXZ 10021876 f   nafxcw:wincore.obj
 0001:000208be       ?QueryInterface@XAccessible@CWnd@@UAGJABU_GUID@@PAPAX@Z 100218be f   nafxcw:wincore.obj
 0001:0002090c       ?Invoke@XAccessible@CWnd@@UAGJJABU_GUID@@KGPAUtagDISPPARAMS@@PAUtagVARIANT@@PAUtagEXCEPINFO@@PAI@Z 1002190c f   nafxcw:wincore.obj
 0001:00020968       ?get_accParent@XAccessible@CWnd@@UAGJPAPAUIDispatch@@@Z 10021968 f   nafxcw:wincore.obj
 0001:000209b6       ?get_accChildCount@XAccessible@CWnd@@UAGJPAJ@Z 100219b6 f   nafxcw:wincore.obj
 0001:00020a04       ?get_accChild@XAccessible@CWnd@@UAGJUtagVARIANT@@PAPAUIDispatch@@@Z 10021a04 f   nafxcw:wincore.obj
 0001:00020a5e       ?get_accName@XAccessible@CWnd@@UAGJUtagVARIANT@@PAPA_W@Z 10021a5e f   nafxcw:wincore.obj
 0001:00020ab8       ?get_accValue@XAccessible@CWnd@@UAGJUtagVARIANT@@PAPA_W@Z 10021ab8 f   nafxcw:wincore.obj
 0001:00020b12       ?get_accDescription@XAccessible@CWnd@@UAGJUtagVARIANT@@PAPA_W@Z 10021b12 f   nafxcw:wincore.obj
 0001:00020b6c       ?get_accRole@XAccessible@CWnd@@UAGJUtagVARIANT@@PAU3@@Z 10021b6c f   nafxcw:wincore.obj
 0001:00020bc6       ?get_accState@XAccessible@CWnd@@UAGJUtagVARIANT@@PAU3@@Z 10021bc6 f   nafxcw:wincore.obj
 0001:00020c20       ?get_accHelp@XAccessible@CWnd@@UAGJUtagVARIANT@@PAPA_W@Z 10021c20 f   nafxcw:wincore.obj
 0001:00020c7a       ?get_accHelpTopic@XAccessible@CWnd@@UAGJPAPA_WUtagVARIANT@@PAJ@Z 10021c7a f   nafxcw:wincore.obj
 0001:00020cd7       ?get_accKeyboardShortcut@XAccessible@CWnd@@UAGJUtagVARIANT@@PAPA_W@Z 10021cd7 f   nafxcw:wincore.obj
 0001:00020d31       ?get_accFocus@XAccessible@CWnd@@UAGJPAUtagVARIANT@@@Z 10021d31 f   nafxcw:wincore.obj
 0001:00020d7f       ?get_accSelection@XAccessible@CWnd@@UAGJPAUtagVARIANT@@@Z 10021d7f f   nafxcw:wincore.obj
 0001:00020dcd       ?get_accDefaultAction@XAccessible@CWnd@@UAGJUtagVARIANT@@PAPA_W@Z 10021dcd f   nafxcw:wincore.obj
 0001:00020e27       ?accSelect@XAccessible@CWnd@@UAGJJUtagVARIANT@@@Z 10021e27 f   nafxcw:wincore.obj
 0001:00020e81       ?accLocation@XAccessible@CWnd@@UAGJPAJ000UtagVARIANT@@@Z 10021e81 f   nafxcw:wincore.obj
 0001:00020ee4       ?accNavigate@XAccessible@CWnd@@UAGJJUtagVARIANT@@PAU3@@Z 10021ee4 f   nafxcw:wincore.obj
 0001:00020f41       ?accHitTest@XAccessible@CWnd@@UAGJJJPAUtagVARIANT@@@Z 10021f41 f   nafxcw:wincore.obj
 0001:00020f95       ?accDoDefaultAction@XAccessible@CWnd@@UAGJUtagVARIANT@@@Z 10021f95 f   nafxcw:wincore.obj
 0001:00020fec       ?put_accName@XAccessible@CWnd@@UAGJUtagVARIANT@@PA_W@Z 10021fec f   nafxcw:wincore.obj
 0001:00021046       ?put_accValue@XAccessible@CWnd@@UAGJUtagVARIANT@@PA_W@Z 10022046 f   nafxcw:wincore.obj
 0001:000210a0       ?AddRef@XAccessibleServer@CWnd@@UAGKXZ 100220a0 f   nafxcw:wincore.obj
 0001:000210e8       ?Release@XAccessibleServer@CWnd@@UAGKXZ 100220e8 f   nafxcw:wincore.obj
 0001:00021130       ?QueryInterface@XAccessibleServer@CWnd@@UAGJABU_GUID@@PAPAX@Z 10022130 f   nafxcw:wincore.obj
 0001:0002117e       ?SetProxy@XAccessibleServer@CWnd@@UAGJPAUIAccessibleProxy@@@Z 1002217e f   nafxcw:wincore.obj
 0001:000211cc       ?GetHWND@XAccessibleServer@CWnd@@UAGJPAPAUHWND__@@@Z 100221cc f   nafxcw:wincore.obj
 0001:0002120c       ??1?$CComPtr@UIAccessibleProxy@@@ATL@@QAE@XZ 1002220c f i nafxcw:wincore.obj
 0001:00021219       ?CenterWindow@CWnd@@QAEXPAV1@@Z 10022219 f   nafxcw:wincore.obj
 0001:000213db       ?EndModalLoop@CWnd@@UAEXH@Z 100223db f   nafxcw:wincore.obj
 0001:00021400       ?CreateObject@CWnd@@SGPAVCObject@@XZ 10022400 f   nafxcw:wincore.obj
 0001:0002142d       ?Construct@?$ConstructDestruct@VCWnd@@@@SGXPAVCObject@@@Z 1002242d f i nafxcw:wincore.obj
 0001:00021454       ?GetModuleHandleA@CDllIsolationWrapperBase@@QAEPAUHINSTANCE__@@XZ 10022454 f i nafxcw:wincore.obj
 0001:00021486       ?GetProcAddress_InitCommonControls@CComCtlWrapper@@QAE?AUInitCommonControls_Type@1@XZ 10022486 f i nafxcw:wincore.obj
 0001:000214b0       ?_InitCommonControls@CComCtlWrapper@@QAEXXZ 100224b0 f i nafxcw:wincore.obj
 0001:00021524       ?GetProcAddress_InitCommonControlsEx@CComCtlWrapper@@QAE?AUInitCommonControlsEx_Type@1@XZ 10022524 f i nafxcw:wincore.obj
 0001:0002154e       ?_InitCommonControlsEx@CComCtlWrapper@@QAEHPAUtagINITCOMMONCONTROLSEX@@@Z 1002254e f i nafxcw:wincore.obj
 0001:000215f9       ?AfxInitCommonControlsEx@@YGHPAUtagINITCOMMONCONTROLSEX@@@Z 100225f9 f i nafxcw:wincore.obj
 0001:0002160f       ??1CInternalGlobalLock@@QAE@XZ 1002260f f i nafxcw:wincore.obj
 0001:00021614       ?GetCurrentMessage@CWnd@@KGPBUtagMSG@@XZ 10022614 f   nafxcw:wincore.obj
 0001:00021652       ?Default@CWnd@@IAEJXZ      10022652 f   nafxcw:wincore.obj
 0001:00021682       ?afxMapHWND@@YGPAVCHandleMap@@H@Z 10022682 f   nafxcw:wincore.obj
 0001:000216f6       ?FromHandle@CWnd@@SGPAV1@PAUHWND__@@@Z 100226f6 f   nafxcw:wincore.obj
 0001:0002171d       ?FromHandlePermanent@CWnd@@SGPAV1@PAUHWND__@@@Z 1002271d f   nafxcw:wincore.obj
 0001:00021737       ?Attach@CWnd@@QAEHPAUHWND__@@@Z 10022737 f   nafxcw:wincore.obj
 0001:00021770       ?Detach@CWnd@@QAEPAUHWND__@@XZ 10022770 f   nafxcw:wincore.obj
 0001:0002179e       ?AfxUnhookWindowCreate@@YGHXZ 1002279e f   nafxcw:wincore.obj
 0001:000217e9       ?OnDestroy@CWnd@@IAEXXZ    100227e9 f   nafxcw:wincore.obj
 0001:00021824       ?OnNcDestroy@CWnd@@IAEXXZ  10022824 f   nafxcw:wincore.obj
 0001:00021935       ?DestroyWindow@CWnd@@UAEHXZ 10022935 f   nafxcw:wincore.obj
 0001:00021992       ?OnNTCtlColor@CWnd@@IAEJIJ@Z 10022992 f   nafxcw:wincore.obj
 0001:000219e1       ?GetDescendantWindow@CWnd@@SGPAV1@PAUHWND__@@HH@Z 100229e1 f   nafxcw:wincore.obj
 0001:00021a58       ?SendChildNotifyLastMsg@CWnd@@QAEHPAJ@Z 10022a58 f   nafxcw:wincore.obj
 0001:00021a8e       ?OnSetFocus@CWnd@@IAEXPAV1@@Z 10022a8e f   nafxcw:wincore.obj
 0001:00021ab1       ?OnHelpInfo@CWnd@@IAEHPAUtagHELPINFO@@@Z 10022ab1 f   nafxcw:wincore.obj
 0001:00021b1b       ?OnGetObject@CWnd@@IAEJIJ@Z 10022b1b f   nafxcw:wincore.obj
 0001:00021b57       ?OnHScroll@CWnd@@IAEXIIPAVCScrollBar@@@Z 10022b57 f   nafxcw:wincore.obj
 0001:00021b57       ?OnVScroll@CWnd@@IAEXIIPAVCScrollBar@@@Z 10022b57 f   nafxcw:wincore.obj
 0001:00021b78       ?OnEnterIdle@CWnd@@IAEXIPAV1@@Z 10022b78 f   nafxcw:wincore.obj
 0001:00021bb8       ?OnCtlColor@CWnd@@IAEPAUHBRUSH__@@PAVCDC@@PAV1@I@Z 10022bb8 f   nafxcw:wincore.obj
 0001:00021bdf       ?_AfxInitCommonControls@@YGJPAUtagINITCOMMONCONTROLSEX@@J@Z 10022bdf f   nafxcw:wincore.obj
 0001:00021c36       ?CreateObject@?$CProcessLocal@V_AFX_HTMLHELP_STATE@@@@SGPAVCNoTrackObject@@XZ 10022c36 f i nafxcw:wincore.obj
 0001:00021c4b       ?_AfxPostInitDialog@@YGXPAVCWnd@@ABUtagRECT@@K@Z 10022c4b f   nafxcw:wincore.obj
 0001:00021cc7       ?AfxCallWndProc@@YGJPAVCWnd@@PAUHWND__@@IIJ@Z 10022cc7 f   nafxcw:wincore.obj
 0001:00021dba       ?AfxWndProc@@YGJPAUHWND__@@IIJ@Z 10022dba f   nafxcw:wincore.obj
 0001:00021e05       ??1CWnd@@UAE@XZ            10022e05 f   nafxcw:wincore.obj
 0001:00021e7a       ?OnCharToItem@CWnd@@IAEHIPAVCListBox@@I@Z 10022e7a f   nafxcw:wincore.obj
 0001:00021e7a       ?OnVKeyToItem@CWnd@@IAEHIPAVCListBox@@I@Z 10022e7a f   nafxcw:wincore.obj
 0001:00021ea5       ?OnMeasureItem@CWnd@@IAEXHPAUtagMEASUREITEMSTRUCT@@@Z 10022ea5 f   nafxcw:wincore.obj
 0001:00021f2a       ?SendMessageToDescendants@CWnd@@SGXPAUHWND__@@IIJHH@Z 10022f2a f   nafxcw:wincore.obj
 0001:00021fa7       ?ReflectLastMsg@CWnd@@KGHPAUHWND__@@PAJ@Z 10022fa7 f   nafxcw:wincore.obj
 0001:00022047       ?OnParentNotify@CWnd@@IAEXIJ@Z 10023047 f   nafxcw:wincore.obj
 0001:00022074       ?OnDragList@CWnd@@IAEJIJ@Z 10023074 f   nafxcw:wincore.obj
 0001:0002209e       ?get_accParent@?$IAccessibleProxyImpl@VCAccessibleProxy@ATL@@@ATL@@UAGJPAPAUIDispatch@@@Z 1002309e f i nafxcw:wincore.obj
 0001:000220cd       ?get_accChildCount@?$IAccessibleProxyImpl@VCAccessibleProxy@ATL@@@ATL@@UAGJPAJ@Z 100230cd f i nafxcw:wincore.obj
 0001:000220fc       ?get_accChild@?$IAccessibleProxyImpl@VCAccessibleProxy@ATL@@@ATL@@UAGJUtagVARIANT@@PAPAUIDispatch@@@Z 100230fc f i nafxcw:wincore.obj
 0001:0002213a       ?get_accName@?$IAccessibleProxyImpl@VCAccessibleProxy@ATL@@@ATL@@UAGJUtagVARIANT@@PAPA_W@Z 1002313a f i nafxcw:wincore.obj
 0001:00022178       ?get_accValue@?$IAccessibleProxyImpl@VCAccessibleProxy@ATL@@@ATL@@UAGJUtagVARIANT@@PAPA_W@Z 10023178 f i nafxcw:wincore.obj
 0001:000221b6       ?get_accDescription@?$IAccessibleProxyImpl@VCAccessibleProxy@ATL@@@ATL@@UAGJUtagVARIANT@@PAPA_W@Z 100231b6 f i nafxcw:wincore.obj
 0001:000221f4       ?get_accRole@?$IAccessibleProxyImpl@VCAccessibleProxy@ATL@@@ATL@@UAGJUtagVARIANT@@PAU3@@Z 100231f4 f i nafxcw:wincore.obj
 0001:00022232       ?get_accState@?$IAccessibleProxyImpl@VCAccessibleProxy@ATL@@@ATL@@UAGJUtagVARIANT@@PAU3@@Z 10023232 f i nafxcw:wincore.obj
 0001:00022270       ?get_accHelp@?$IAccessibleProxyImpl@VCAccessibleProxy@ATL@@@ATL@@UAGJUtagVARIANT@@PAPA_W@Z 10023270 f i nafxcw:wincore.obj
 0001:000222ae       ?get_accHelpTopic@?$IAccessibleProxyImpl@VCAccessibleProxy@ATL@@@ATL@@UAGJPAPA_WUtagVARIANT@@PAJ@Z 100232ae f i nafxcw:wincore.obj
 0001:000222f5       ?get_accKeyboardShortcut@?$IAccessibleProxyImpl@VCAccessibleProxy@ATL@@@ATL@@UAGJUtagVARIANT@@PAPA_W@Z 100232f5 f i nafxcw:wincore.obj
 0001:00022333       ?get_accFocus@?$IAccessibleProxyImpl@VCAccessibleProxy@ATL@@@ATL@@UAGJPAUtagVARIANT@@@Z 10023333 f i nafxcw:wincore.obj
 0001:00022362       ?get_accSelection@?$IAccessibleProxyImpl@VCAccessibleProxy@ATL@@@ATL@@UAGJPAUtagVARIANT@@@Z 10023362 f i nafxcw:wincore.obj
 0001:00022391       ?get_accDefaultAction@?$IAccessibleProxyImpl@VCAccessibleProxy@ATL@@@ATL@@UAGJUtagVARIANT@@PAPA_W@Z 10023391 f i nafxcw:wincore.obj
 0001:000223cf       ?accSelect@?$IAccessibleProxyImpl@VCAccessibleProxy@ATL@@@ATL@@UAGJJUtagVARIANT@@@Z 100233cf f i nafxcw:wincore.obj
 0001:000223ff       ?accLocation@?$IAccessibleProxyImpl@VCAccessibleProxy@ATL@@@ATL@@UAGJPAJ000UtagVARIANT@@@Z 100233ff f i nafxcw:wincore.obj
 0001:00022456       ?accNavigate@?$IAccessibleProxyImpl@VCAccessibleProxy@ATL@@@ATL@@UAGJJUtagVARIANT@@PAU3@@Z 10023456 f i nafxcw:wincore.obj
 0001:00022497       ?accHitTest@?$IAccessibleProxyImpl@VCAccessibleProxy@ATL@@@ATL@@UAGJJJPAUtagVARIANT@@@Z 10023497 f i nafxcw:wincore.obj
 0001:000224cd       ?accDoDefaultAction@?$IAccessibleProxyImpl@VCAccessibleProxy@ATL@@@ATL@@UAGJUtagVARIANT@@@Z 100234cd f i nafxcw:wincore.obj
 0001:000224f9       ?put_accName@?$IAccessibleProxyImpl@VCAccessibleProxy@ATL@@@ATL@@UAGJUtagVARIANT@@PA_W@Z 100234f9 f i nafxcw:wincore.obj
 0001:000224f9       ?put_accValue@?$IAccessibleProxyImpl@VCAccessibleProxy@ATL@@@ATL@@UAGJUtagVARIANT@@PA_W@Z 100234f9 f i nafxcw:wincore.obj
 0001:00022511       ?SetServer@?$IAccessibleProxyImpl@VCAccessibleProxy@ATL@@@ATL@@UAGJPAUIAccessible@@PAUIAccessibleServer@@@Z 10023511 f i nafxcw:wincore.obj
 0001:00022528       ?Invoke@?$IAccessibleProxyImpl@VCAccessibleProxy@ATL@@@ATL@@UAGJJABU_GUID@@KGPAUtagDISPPARAMS@@PAUtagVARIANT@@PAUtagEXCEPINFO@@PAI@Z 10023528 f i nafxcw:wincore.obj
 0001:00022560       ?GetIDsOfNames@?$IAccessibleProxyImpl@VCAccessibleProxy@ATL@@@ATL@@UAGJABU_GUID@@PAPA_WIKPAJ@Z 10023560 f i nafxcw:wincore.obj
 0001:0002258f       ?GetTypeInfoCount@?$IAccessibleProxyImpl@VCAccessibleProxy@ATL@@@ATL@@UAGJPAI@Z 1002358f f i nafxcw:wincore.obj
 0001:000225b0       ?GetTypeInfo@?$IAccessibleProxyImpl@VCAccessibleProxy@ATL@@@ATL@@UAGJIKPAPAUITypeInfo@@@Z 100235b0 f i nafxcw:wincore.obj
 0001:000225d9       ?GetOwner@CWnd@@QBEPAV1@XZ 100235d9 f i nafxcw:wincore.obj
 0001:000225f0       ??_ECWnd@@UAEPAXI@Z        100235f0 f i nafxcw:wincore.obj
 0001:000225f0       ??_GCWnd@@UAEPAXI@Z        100235f0 f i nafxcw:wincore.obj
 0001:0002260c       ?OnDrawItem@CWnd@@IAEXHPAUtagDRAWITEMSTRUCT@@@Z 1002360c f   nafxcw:wincore.obj
 0001:00022649       ?OnCompareItem@CWnd@@IAEHHPAUtagCOMPAREITEMSTRUCT@@@Z 10023649 f   nafxcw:wincore.obj
 0001:00022673       ?OnDeleteItem@CWnd@@IAEXHPAUtagDELETEITEMSTRUCT@@@Z 10023673 f   nafxcw:wincore.obj
 0001:00022693       ?AfxHtmlHelp@@YGPAUHWND__@@PAU1@PBDIK@Z 10023693 f   nafxcw:wincore.obj
 0001:00022711       ?OnCommand@CWnd@@MAEHIJ@Z  10023711 f   nafxcw:wincore.obj
 0001:000227a8       ?OnNotify@CWnd@@MAEHIJPAJ@Z 100237a8 f   nafxcw:wincore.obj
 0001:0002282b       ?AfxGetParentOwner@@YGPAUHWND__@@PAU1@@Z 1002382b f   nafxcw:wincore.obj
 0001:00022870       ?GetTopLevelParent@CWnd@@QBEPAV1@XZ 10023870 f   nafxcw:wincore.obj
 0001:00022898       ?OnSysColorChange@CWnd@@IAEXXZ 10023898 f   nafxcw:wincore.obj
 0001:000228de       ?OnDevModeChange@CWnd@@IAEXPAD@Z 100238de f   nafxcw:wincore.obj
 0001:00022929       ?OnDisplayChange@CWnd@@IAEJIJ@Z 10023929 f   nafxcw:wincore.obj
 0001:00022972       ??0?$CMFCComObject@VCAccessibleProxy@ATL@@@@QAE@PAX@Z 10023972 f i nafxcw:wincore.obj
 0001:0002299f       _InlineIsEqualGUID         1002399f f i nafxcw:wincore.obj
 0001:000229cc       ?GetWindow@CAccessibleProxy@ATL@@UAGJPAPAUHWND__@@@Z 100239cc f i nafxcw:wincore.obj
 0001:000229d1       ?ContextSensitiveHelp@CAccessibleProxy@ATL@@UAGJH@Z 100239d1 f i nafxcw:wincore.obj
 0001:000229d9       ?FinalRelease@CAccessibleProxy@ATL@@QAEJXZ 100239d9 f i nafxcw:wincore.obj
 0001:000229ee       ?InlineIsEqualUnknown@ATL@@YGHABU_GUID@@@Z 100239ee f i nafxcw:wincore.obj
 0001:00022a19       ?AtlInternalQueryInterface@ATL@@YGJPAXPBU_ATL_INTMAP_ENTRY@1@ABU_GUID@@PAPAX@Z 10023a19 f i nafxcw:wincore.obj
 0001:00022aba       ??1?$CMFCComObject@VCAccessibleProxy@ATL@@@@UAE@XZ 10023aba f i nafxcw:wincore.obj
 0001:00022adf       ?AddRef@?$CMFCComObject@VCAccessibleProxy@ATL@@@@UAGKXZ 10023adf f i nafxcw:wincore.obj
 0001:00022aec       ?Release@?$CMFCComObject@VCAccessibleProxy@ATL@@@@UAGKXZ 10023aec f i nafxcw:wincore.obj
 0001:00022b0a       ?QueryInterface@?$CMFCComObject@VCAccessibleProxy@ATL@@@@UAGJABU_GUID@@PAPAX@Z 10023b0a f i nafxcw:wincore.obj
 0001:00022b23       ??_G?$CMFCComObject@VCAccessibleProxy@ATL@@@@UAEPAXI@Z 10023b23 f i nafxcw:wincore.obj
 0001:00022b23       ??_E?$CMFCComObject@VCAccessibleProxy@ATL@@@@UAEPAXI@Z 10023b23 f i nafxcw:wincore.obj
 0001:00022b3f       ?Release@?$CMFCComObject@VCAccessibleProxy@ATL@@@@WBA@AGKXZ 10023b3f f i nafxcw:wincore.obj
 0001:00022b49       ?QueryInterface@?$CMFCComObject@VCAccessibleProxy@ATL@@@@W3AGJABU_GUID@@PAPAX@Z 10023b49 f i nafxcw:wincore.obj
 0001:00022b53       ?AddRef@?$CMFCComObject@VCAccessibleProxy@ATL@@@@WBA@AGKXZ 10023b53 f i nafxcw:wincore.obj
 0001:00022b5d       ?QueryInterface@?$CMFCComObject@VCAccessibleProxy@ATL@@@@WBA@AGJABU_GUID@@PAPAX@Z 10023b5d f i nafxcw:wincore.obj
 0001:00022b67       ?Release@?$CMFCComObject@VCAccessibleProxy@ATL@@@@W3AGKXZ 10023b67 f i nafxcw:wincore.obj
 0001:00022b71       ?AddRef@?$CMFCComObject@VCAccessibleProxy@ATL@@@@W3AGKXZ 10023b71 f i nafxcw:wincore.obj
 0001:00022b7b       ?_AfxHandleActivate@@YGXPAVCWnd@@I0@Z 10023b7b f   nafxcw:wincore.obj
 0001:00022bf1       ?_AfxHandleSetCursor@@YGHPAVCWnd@@II@Z 10023bf1 f   nafxcw:wincore.obj
 0001:00022c67       ?_AfxActivationWndProc@@YGJPAUHWND__@@IIJ@Z 10023c67 f   nafxcw:wincore.obj
 0001:00022db1       ?_AfxCbtFilterHook@@YGJHIJ@Z 10023db1 f   nafxcw:wincore.obj
 0001:00023004       ?AfxHookWindowCreate@@YGXPAVCWnd@@@Z 10024004 f   nafxcw:wincore.obj
 0001:00023059       ?CreateEx@CWnd@@UAEHKPBD0KHHHHPAUHWND__@@PAUHMENU__@@PAX@Z 10024059 f   nafxcw:wincore.obj
 0001:00023136       ?PrepareForHelp@CWnd@@QAEXXZ 10024136 f   nafxcw:wincore.obj
 0001:000231b2       ?OnWndMsg@CWnd@@MAEHIIJPAJ@Z 100241b2 f   nafxcw:wincore.obj
 0001:000237de       ?ReflectChildNotify@CWnd@@IAEHIIJPAJ@Z 100247de f   nafxcw:wincore.obj
 0001:000238c3       ?OnSettingChange@CWnd@@IAEXIPBD@Z 100248c3 f   nafxcw:wincore.obj
 0001:000238ef       ?CreateInstance@?$CMFCComObject@VCAccessibleProxy@ATL@@@@SGJPAPAV1@@Z 100248ef f i nafxcw:wincore.obj
 0001:00023961       ??1CWaitCursor@@QAE@XZ     10024961 f i nafxcw:wincore.obj
 0001:00023a51       ?WinHelpA@CWnd@@UAEXKI@Z   10024a51 f   nafxcw:wincore.obj
 0001:00023ac6       ?HtmlHelpA@CWnd@@UAEXKI@Z  10024ac6 f   nafxcw:wincore.obj
 0001:00023b3a       ?OnChildNotify@CWnd@@MAEHIIJPAJ@Z 10024b3a f   nafxcw:wincore.obj
 0001:00023b85       ?CreateAccessibleProxy@CWnd@@UAEJIJPAJ@Z 10024b85 f   nafxcw:wincore.obj
 0001:00023c44       ?GetMessageMap@CWnd@@MBEPBUAFX_MSGMAP@@XZ 10024c44 f   nafxcw:wincore.obj
 0001:00023c4a       ?AfxRegisterClass@@YGHPAUtagWNDCLASSA@@@Z 10024c4a f   nafxcw:wincore.obj
 0001:00023cd8       ?_AfxRegisterWithIcon@@YGHPAUtagWNDCLASSA@@PBDI@Z 10024cd8 f   nafxcw:wincore.obj
 0001:00023d19       ?AfxEndDeferRegisterClass@@YGHJ@Z 10024d19 f   nafxcw:wincore.obj
 0001:00023fec       ?PreCreateWindow@CWnd@@UAEHAAUtagCREATESTRUCTA@@@Z 10024fec f   nafxcw:wincore.obj
 0001:0002400c       ?OnAmbientProperty@CWnd@@UAEHPAVCOleControlSite@@JPAUtagVARIANT@@@Z 1002500c f   nafxcw:winocc.obj
 0001:00024014       ?GetStyle@CWnd@@QBEKXZ     10025014 f   nafxcw:winocc.obj
 0001:0002402e       ?GetExStyle@CWnd@@QBEKXZ   1002502e f   nafxcw:winocc.obj
 0001:00024048       ?IsWindowEnabled@CWnd@@QBEHXZ 10025048 f   nafxcw:winocc.obj
 0001:00024063       ?EnableWindow@CWnd@@QAEHH@Z 10025063 f   nafxcw:winocc.obj
 0001:00024084       ?SetWindowPos@CWnd@@QAEHPBV1@HHHHI@Z 10025084 f   nafxcw:winocc.obj
 0001:000240c0       ?AttachControlSite@CWnd@@IAEXPAVCHandleMap@@@Z 100250c0 f   nafxcw:winocc.obj
 0001:00024101       ??0CFixedAllocNoSync@@QAE@II@Z 10025101 f   nafxcw:fixalloc.obj
 0001:0002412b       ?FreeAll@CFixedAllocNoSync@@QAEXXZ 1002512b f   nafxcw:fixalloc.obj
 0001:00024140       ??1CFixedAllocNoSync@@QAE@XZ 10025140 f   nafxcw:fixalloc.obj
 0001:00024145       ?Alloc@CFixedAllocNoSync@@QAEPAXXZ 10025145 f   nafxcw:fixalloc.obj
 0001:00024185       ?AfxSetWindowText@@YGXPAUHWND__@@PBD@Z 10025185 f   nafxcw:winutil.obj
 0001:0002421b       ?AfxDeleteObject@@YGXPAPAX@Z 1002521b f   nafxcw:winutil.obj
 0001:0002423d       ?AfxGlobalFree@@YGXPAX@Z   1002523d f   nafxcw:winutil.obj
 0001:00024270       ?AfxCriticalNewHandler@@YAHI@Z 10025270 f   nafxcw:winutil.obj
 0001:000242bd       ?_AfxChildWindowFromPoint@@YGPAUHWND__@@PAU1@UtagPOINT@@@Z 100252bd f   nafxcw:winutil.obj
 0001:0002432f       ?SetAttribDC@CDC@@UAEXPAUHDC__@@@Z 1002532f f   nafxcw:wingdi.obj
 0001:00024339       ?SetOutputDC@CDC@@UAEXPAUHDC__@@@Z 10025339 f   nafxcw:wingdi.obj
 0001:00024343       ?ReleaseAttribDC@CDC@@UAEXXZ 10025343 f   nafxcw:wingdi.obj
 0001:00024348       ?ReleaseOutputDC@CDC@@UAEXXZ 10025348 f   nafxcw:wingdi.obj
 0001:0002434d       ?SaveDC@CDC@@UAEHXZ        1002534d f   nafxcw:wingdi.obj
 0001:0002437e       ?RestoreDC@CDC@@UAEHH@Z    1002537e f   nafxcw:wingdi.obj
 0001:000243bc       ?SetBkColor@CDC@@UAEKK@Z   100253bc f   nafxcw:wingdi.obj
 0001:000243eb       ?SetTextColor@CDC@@UAEKK@Z 100253eb f   nafxcw:wingdi.obj
 0001:0002441a       ?SetMapMode@CDC@@UAEHH@Z   1002541a f   nafxcw:wingdi.obj
 0001:00024448       ?GetClipBox@CDC@@UBEHPAUtagRECT@@@Z 10025448 f   nafxcw:wingdi.obj
 0001:00024458       ?GetRuntimeClass@CResourceException@@UBEPAUCRuntimeClass@@XZ 10025458 f   nafxcw:wingdi.obj
 0001:0002445e       ?GetRuntimeClass@CUserException@@UBEPAUCRuntimeClass@@XZ 1002545e f   nafxcw:wingdi.obj
 0001:00024464       ?GetRuntimeClass@CDC@@UBEPAUCRuntimeClass@@XZ 10025464 f   nafxcw:wingdi.obj
 0001:0002446a       ?GetRuntimeClass@CGdiObject@@UBEPAUCRuntimeClass@@XZ 1002546a f   nafxcw:wingdi.obj
 0001:00024470       ?AfxThrowUserException@@YGXXZ 10025470 f   nafxcw:wingdi.obj
 0001:0002448a       ??0CDC@@QAE@XZ             1002548a f   nafxcw:wingdi.obj
 0001:0002449e       ?PtVisible@CDC@@UBEHHH@Z   1002549e f i nafxcw:wingdi.obj
 0001:000244b2       ?RectVisible@CDC@@UBEHPBUtagRECT@@@Z 100254b2 f i nafxcw:wingdi.obj
 0001:000244c2       ?TextOutA@CDC@@UAEHHHPBDH@Z 100254c2 f i nafxcw:wingdi.obj
 0001:000244de       ?ExtTextOutA@CDC@@UAEHHHIPBUtagRECT@@PBDIPAH@Z 100254de f i nafxcw:wingdi.obj
 0001:00024503       ?TabbedTextOutA@CDC@@UAE?AVCSize@@HHPBDHHPAHH@Z 10025503 f i nafxcw:wingdi.obj
 0001:0002453b       ?DrawTextA@CDC@@UAEHPBDHPAUtagRECT@@I@Z 1002553b f i nafxcw:wingdi.obj
 0001:00024557       ?DrawTextExA@CDC@@UAEHPADHPAUtagRECT@@IPAUtagDRAWTEXTPARAMS@@@Z 10025557 f i nafxcw:wingdi.obj
 0001:00024576       ?GrayStringA@CDC@@UAEHPAVCBrush@@P6GHPAUHDC__@@JH@ZJHHHHH@Z 10025576 f i nafxcw:wingdi.obj
 0001:000245a6       ?Escape@CDC@@UAEHHHPBDPAX@Z 100255a6 f i nafxcw:wingdi.obj
 0001:000245c2       ?SetViewportOrg@CDC@@UAE?AVCPoint@@HH@Z 100255c2 f   nafxcw:wingdi.obj
 0001:000245ff       ?OffsetViewportOrg@CDC@@UAE?AVCPoint@@HH@Z 100255ff f   nafxcw:wingdi.obj
 0001:0002463c       ?SetViewportExt@CDC@@UAE?AVCSize@@HH@Z 1002563c f   nafxcw:wingdi.obj
 0001:00024679       ?ScaleViewportExt@CDC@@UAE?AVCSize@@HHHH@Z 10025679 f   nafxcw:wingdi.obj
 0001:000246c2       ?SetWindowExt@CDC@@UAE?AVCSize@@HH@Z 100256c2 f   nafxcw:wingdi.obj
 0001:000246ff       ?ScaleWindowExt@CDC@@UAE?AVCSize@@HHHH@Z 100256ff f   nafxcw:wingdi.obj
 0001:00024748       ?CreateObject@CDC@@SGPAVCObject@@XZ 10025748 f   nafxcw:wingdi.obj
 0001:00024769       ?CreateObject@CGdiObject@@SGPAVCObject@@XZ 10025769 f   nafxcw:wingdi.obj
 0001:00024783       ?Construct@?$ConstructDestruct@VCDC@@@@SGXPAVCObject@@@Z 10025783 f i nafxcw:wingdi.obj
 0001:0002479f       ?Construct@?$ConstructDestruct@VCGdiObject@@@@SGXPAVCObject@@@Z 1002579f f i nafxcw:wingdi.obj
 0001:000247b4       ??_GCResourceException@@UAEPAXI@Z 100257b4 f i nafxcw:wingdi.obj
 0001:000247b4       ??_ECResourceException@@UAEPAXI@Z 100257b4 f i nafxcw:wingdi.obj
 0001:000247d1       ??_GCUserException@@UAEPAXI@Z 100257d1 f i nafxcw:wingdi.obj
 0001:000247d1       ??_ECUserException@@UAEPAXI@Z 100257d1 f i nafxcw:wingdi.obj
 0001:000247ee       ?afxMapHDC@@YGPAVCHandleMap@@H@Z 100257ee f   nafxcw:wingdi.obj
 0001:00024862       ?FromHandle@CDC@@SGPAV1@PAUHDC__@@@Z 10025862 f   nafxcw:wingdi.obj
 0001:00024870       ?Detach@CDC@@QAEPAUHDC__@@XZ 10025870 f   nafxcw:wingdi.obj
 0001:000248a1       ??1CDC@@UAE@XZ             100258a1 f   nafxcw:wingdi.obj
 0001:000248ba       ?afxMapHGDIOBJ@@YGPAVCHandleMap@@H@Z 100258ba f   nafxcw:wingdi.obj
 0001:0002492e       ?FromHandle@CGdiObject@@SGPAV1@PAX@Z 1002592e f   nafxcw:wingdi.obj
 0001:0002493c       ?Detach@CGdiObject@@QAEPAXXZ 1002593c f   nafxcw:wingdi.obj
 0001:00024966       ?DeleteObject@CGdiObject@@QAEHXZ 10025966 f   nafxcw:wingdi.obj
 0001:0002497c       ??_GCDC@@UAEPAXI@Z         1002597c f i nafxcw:wingdi.obj
 0001:0002497c       ??_ECDC@@UAEPAXI@Z         1002597c f i nafxcw:wingdi.obj
 0001:00024998       ?SelectStockObject@CDC@@UAEPAVCGdiObject@@H@Z 10025998 f   nafxcw:wingdi.obj
 0001:000249d4       ?SelectObject@CDC@@UAEPAVCFont@@PAV2@@Z 100259d4 f   nafxcw:wingdi.obj
 0001:00024a1a       ??1CGdiObject@@UAE@XZ      10025a1a f i nafxcw:wingdi.obj
 0001:00024b02       ??_GCGdiObject@@UAEPAXI@Z  10025b02 f i nafxcw:wingdi.obj
 0001:00024b02       ??_ECGdiObject@@UAEPAXI@Z  10025b02 f i nafxcw:wingdi.obj
 0001:00024b1e       ?Create@CPlex@@SGPAU1@AAPAU1@II@Z 10025b1e f   nafxcw:plex.obj
 0001:00024b4f       ?FreeDataChain@CPlex@@QAEXXZ 10025b4f f   nafxcw:plex.obj
 0001:00024b65       ?GetRuntimeClass@CByteArray@@UBEPAUCRuntimeClass@@XZ 10025b65 f   nafxcw:array_b.obj
 0001:00024b6b       ??0CByteArray@@QAE@XZ      10025b6b f   nafxcw:array_b.obj
 0001:00024b82       ??1CByteArray@@UAE@XZ      10025b82 f   nafxcw:array_b.obj
 0001:00024b92       ?SetSize@CByteArray@@QAEXHH@Z 10025b92 f   nafxcw:array_b.obj
 0001:00024ca2       ?Serialize@CByteArray@@UAEXAAVCArchive@@@Z 10025ca2 f   nafxcw:array_b.obj
 0001:00024d1f       ?CreateObject@CByteArray@@SGPAVCObject@@XZ 10025d1f f   nafxcw:array_b.obj
 0001:00024d35       ??_GCByteArray@@UAEPAXI@Z  10025d35 f i nafxcw:array_b.obj
 0001:00024d35       ??_ECByteArray@@UAEPAXI@Z  10025d35 f i nafxcw:array_b.obj
 0001:00024d51       ?AfxFormatStrings@@YGXAAV?$CStringT@DV?$StrTraitMFC@DV?$ChTraitsCRT@D@ATL@@@@@ATL@@PBDPBQBDH@Z 10025d51 f   nafxcw:apphelp.obj
 0001:00024e93       ?AfxFormatStrings@@YGXAAV?$CStringT@DV?$StrTraitMFC@DV?$ChTraitsCRT@D@ATL@@@@@ATL@@IPBQBDH@Z 10025e93 f   nafxcw:apphelp.obj
 0001:00024eea       ?AfxFormatString1@@YGXAAV?$CStringT@DV?$StrTraitMFC@DV?$ChTraitsCRT@D@ATL@@@@@ATL@@IPBD@Z 10025eea f   nafxcw:apphelp.obj
 0001:00024f01       ?GetRuntimeClass@CMenu@@UBEPAUCRuntimeClass@@XZ 10025f01 f   nafxcw:winmenu.obj
 0001:00024f07       ?CreateObject@CMenu@@SGPAVCObject@@XZ 10025f07 f   nafxcw:winmenu.obj
 0001:00024f21       ?Construct@?$ConstructDestruct@VCMenu@@@@SGXPAVCObject@@@Z 10025f21 f i nafxcw:winmenu.obj
 0001:00024f36       ?afxMapHMENU@@YGPAVCHandleMap@@H@Z 10025f36 f   nafxcw:winmenu.obj
 0001:00024faa       ?FromHandle@CMenu@@SGPAV1@PAUHMENU__@@@Z 10025faa f   nafxcw:winmenu.obj
 0001:00024fb8       ?FromHandlePermanent@CMenu@@SGPAV1@PAUHMENU__@@@Z 10025fb8 f   nafxcw:winmenu.obj
 0001:00024fd2       ?Detach@CMenu@@QAEPAUHMENU__@@XZ 10025fd2 f   nafxcw:winmenu.obj
 0001:00024ffc       ?DestroyMenu@CMenu@@QAEHXZ 10025ffc f   nafxcw:winmenu.obj
 0001:00025012       ??_GCMenu@@UAEPAXI@Z       10026012 f i nafxcw:winmenu.obj
 0001:00025012       ??_ECMenu@@UAEPAXI@Z       10026012 f i nafxcw:winmenu.obj
 0001:00025034       ?AfxPostQuitMessage@@YGXH@Z 10026034 f   nafxcw:appcore.obj
 0001:00025050       ?DevModeChange@CWinApp@@QAEXPAD@Z 10026050 f   nafxcw:appcore.obj
 0001:000250ee       ?AfxOleCanExitApp@@YGHXZ   100260ee f   nafxcw:olelock.obj
 0001:000250fe       ?AfxOleLockApp@@YGXXZ      100260fe f   nafxcw:olelock.obj
 0001:0002510e       ?AfxOleSetUserCtrl@@YGXH@Z 1002610e f   nafxcw:olelock.obj
 0001:0002511d       ?AfxOleOnReleaseAllObjects@@YGXXZ 1002611d f   nafxcw:olelock.obj
 0001:00025169       ?AfxOleUnlockApp@@YGXXZ    10026169 f   nafxcw:olelock.obj
 0001:00025182       ?_AfxInitDBCS@@YGHXZ       10026182 f   nafxcw:afxdbcs.obj
 0001:000251b9       ??1_Fac_node@std@@QAE@XZ   100261b9 f i libcpmt:locale0.obj
 0001:000251ce       __Deletegloballocale       100261ce f   libcpmt:locale0.obj
 0001:00025214       ?_Getgloballocale@locale@std@@CAPAV_Locimp@12@XZ 10026214 f   libcpmt:locale0.obj
 0001:0002521a       ?_Setgloballocale@locale@std@@CAXPAX@Z 1002621a f   libcpmt:locale0.obj
 0001:0002523f       ?_Locimp_dtor@_Locimp@locale@std@@CAXPAV123@@Z 1002623f f   libcpmt:locale0.obj
 0001:0002529f       __Fac_tidy                 1002629f f   libcpmt:locale0.obj
 0001:000252e2       ?facet_Register@facet@locale@std@@CAXPAV123@@Z 100262e2 f   libcpmt:locale0.obj
 0001:0002531b       ?_Locinfo_dtor@_Locinfo@std@@SAXPAV12@@Z 1002631b f   libcpmt:locale0.obj
 0001:0002533e       ??0_Locimp@locale@std@@AAE@_N@Z 1002633e f i libcpmt:locale0.obj
 0001:00025387       ??1_Locimp@locale@std@@MAE@XZ 10026387 f i libcpmt:locale0.obj
 0001:000253c4       ??_G_Locimp@locale@std@@MAEPAXI@Z 100263c4 f i libcpmt:locale0.obj
 0001:000253c4       ??_E_Locimp@locale@std@@MAEPAXI@Z 100263c4 f i libcpmt:locale0.obj
 0001:000253e0       ?_Init@locale@std@@CAPAV_Locimp@12@XZ 100263e0 f   libcpmt:locale0.obj
 0001:0002547a       ?_Locinfo_ctor@_Locinfo@std@@SAXPAV12@PBD@Z 1002647a f   libcpmt:locale0.obj
 0001:000254c4       __Tolower                  100264c4 f   libcpmt:_tolower.obj
 0001:000255d3       __Getctype                 100265d3 f   libcpmt:_tolower.obj
 0001:0002562e       ?_Xfsopen@std@@YAPAU_iobuf@@PB_W0H@Z 1002662e f   libcpmt:fiopen.obj
 0001:000256e3       ?_Fiopen@std@@YAPAU_iobuf@@PB_WHH@Z 100266e3 f   libcpmt:fiopen.obj
 0001:00025798       ?_Fiopen@std@@YAPAU_iobuf@@PBDHH@Z 10026798 f   libcpmt:fiopen.obj
 0001:000257f3       ?_Callfns@ios_base@std@@AAEXW4event@12@@Z 100267f3 f i libcpmt:ios.obj
 0001:00025815       ?_Tidy@ios_base@std@@AAAXXZ 10026815 f i libcpmt:ios.obj
 0001:0002585b       ?_Ios_base_dtor@ios_base@std@@CAXPAV12@@Z 1002685b f   libcpmt:ios.obj
 0001:00025899       __Toupper                  10026899 f   libcpmt:_toupper.obj
 0001:000259ad       ??0_Init_locks@std@@QAE@XZ 100269ad f   libcpmt:xlock.obj
 0001:000259dc       ??1_Init_locks@std@@QAE@XZ 100269dc f   libcpmt:xlock.obj
 0001:00025a05       ??0_Lockit@std@@QAE@H@Z    10026a05 f   libcpmt:xlock.obj
 0001:00025a26       ??1_Lockit@std@@QAE@XZ     10026a26 f   libcpmt:xlock.obj
 0001:00025a38       ?_Xlen@_String_base@std@@SAXXZ 10026a38 f   libcpmt:string.obj
 0001:00025a77       ?_Xran@_String_base@std@@SAXXZ 10026a77 f   libcpmt:string.obj
 0001:00025ab6       ??0_Mutex@std@@QAE@XZ      10026ab6 f   libcpmt:xmutex.obj
 0001:00025ace       ??1_Mutex@std@@QAE@XZ      10026ace f   libcpmt:xmutex.obj
 0001:00025ae3       ?_Lock@_Mutex@std@@QAEXXZ  10026ae3 f   libcpmt:xmutex.obj
 0001:00025aec       ?_Unlock@_Mutex@std@@QAEXXZ 10026aec f   libcpmt:xmutex.obj
 0001:00025af5       ?uncaught_exception@std@@YA_NXZ 10026af5 f   libcpmt:uncaught.obj
 0001:00025b06       ?setw@std@@YA?AU?$_Smanip@H@1@H@Z 10026b06 f   libcpmt:iomanip.obj
 0001:00025b18       __Getcvt                   10026b18 f   libcpmt:xwctomb.obj
 0001:00025b2c       ?_Atexit@@YAXP6AXXZ@Z      10026b2c f   libcpmt:iosptrs.obj
 0001:00025b4c       ??1_Init_atexit@@QAE@XZ    10026b4c f i libcpmt:iosptrs.obj
 0001:00025b71       __Mtxinit                  10026b71 f   libcpmt:xmtx.obj
 0001:00025b7c       __Mtxdst                   10026b7c f   libcpmt:xmtx.obj
 0001:00025b87       __Mtxlock                  10026b87 f   libcpmt:xmtx.obj
 0001:00025b92       __Mtxunlock                10026b92 f   libcpmt:xmtx.obj
 0001:00025bee       ??0exception@std@@QAE@XZ   10026bee f   LIBCMT:stdexcpt.obj
 0001:00025bff       ??0exception@std@@QAE@ABQBD@Z 10026bff f   LIBCMT:stdexcpt.obj
 0001:00025c4d       ??0exception@std@@QAE@ABV01@@Z 10026c4d f   LIBCMT:stdexcpt.obj
 0001:00025ca5       ??1exception@std@@UAE@XZ   10026ca5 f   LIBCMT:stdexcpt.obj
 0001:00025cbb       ?what@exception@std@@UBEPBDXZ 10026cbb f   LIBCMT:stdexcpt.obj
 0001:00025cc8       ??0bad_cast@std@@QAE@PBD@Z 10026cc8 f   LIBCMT:stdexcpt.obj
 0001:00025ce1       ??0bad_cast@std@@QAE@ABV01@@Z 10026ce1 f   LIBCMT:stdexcpt.obj
 0001:00025cf9       ??1bad_cast@std@@UAE@XZ    10026cf9 f   LIBCMT:stdexcpt.obj
 0001:00025d04       ??_Eexception@std@@UAEPAXI@Z 10026d04 f i LIBCMT:stdexcpt.obj
 0001:00025d04       ??_Gexception@std@@UAEPAXI@Z 10026d04 f i LIBCMT:stdexcpt.obj
 0001:00025d20       ??_Gbad_cast@std@@UAEPAXI@Z 10026d20 f i LIBCMT:stdexcpt.obj
 0001:00025d20       ??_Ebad_cast@std@@UAEPAXI@Z 10026d20 f i LIBCMT:stdexcpt.obj
 0001:00025d42       __amsg_exit                10026d42 f   LIBCMT:crt0dat.obj
 0001:00025d66       ___crtCorExitProcess       10026d66 f   LIBCMT:crt0dat.obj
 0001:00025d8c       ___crtExitProcess          10026d8c f   LIBCMT:crt0dat.obj
 0001:00025da1       __lockexit                 10026da1 f   LIBCMT:crt0dat.obj
 0001:00025daa       __unlockexit               10026daa f   LIBCMT:crt0dat.obj
 0001:00025dcb       __initterm_e               10026dcb f   LIBCMT:crt0dat.obj
 0001:00025deb       __get_osplatform           10026deb f   LIBCMT:crt0dat.obj
 0001:00025e22       __get_winmajor             10026e22 f   LIBCMT:crt0dat.obj
 0001:00025e5e       __cinit                    10026e5e f   LIBCMT:crt0dat.obj
 0001:00025fd2       _exit                      10026fd2 f   LIBCMT:crt0dat.obj
 0001:00025fe3       __exit                     10026fe3 f   LIBCMT:crt0dat.obj
 0001:00025ff4       __cexit                    10026ff4 f   LIBCMT:crt0dat.obj
 0001:00026003       __init_pointers            10027003 f   LIBCMT:crt0dat.obj
 0001:0002604f       __fseek_nolock             1002704f f   LIBCMT:fseek.obj
 0001:000260d6       _fseek                     100270d6 f   LIBCMT:fseek.obj
 0001:0002615b       _printf                    1002715b f   LIBCMT:printf.obj
 0001:0002620a       __get_printf_count_output  1002720a f   LIBCMT:printf.obj
 0001:00026220       __fwrite_nolock            10027220 f   LIBCMT:fwrite.obj
 0001:0002637f       _fwrite                    1002737f f   LIBCMT:fwrite.obj
 0001:00026401       _setvbuf                   10027401 f   LIBCMT:setvbuf.obj
 0001:000264ff       ??1type_info@@UAE@XZ       100274ff f   LIBCMT:typinfo.obj
 0001:0002650d       ??_Gtype_info@@UAEPAXI@Z   1002750d f i LIBCMT:typinfo.obj
 0001:0002650d       ??_Etype_info@@UAEPAXI@Z   1002750d f i LIBCMT:typinfo.obj
 0001:00026529       ??8type_info@@QBE_NABV0@@Z 10027529 f   LIBCMT:typinfo.obj
 0001:00026544       _fgetc                     10027544 f   LIBCMT:fgetc.obj
 0001:0002667b       @__security_check_cookie@4 1002767b f   LIBCMT:secchk.obj
 0001:0002668a       _fgetpos                   1002768a f   LIBCMT:fgetpos.obj
 0001:000267ae       ___onexitinit              100277ae f   LIBCMT:onexit.obj
 0001:000267dd       __onexit                   100277dd f   LIBCMT:onexit.obj
 0001:00026819       _atexit                    10027819 f   LIBCMT:onexit.obj
 0001:00026830       _memchr                    10027830 f   LIBCMT:memchr.obj
 0001:000268dd       __flush                    100278dd f   LIBCMT:fflush.obj
 0001:0002693f       __fflush_nolock            1002793f f   LIBCMT:fflush.obj
 0001:00026a5b       _fflush                    10027a5b f   LIBCMT:fflush.obj
 0001:00026aae       __flushall                 10027aae f   LIBCMT:fflush.obj
 0001:00026ab7       _memmove_s                 10027ab7 f   LIBCMT:memmove_s.obj
 0001:00026b12       __ungetc_nolock            10027b12 f   LIBCMT:ungetc.obj
 0001:00026c30       _ungetc                    10027c30 f   LIBCMT:ungetc.obj
 0001:00026ca2       __fclose_nolock            10027ca2 f   LIBCMT:fclose.obj
 0001:00026d14       _fclose                    10027d14 f   LIBCMT:fclose.obj
 0001:00026d90       _fputc                     10027d90 f   LIBCMT:fputc.obj
 0001:00026ed0       _strstr                    10027ed0 f   LIBCMT:strstr.obj
 0001:00026f56       _remove                    10027f56 f   LIBCMT:unlink.obj
 0001:00026f80       _sprintf                   10027f80 f   LIBCMT:sprintf.obj
 0001:00026ffb       _sprintf_s                 10027ffb f   LIBCMT:sprintf.obj
 0001:00027017       _free                      10028017 f   LIBCMT:free.obj
 0001:000270a5       _fsetpos                   100280a5 f   LIBCMT:fsetpos.obj
 0001:000270e7       __endthreadex              100280e7 f   LIBCMT:threadex.obj
 0001:000271e1       __beginthreadex            100281e1 f   LIBCMT:threadex.obj
 0001:0002728f       _memcpy_s                  1002828f f   LIBCMT:memcpy_s.obj
 0001:0002730a       __initp_misc_invarg        1002830a f   LIBCMT:invarg.obj
 0001:00027314       __invoke_watson            10028314 f   LIBCMT:invarg.obj
 0001:00027410       __invalid_parameter        10028410 f   LIBCMT:invarg.obj
 0001:00027434       __invalid_parameter_noinfo 10028434 f   LIBCMT:invarg.obj
 0001:00027444       _realloc                   10028444 f   LIBCMT:realloc.obj
 0001:0002765f       __recalloc                 1002865f f   LIBCMT:realloc.obj
 0001:000276d8       __vsnprintf_helper         100286d8 f   LIBCMT:vsnprnc.obj
 0001:000277a2       __vsprintf_s_l             100287a2 f   LIBCMT:vsnprnc.obj
 0001:00027828       _vsprintf_s                10028828 f   LIBCMT:vsnprnc.obj
 0001:00027843       ??0_LocaleUpdate@@QAE@PAUlocaleinfo_struct@@@Z 10028843 f i LIBCMT:mbsrchr.obj
 0001:000278c5       __mbsrchr_l                100288c5 f   LIBCMT:mbsrchr.obj
 0001:00027985       __mbsrchr                  10028985 f   LIBCMT:mbsrchr.obj
 0001:00027998       __vscprintf_helper         10028998 f   LIBCMT:vsprintf.obj
 0001:000279ed       __vscprintf                100289ed f   LIBCMT:vsprintf.obj
 0001:00027a05       _fgets                     10028a05 f   LIBCMT:fgets.obj
 0001:00027b8c       _V6_HeapAlloc              10028b8c f   LIBCMT:malloc.obj
 0001:00027bdb       _malloc                    10028bdb f   LIBCMT:malloc.obj
 0001:00027c9e       _feof                      10028c9e f   LIBCMT:feoferr.obj
 0001:00027ccd       __calloc_impl              10028ccd f   LIBCMT:calloc.obj
 0001:00027deb       __fsopen                   10028deb f   LIBCMT:fopen.obj
 0001:00027eaf       _fopen                     10028eaf f   LIBCMT:fopen.obj
 0001:00027f2a       _sscanf                    10028f2a f   LIBCMT:sscanf.obj
 0001:00027f60       _strchr                    10028f60 f   LIBCMT:strchr.obj
 0001:00027f66       ___from_strstr_to_strchr   10028f66     LIBCMT:strchr.obj
 0001:0002801e       ?__ArrayUnwind@@YGXPAXIHP6EX0@Z@Z 1002901e f   LIBCMT:ehvecdtr.obj
 0001:0002807c       ??_M@YGXPAXIHP6EX0@Z@Z     1002907c f   LIBCMT:ehvecdtr.obj
 0001:000280df       ??_L@YGXPAXIHP6EX0@Z1@Z    100290df f   LIBCMT:ehvecctr.obj
 0001:00028144       __purecall                 10029144 f   LIBCMT:purevirt.obj
 0001:00028170       _strcspn                   10029170 f   LIBCMT:strcspn.obj
 0001:000281c0       _strpbrk                   100291c0 f   LIBCMT:strpbrk.obj
 0001:00028200       _localeconv                10029200 f   LIBCMT:lconv.obj
 0001:00028226       __isupper_l                10029226 f i LIBCMT:_ctype.obj
 0001:00028275       _isupper                   10029275 f i LIBCMT:_ctype.obj
 0001:0002829e       __islower_l                1002929e f i LIBCMT:_ctype.obj
 0001:000282ed       _islower                   100292ed f i LIBCMT:_ctype.obj
 0001:00028316       __isdigit_l                10029316 f i LIBCMT:_ctype.obj
 0001:00028365       _isdigit                   10029365 f i LIBCMT:_ctype.obj
 0001:0002838e       __isxdigit_l               1002938e f i LIBCMT:_ctype.obj
 0001:000283e2       _isxdigit                  100293e2 f i LIBCMT:_ctype.obj
 0001:0002840d       __isspace_l                1002940d f i LIBCMT:_ctype.obj
 0001:0002845c       _isspace                   1002945c f i LIBCMT:_ctype.obj
 0001:00028485       __tolower_l                10029485 f   LIBCMT:tolower.obj
 0001:0002859c       _tolower                   1002959c f   LIBCMT:tolower.obj
 0001:000285c3       __CRT_INIT@12              100295c3 f   LIBCMT:dllcrt0.obj
 0001:00028892       __DllMainCRTStartup@12     10029892 f   LIBCMT:dllcrt0.obj
 0001:000288c0       _strlen                    100298c0 f   LIBCMT:strlen.obj
 0001:0002894b       ?_JumpToContinuation@@YGXPAXPAUEHRegistrationNode@@@Z 1002994b f   LIBCMT:trnsctrl.obj
 0001:0002897b       ?_CallMemberFunction1@@YGXPAX00@Z 1002997b f   LIBCMT:trnsctrl.obj
 0001:0002897b       ?_CallMemberFunction2@@YGXPAX00H@Z 1002997b f   LIBCMT:trnsctrl.obj
 0001:0002897b       ?_CallMemberFunction0@@YGXPAX0@Z 1002997b f   LIBCMT:trnsctrl.obj
 0001:00028982       ?_UnwindNestedFrames@@YGXPAUEHRegistrationNode@@PAUEHExceptionRecord@@@Z 10029982 f   LIBCMT:trnsctrl.obj
 0001:000289d4       ___CxxFrameHandler3        100299d4 f   LIBCMT:trnsctrl.obj
 0001:00028a3a       ?_CallSETranslator@@YAHPAUEHExceptionRecord@@PAUEHRegistrationNode@@PAX2PBU_s_FuncInfo@@H1@Z 10029a3a f   LIBCMT:trnsctrl.obj
 0001:00028bac       ?_GetRangeOfTrysToCheck@@YAPBU_s_TryBlockMapEntry@@PBU_s_FuncInfo@@HHPAI1@Z 10029bac f   LIBCMT:trnsctrl.obj
 0001:00028c1f       __CreateFrameInfo          10029c1f f   LIBCMT:trnsctrl.obj
 0001:00028c47       __IsExceptionObjectToBeDestroyed 10029c47 f   LIBCMT:trnsctrl.obj
 0001:00028c68       __FindAndUnlinkFrame       10029c68 f   LIBCMT:trnsctrl.obj
 0001:00028cb4       ?_CallCatchBlock2@@YAPAXPAUEHRegistrationNode@@PBU_s_FuncInfo@@PAXHK@Z 10029cb4 f   LIBCMT:trnsctrl.obj
 0001:00028d12       __EH_prolog3               10029d12 f   LIBCMT:ehprolg3.obj
 0001:00028d45       __EH_prolog3_catch         10029d45 f   LIBCMT:ehprolg3.obj
 0001:00028d7b       __EH_prolog3_GS            10029d7b f   LIBCMT:ehprolg3.obj
 0001:00028db1       __EH_epilog3               10029db1 f   LIBCMT:ehprolg3.obj
 0001:00028dc5       __EH_epilog3_GS            10029dc5 f   LIBCMT:ehprolg3.obj
 0001:00028dd4       __mbsnbcpy_s               10029dd4 f   LIBCMT:mbsnbcpy_s.obj
 0001:00028def       _wcslen                    10029def f   LIBCMT:wcslen.obj
 0001:00028e05       __CxxThrowException@8      10029e05 f   LIBCMT:throw.obj
 0001:00028e50       __SEH_prolog4_GS           10029e50 f   LIBCMT:sehprolg4gs.obj
 0001:00028e98       __SEH_epilog4_GS           10029e98 f   LIBCMT:sehprolg4gs.obj
 0001:00028eb0       __except_handler4          10029eb0 f   LIBCMT:chandler4.obj
 0001:00029050       __alloca_probe_16          1002a050 f   LIBCMT:alloca16.obj
 0001:00029066       __alloca_probe_8           1002a066     LIBCMT:alloca16.obj
 0001:0002907c       __get_errno_from_oserr     1002a07c f   LIBCMT:dosmap.obj
 0001:000290b7       __errno                    1002a0b7 f   LIBCMT:dosmap.obj
 0001:000290ca       ___doserrno                1002a0ca f   LIBCMT:dosmap.obj
 0001:000290dd       __dosmaperr                1002a0dd f   LIBCMT:dosmap.obj
 0001:00029100       _memset                    1002a100 f   LIBCMT:memset.obj
 0001:0002917a       __msize                    1002a17a f   LIBCMT:msize.obj
 0001:0002921d       __mbsspn_l                 1002a21d f   LIBCMT:mbsspn.obj
 0001:000292e2       __mbsspn                   1002a2e2 f   LIBCMT:mbsspn.obj
 0001:000292f5       __mbscspn_l                1002a2f5 f   LIBCMT:mbscspn.obj
 0001:000293ba       __mbscspn                  1002a3ba f   LIBCMT:mbscspn.obj
 0001:000293cd       _strcpy_s                  1002a3cd f   LIBCMT:strcpy_s.obj
 0001:00029432       _strcat_s                  1002a432 f   LIBCMT:strcat_s.obj
 0001:000294a3       __strdup                   1002a4a3 f   LIBCMT:strdup.obj
 0001:000294f3       _memcmp                    1002a4f3 f   LIBCMT:memcmp.obj
 0001:0002ab74       __SEH_prolog4              1002bb74 f   LIBCMT:sehprolg4.obj
 0001:0002abb9       __SEH_epilog4              1002bbb9 f   LIBCMT:sehprolg4.obj
 0001:0002abcd       ?PostNcDestroy@CWnd@@MAEXXZ 1002bbcd f   nafxcw:wincore.obj
 0001:0002abcd       __initp_misc_winxfltr      1002bbcd f   LIBCMT:winxfltr.obj
 0001:0002abcd       ?PreSubclassWindow@CWnd@@UAEXXZ 1002bbcd f   nafxcw:wincore.obj
 0001:0002abcd       __fpclear                  1002bbcd f   LIBCMT:fpinit.obj
 0001:0002abce       __cfltcvt_init             1002bbce f   LIBCMT:fpinit.obj
 0001:0002ac2e       __fpmath                   1002bc2e f   LIBCMT:fpinit.obj
 0001:0002ac50       __ftol2_sse                1002bc50 f   LIBCMT:ftol2.obj
 0001:0002ac59       __ftol2_pentium4           1002bc59 f   LIBCMT:ftol2.obj
 0001:0002ac6c       __ftol2_sse_excpt          1002bc6c f   LIBCMT:ftol2.obj
 0001:0002ac86       __ftol2                    1002bc86 f   LIBCMT:ftol2.obj
 0001:0002ad00       __allmul                   1002bd00 f   LIBCMT:llmul.obj
 0001:0002ad40       __alldiv                   1002bd40 f   LIBCMT:lldiv.obj
 0001:0002adea       __mbscmp_l                 1002bdea f   LIBCMT:mbscmp.obj
 0001:0002af06       __mbscmp                   1002bf06 f   LIBCMT:mbscmp.obj
 0001:0002af19       _strncpy_s                 1002bf19 f   LIBCMT:strncpy_s.obj
 0001:0002afcc       __expand                   1002bfcc f   LIBCMT:expand.obj
 0001:0002b0ca       _atol                      1002c0ca f   LIBCMT:atox.obj
 0001:0002b12c       __ismbblead_l              1002c12c f   LIBCMT:ismbbyte.obj
 0001:0002b141       __ismbblead                1002c141 f   LIBCMT:ismbbyte.obj
 0001:0002b160       __alloca_probe             1002c160     LIBCMT:chkstk.obj
 0001:0002b160       __chkstk                   1002c160 f   LIBCMT:chkstk.obj
 0001:0002b18b       ___freetlocinfo            1002c18b f   LIBCMT:setlocal.obj
 0001:0002b2cb       ___addlocaleref            1002c2cb f   LIBCMT:setlocal.obj
 0001:0002b351       ___removelocaleref         1002c351 f   LIBCMT:setlocal.obj
 0001:0002b43f       ___updatetlocinfo          1002c43f f   LIBCMT:setlocal.obj
 0001:0002b508       __free_locale              1002c508 f   LIBCMT:setlocal.obj
 0001:0002b59e       __strcats                  1002c59e f   LIBCMT:setlocal.obj
 0001:0002b5dc       ___lc_strtolc              1002c5dc f   LIBCMT:setlocal.obj
 0001:0002b705       ___lc_lctostr              1002c705 f   LIBCMT:setlocal.obj
 0001:0002b8e1       __expandlocale             1002c8e1 f   LIBCMT:setlocal.obj
 0001:0002bf79       _setlocale                 1002cf79 f   LIBCMT:setlocal.obj
 0001:0002c0e9       __freea                    1002d0e9 f i LIBCMT:a_map.obj
 0001:0002c4a6       ___crtLCMapStringA         1002d4a6 f   LIBCMT:a_map.obj
 0001:0002c4e9       ___pctype_func             1002d4e9 f   LIBCMT:ctype.obj
 0001:0002c512       ___init_ctype              1002d512 f   LIBCMT:initctyp.obj
 0001:0002c8a7       ____lc_codepage_func       1002d8a7 f   LIBCMT:initctyp.obj
 0001:0002c8cd       ____lc_handle_func         1002d8cd f   LIBCMT:initctyp.obj
 0001:0002c900       _memcpy                    1002d900 f   LIBCMT:memcpy.obj
 0001:0002cc65       __malloc_crt               1002dc65 f   LIBCMT:crtheap.obj
 0001:0002cca5       __calloc_crt               1002dca5 f   LIBCMT:crtheap.obj
 0001:0002cced       __realloc_crt              1002dced f   LIBCMT:crtheap.obj
 0001:0002cd38       __recalloc_crt             1002dd38 f   LIBCMT:crtheap.obj
 0001:0002cd88       __wcstombs_l_helper        1002dd88 f   LIBCMT:wcstombs.obj
 0001:0002cfce       __wcstombs_s_l             1002dfce f   LIBCMT:wcstombs.obj
 0001:0002d07f       _wcstombs_s                1002e07f f   LIBCMT:wcstombs.obj
 0001:0002d09d       __wfsopen                  1002e09d f   LIBCMT:wfopen.obj
 0001:0002d163       __mbstowcs_l_helper        1002e163 f   LIBCMT:mbstowcs.obj
 0001:0002d2eb       __mbstowcs_s_l             1002e2eb f   LIBCMT:mbstowcs.obj
 0001:0002d3e1       _mbstowcs_s                1002e3e1 f   LIBCMT:mbstowcs.obj
 0001:0002d3ff       ??1bad_exception@std@@UAE@XZ 1002e3ff f i LIBCMT:frame.obj
 0001:0002d40a       ??_Ebad_exception@std@@UAEPAXI@Z 1002e40a f i LIBCMT:frame.obj
 0001:0002d40a       ??_Gbad_exception@std@@UAEPAXI@Z 1002e40a f i LIBCMT:frame.obj
 0001:0002d42c       ___TypeMatch               1002e42c f   LIBCMT:frame.obj
 0001:0002d488       ___FrameUnwindFilter       1002e488 f   LIBCMT:frame.obj
 0001:0002d4cc       ___FrameUnwindToState      1002e4cc f   LIBCMT:frame.obj
 0001:0002d5f2       ___DestructExceptionObject 1002e5f2 f   LIBCMT:frame.obj
 0001:0002d646       ___AdjustPointer           1002e646 f   LIBCMT:frame.obj
 0001:0002d66b       ?__uncaught_exception@@YA_NXZ 1002e66b f   LIBCMT:frame.obj
 0001:0002d8dc       ___BuildCatchObjectHelper  1002e8dc f   LIBCMT:frame.obj
 0001:0002da5b       ___BuildCatchObject        1002ea5b f   LIBCMT:frame.obj
 0001:0002dfa0       ??0bad_exception@std@@QAE@ABV01@@Z 1002efa0 f i LIBCMT:frame.obj
 0001:0002dfb8       ___InternalCxxFrameHandler 1002efb8 f   LIBCMT:frame.obj
 0001:0002e09c       _abort                     1002f09c f   LIBCMT:abort.obj
 0001:0002e18f       __set_abort_behavior       1002f18f f   LIBCMT:abort.obj
 0001:0002e288       __itoa_s                   1002f288 f   LIBCMT:xtoas.obj
 0001:0002e31c       __encode_pointer           1002f31c f   LIBCMT:tidtable.obj
 0001:0002e38a       __encoded_null             1002f38a f   LIBCMT:tidtable.obj
 0001:0002e393       __decode_pointer           1002f393 f   LIBCMT:tidtable.obj
 0001:0002e401       ___crtTlsAlloc@4           1002f401 f   LIBCMT:tidtable.obj
 0001:0002e40a       ___fls_getvalue@4          1002f40a f   LIBCMT:tidtable.obj
 0001:0002e41f       ___get_flsindex            1002f41f f   LIBCMT:tidtable.obj
 0001:0002e425       ___set_flsgetvalue         1002f425 f   LIBCMT:tidtable.obj
 0001:0002e457       ___fls_setvalue@8          1002f457 f   LIBCMT:tidtable.obj
 0001:0002e470       __mtterm                   1002f470 f   LIBCMT:tidtable.obj
 0001:0002e4ad       __initptd                  1002f4ad f   LIBCMT:tidtable.obj
 0001:0002e56c       __getptd_noexit            1002f56c f   LIBCMT:tidtable.obj
 0001:0002e5e3       __getptd                   1002f5e3 f   LIBCMT:tidtable.obj
 0001:0002e5fb       __freefls@4                1002f5fb f   LIBCMT:tidtable.obj
 0001:0002e71c       __freeptd                  1002f71c f   LIBCMT:tidtable.obj
 0001:0002e785       __mtinit                   1002f785 f   LIBCMT:tidtable.obj
 0001:0002e909       __NMSG_WRITE               1002f909 f   LIBCMT:crt0msg.obj
 0001:0002eaa9       __FF_MSGBANNER             1002faa9 f   LIBCMT:crt0msg.obj
 0001:0002eae2       __mtinitlocks              1002fae2 f   LIBCMT:mlock.obj
 0001:0002eb2b       __mtdeletelocks            1002fb2b f   LIBCMT:mlock.obj
 0001:0002eb80       __unlock                   1002fb80 f   LIBCMT:mlock.obj
 0001:0002eb95       __mtinitlocknum            1002fb95 f   LIBCMT:mlock.obj
 0001:0002ec58       __lock                     1002fc58 f   LIBCMT:mlock.obj
 0001:0002ec89       __RTC_Initialize           1002fc89 f   LIBCMT:initsect.obj
 0001:0002ecad       __RTC_Terminate            1002fcad f   LIBCMT:initsect.obj
 0001:0002ecd1       __initp_misc_cfltcvt_tab   1002fcd1 f   LIBCMT:cmiscdat.obj
 0001:0002ecf0       __ValidateImageBase        1002fcf0 f   LIBCMT:pesect.obj
 0001:0002ed20       __FindPESection            1002fd20 f   LIBCMT:pesect.obj
 0001:0002ed70       __IsNonwritableInCurrentImage 1002fd70 f   LIBCMT:pesect.obj
 0001:0002ee2b       ?terminate@@YAXXZ          1002fe2b f   LIBCMT:hooks.obj
 0001:0002ee64       ?unexpected@@YAXXZ         1002fe64 f   LIBCMT:hooks.obj
 0001:0002ee77       ?_inconsistency@@YAXXZ     1002fe77 f   LIBCMT:hooks.obj
 0001:0002eeae       __initp_eh_hooks           1002feae f   LIBCMT:hooks.obj
 0001:0002eebf       __XcptFilter               1002febf f   LIBCMT:winxfltr.obj
 0001:0002f01d       ___CppXcptFilter           1003001d f   LIBCMT:winxfltr.obj
 0001:0002f038       __initp_misc_winsig        10030038 f   LIBCMT:winsig.obj
 0001:0002f085       ___get_sigabrt             10030085 f   LIBCMT:winsig.obj
 0001:0002f092       _raise                     10030092 f   LIBCMT:winsig.obj
 0001:0002f242       __initp_misc_rand_s        10030242 f   LIBCMT:rand_s.obj
 0001:0002f24c       ___getlocaleinfo           1003024c f   LIBCMT:inithelp.obj
 0001:0002f3a6       __initp_misc_purevirt      100303a6 f   LIBCMT:inithelp.obj
 0001:0002f3b0       __initp_misc_initcrit      100303b0 f   LIBCMT:initcrit.obj
 0001:0002f3ca       ___crtInitCritSecAndSpinCount 100303ca f   LIBCMT:initcrit.obj
 0001:0002f48f       __initp_heap_handler       1003048f f   LIBCMT:handler.obj
 0001:0002f499       __callnewh                 10030499 f   LIBCMT:handler.obj
 0001:0002f4bb       __lseek_nolock             100304bb f   LIBCMT:lseek.obj
 0001:0002f52d       __lseek                    1003052d f   LIBCMT:lseek.obj
 0001:0002f609       __fileno                   10030609 f   LIBCMT:fileno.obj
 0001:0002f636       __ftell_nolock             10030636 f   LIBCMT:ftell.obj
 0001:0002f7ce       ___iob_func                100307ce f   LIBCMT:_file.obj
 0001:0002f7d4       ___initstdio               100307d4 f   LIBCMT:_file.obj
 0001:0002f885       ___endstdio                10030885 f   LIBCMT:_file.obj
 0001:0002f8a5       __lock_file                100308a5 f   LIBCMT:_file.obj
 0001:0002f8e1       __lock_file2               100308e1 f   LIBCMT:_file.obj
 0001:0002f90f       __unlock_file              1003090f f   LIBCMT:_file.obj
 0001:0002f945       __unlock_file2             10030945 f   LIBCMT:_file.obj
 0001:0002f96f       __stbuf                    1003096f f   LIBCMT:_sftbuf.obj
 0001:0002fa05       __ftbuf                    10030a05 f   LIBCMT:_sftbuf.obj
 0001:0002fa34       __output_l                 10030a34 f   LIBCMT:output.obj
 0001:000303c8       __flsbuf                   100313c8 f   LIBCMT:_flsbuf.obj
 0001:00030528       __write_nolock             10031528 f   LIBCMT:write.obj
 0001:00030b4a       __write                    10031b4a f   LIBCMT:write.obj
 0001:00030c26       __freebuf                  10031c26 f   LIBCMT:_freebuf.obj
 0001:00030c52       ?_Type_info_dtor@type_info@@CAXPAV1@@Z 10031c52 f   LIBCMT:typname.obj
 0001:00030cd0       _strcmp                    10031cd0 f   LIBCMT:strcmp.obj
 0001:00030d58       __filbuf                   10031d58 f   LIBCMT:_filbuf.obj
 0001:00030e78       __ioinit                   10031e78 f   LIBCMT:ioinit.obj
 0001:000310cc       __ioterm                   100320cc f   LIBCMT:ioinit.obj
 0001:00031118       ___report_gsfailure        10032118 f   LIBCMT:gs_report.obj
 0001:0003121c       __ftelli64_nolock          1003221c f   LIBCMT:ftelli64.obj
 0001:000314f6       __ftelli64                 100324f6 f   LIBCMT:ftelli64.obj
 0001:00031540       __commit                   10032540 f   LIBCMT:commit.obj
 0001:00031630       _memmove                   10032630 f   LIBCMT:memmove.obj
 0001:00031995       __getbuf                   10032995 f   LIBCMT:_getbuf.obj
 0001:000319d9       __close_nolock             100329d9 f   LIBCMT:close.obj
 0001:00031a70       __close                    10032a70 f   LIBCMT:close.obj
 0001:00031b3d       ___heap_select             10032b3d f   LIBCMT:heapinit.obj
 0001:00031b98       __heap_init                10032b98 f   LIBCMT:heapinit.obj
 0001:00031bf2       __heap_term                10032bf2 f   LIBCMT:heapinit.obj
 0001:00031c66       ___sbh_heap_init           10032c66 f   LIBCMT:sbheap.obj
 0001:00031cae       ___sbh_find_block          10032cae f   LIBCMT:sbheap.obj
 0001:00031cd9       ___sbh_free_block          10032cd9 f   LIBCMT:sbheap.obj
 0001:00031fed       ___sbh_alloc_new_region    10032fed f   LIBCMT:sbheap.obj
 0001:0003209d       ___sbh_alloc_new_group     1003309d f   LIBCMT:sbheap.obj
 0001:000321a3       ___sbh_resize_block        100331a3 f   LIBCMT:sbheap.obj
 0001:00032482       ___sbh_alloc_block         10033482 f   LIBCMT:sbheap.obj
 0001:00032765       __fseeki64_nolock          10033765 f   LIBCMT:fseeki64.obj
 0001:000327fe       __fseeki64                 100337fe f   LIBCMT:fseeki64.obj
 0001:0003284d       __crt_debugger_hook        1003384d f   LIBCMT:dbghook.obj
 0001:000328f6       __output_s_l               100338f6 f   LIBCMT:outputs.obj
 0001:000334b4       ___updatetmbcinfo          100344b4 f   LIBCMT:mbctype.obj
 0001:000335d2       __setmbcp_nolock           100345d2 f   LIBCMT:mbctype.obj
 0001:000337ab       __setmbcp                  100347ab f   LIBCMT:mbctype.obj
 0001:00033945       ___initmbctable            10034945 f   LIBCMT:mbctype.obj
 0001:00033970       _strrchr                   10034970 f   LIBCMT:strrchr.obj
 0001:0003399d       __openfile                 1003499d f   LIBCMT:_open.obj
 0001:00033c3d       __getstream                10034c3d f   LIBCMT:stream.obj
 0001:00033d74       __local_unwind4            10034d74 f   LIBCMT:exsup4.obj
 0001:00033e4a       __seh_longjmp_unwind4@4    10034e4a f   LIBCMT:exsup4.obj
 0001:00033e66       @_EH4_CallFilterFunc@8     10034e66 f   LIBCMT:exsup4.obj
 0001:00033e7d       @_EH4_TransferToHandler@8  10034e7d f   LIBCMT:exsup4.obj
 0001:00033e96       @_EH4_GlobalUnwind@4       10034e96 f   LIBCMT:exsup4.obj
 0001:00033eb0       @_EH4_LocalUnwind@16       10034eb0 f   LIBCMT:exsup4.obj
 0001:00033f56       __input_l                  10034f56 f   LIBCMT:input.obj
 0001:00034ba3       __isctype_l                10035ba3 f   LIBCMT:isctype.obj
 0001:00034c59       __isleadbyte_l             10035c59 f i LIBCMT:_wctype.obj
 0001:00034c8f       _isleadbyte                10035c8f f i LIBCMT:_wctype.obj
 0001:00034c9d       __setenvp                  10035c9d f   LIBCMT:stdenvp.obj
 0001:00034f10       __setargv                  10035f10 f   LIBCMT:stdargv.obj
 0001:00034fc9       ___crtGetEnvironmentStringsA 10035fc9 f   LIBCMT:a_env.obj
 0001:000350fe       ___security_init_cookie    100360fe f   LIBCMT:gs_support.obj
 0001:000351a0       __CallSettingFrame@12      100361a0 f   LIBCMT:lowhelpr.obj
 0001:000351c7       __NLG_Return               100361c7     LIBCMT:lowhelpr.obj
 0001:000351ec       __mbsnbcpy_s_l             100361ec f   LIBCMT:mbsnbcpy_s_l.obj
 0001:00035450       __VEC_memzero              10036450 f   LIBCMT:p4_memset.obj
 0001:000354df       __sse2_mathfcns_init       100364df f   LIBCMT:mathfcns.obj
 0001:00035500       _strspn                    10036500 f   LIBCMT:strspn.obj
 0001:00035546       __forcdecpt_l              10036546 f   LIBCMT:cvt.obj
 0001:000355b7       __cropzeros_l              100365b7 f   LIBCMT:cvt.obj
 0001:00035637       __positive                 10036637 f   LIBCMT:cvt.obj
 0001:0003564d       __fassign_l                1003664d f   LIBCMT:cvt.obj
 0001:0003568d       __fassign                  1003668d f   LIBCMT:cvt.obj
 0001:000356c1       __forcdecpt                100366c1 f   LIBCMT:cvt.obj
 0001:000356cf       __cropzeros                100366cf f   LIBCMT:cvt.obj
 0001:0003584a       __cftoe_l                  1003684a f   LIBCMT:cvt.obj
 0001:00035918       __cftoe                    10036918 f   LIBCMT:cvt.obj
 0001:00035936       __cftoa_l                  10036936 f   LIBCMT:cvt.obj
 0001:00035d9c       __cftof_l                  10036d9c f   LIBCMT:cvt.obj
 0001:00035e55       __cftog_l                  10036e55 f   LIBCMT:cvt.obj
 0001:00035f4d       __cfltcvt_l                10036f4d f   LIBCMT:cvt.obj
 0001:00035fd3       __cfltcvt                  10036fd3 f   LIBCMT:cvt.obj
 0001:00035ff4       __setdefaultprecision      10036ff4 f   LIBCMT:fp8.obj
 0001:0003601d       __ms_p5_test_fdiv          1003701d f   LIBCMT:testfdiv.obj
 0001:00036059       __ms_p5_mp_test_fdiv       10037059 f   LIBCMT:testfdiv.obj
 0001:000362ad       _strtol                    100372ad f   LIBCMT:strtol.obj
 0001:000362e0       __allrem                   100372e0 f   LIBCMT:llrem.obj
 0001:000367ab       ___free_lc_time            100377ab f   LIBCMT:inittime.obj
 0001:0003693b       ___init_time               1003793b f   LIBCMT:inittime.obj
 0001:000369ae       ___free_lconv_num          100379ae f   LIBCMT:initnum.obj
 0001:000369ee       ___init_numeric            100379ee f   LIBCMT:initnum.obj
 0001:00036bb6       ___free_lconv_mon          10037bb6 f   LIBCMT:initmon.obj
 0001:00036c3f       ___init_monetary           10037c3f f   LIBCMT:initmon.obj
 0001:0003747d       ___get_qualified_locale    1003847d f   LIBCMT:getqloc.obj
 0001:00037818       ___crtGetStringTypeA       10038818 f   LIBCMT:a_str.obj
 0001:00037858       _strncmp                   10038858 f   LIBCMT:strncmp.obj
 0001:00037916       ___ansicp                  10038916 f   LIBCMT:convrtcp.obj
 0001:0003795d       ___convertcp               1003895d f   LIBCMT:convrtcp.obj
 0001:00037b96       __VEC_memcpy               10038b96 f   LIBCMT:p4_memcpy.obj
 0001:00037c79       __wopenfile                10038c79 f   LIBCMT:_wopen.obj
 0001:00037f05       ?_ValidateWrite@@YAHPAXI@Z 10038f05 f   LIBCMT:validate.obj
 0001:00037f05       ?_ValidateRead@@YAHPBXI@Z  10038f05 f   LIBCMT:validate.obj
 0001:00037f05       ?_ValidateExecute@@YAHP6GHXZ@Z 10038f05 f   LIBCMT:validate.obj
 0001:00037f20       __aulldvrm                 10038f20 f   LIBCMT:ulldvrm.obj
 0001:00037fb5       ___crtMessageBoxA          10038fb5 f   LIBCMT:crtmbox.obj
 0001:00038172       __set_error_mode           10039172 f   LIBCMT:errmode.obj
 0001:000381b8       __fptrap                   100391b8 f   LIBCMT:crt0fp.obj
 0001:000382fc       ___crtGetLocaleInfoW       100392fc f   LIBCMT:w_loc.obj
 0001:00038474       ___crtGetLocaleInfoA       10039474 f   LIBCMT:a_loc.obj
 0001:000384af       __set_osfhnd               100394af f   LIBCMT:osfinfo.obj
 0001:0003852c       __free_osfhnd              1003952c f   LIBCMT:osfinfo.obj
 0001:000385ad       __get_osfhandle            100395ad f   LIBCMT:osfinfo.obj
 0001:0003861e       ___lock_fhandle            1003961e f   LIBCMT:osfinfo.obj
 0001:000386be       __unlock_fhandle           100396be f   LIBCMT:osfinfo.obj
 0001:000386e0       __alloc_osfhnd             100396e0 f   LIBCMT:osfinfo.obj
 0001:0003887a       __fcloseall                1003987a f   LIBCMT:closeall.obj
 0001:00038919       __isatty                   10039919 f   LIBCMT:isatty.obj
 0001:00038977       __wctomb_s_l               10039977 f   LIBCMT:wctomb.obj
 0001:00038ad6       _wctomb_s                  10039ad6 f   LIBCMT:wctomb.obj
 0001:00038af1       __lseeki64_nolock          10039af1 f   LIBCMT:lseeki64.obj
 0001:00038b74       __lseeki64                 10039b74 f   LIBCMT:lseeki64.obj
 0001:00038c8d       __putwch_nolock            10039c8d f   LIBCMT:putwch.obj
 0001:00038d4f       __mbtowc_l                 10039d4f f   LIBCMT:mbtowc.obj
 0001:00038e62       _mbtowc                    10039e62 f   LIBCMT:mbtowc.obj
 0001:00038e79       __read_nolock              10039e79 f   LIBCMT:read.obj
 0001:0003943a       __read                     1003a43a f   LIBCMT:read.obj
 0001:00039c90       __sopen_helper             1003ac90 f   LIBCMT:open.obj
 0001:00039d5c       __sopen_s                  1003ad5c f   LIBCMT:open.obj
 0001:00039d7a       __mbsicmp_l                1003ad7a f   LIBCMT:mbsicmp.obj
 0001:00039f94       __mbsicmp                  1003af94 f   LIBCMT:mbsicmp.obj
 0001:00039fa7       __mbsnbcmp_l               1003afa7 f   LIBCMT:mbsnbcmp.obj
 0001:0003a110       __mbsnbcmp                 1003b110 f   LIBCMT:mbsnbcmp.obj
 0001:0003a128       __global_unwind2           1003b128 f   LIBCMT:exsup.obj
 0001:0003a18d       __local_unwind2            1003b18d f   LIBCMT:exsup.obj
 0001:0003a211       __abnormal_termination     1003b211 f   LIBCMT:exsup.obj
 0001:0003a234       __NLG_Notify1              1003b234 f   LIBCMT:exsup.obj
 0001:0003a23d       __NLG_Notify               1003b23d f   LIBCMT:exsup.obj
 0001:0003a254       __NLG_Dispatch             1003b254     LIBCMT:exsup.obj
 0001:0003a254       __NLG_Dispatch2            1003b254     LIBCMT:exsup.obj
 0001:0003a25c       __NLG_Call                 1003b25c f   LIBCMT:exsup.obj
 0001:0003a25e       __NLG_Return2              1003b25e     LIBCMT:exsup.obj
 0001:0003a25f       __iswctype_l               1003b25f f   LIBCMT:iswctype.obj
 0001:0003a331       __get_sse2_info            1003b331 f   LIBCMT:cpu_disp.obj
 0001:0003a391       ___sse2_available_init     1003b391 f   LIBCMT:cpu_disp.obj
 0001:0003a39e       __atodbl_l                 1003b39e f   LIBCMT:atodbl.obj
 0001:0003a444       __atoflt_l                 1003b444 f   LIBCMT:atodbl.obj
 0001:0003a4ea       __fptostr                  1003b4ea f   LIBCMT:_fptostr.obj
 0001:0003a5a7       ___dtold                   1003b5a7 f   LIBCMT:cfout.obj
 0001:0003a662       __fltout2                  1003b662 f   LIBCMT:cfout.obj
 0001:0003a6f0       __alldvrm                  1003b6f0 f   LIBCMT:lldvrm.obj
 0001:0003a7d0       __aullshr                  1003b7d0 f   LIBCMT:ullshr.obj
 0001:0003a7ef       __controlfp_s              1003b7ef f   LIBCMT:contrlfp.obj
 0001:0003a859       ___ascii_stricmp           1003b859 f   LIBCMT:stricmp.obj
 0001:0003a88e       __stricmp_l                1003b88e f   LIBCMT:stricmp.obj
 0001:0003a961       __stricmp                  1003b961 f   LIBCMT:stricmp.obj
 0001:0003a961       _stricmp                   1003b961 f   LIBCMT:stricmp.obj
 0001:0003a9b1       __strnicmp_l               1003b9b1 f   LIBCMT:strnicmp.obj
 0001:0003aaa1       __strnicmp                 1003baa1 f   LIBCMT:strnicmp.obj
 0001:0003b257       __wsopen_helper            1003c257 f   LIBCMT:wopen.obj
 0001:0003b323       __wsopen_s                 1003c323 f   LIBCMT:wopen.obj
 0001:0003b341       __wcsicmp_l                1003c341 f   LIBCMT:wcsicmp.obj
 0001:0003b450       __wcsicmp                  1003c450 f   LIBCMT:wcsicmp.obj
 0001:0003b4e1       _wcsncmp                   1003c4e1 f   LIBCMT:wcsncmp.obj
 0001:0003b516       ___initconout              1003c516 f   LIBCMT:initcon.obj
 0001:0003b535       ___termcon                 1003c535 f   LIBCMT:initcon.obj
 0001:0003b562       __chsize_nolock            1003c562 f   LIBCMT:chsize.obj
 0001:0003b716       __setmode_nolock           1003c716 f   LIBCMT:setmode.obj
 0001:0003b7d2       __get_fmode                1003c7d2 f   LIBCMT:setmode.obj
 0001:0003ba2a       ___crtGetStringTypeW       1003ca2a f   LIBCMT:w_str.obj
 0001:0003ba68       __ld12tod                  1003ca68 f   LIBCMT:intrncvt.obj
 0001:0003bfaa       __ld12tof                  1003cfaa f   LIBCMT:intrncvt.obj
 0001:0003c4ec       ___strgtold12_l            1003d4ec f   LIBCMT:strgtold.obj
 0001:0003cbac       _$I10_OUTPUT               1003dbac f   LIBCMT:x10fout.obj
 0001:0003d5a0       __control87                1003e5a0 f i LIBCMT:ieee87.obj
 0001:0003d8b0       ___ascii_strnicmp          1003e8b0 f   LIBCMT:_strnicm.obj
 0001:0003d911       __towlower_l               1003e911 f   LIBCMT:towlower.obj
 0001:0003d9be       ___mtold12                 1003e9be f   LIBCMT:mantold.obj
 0001:0003db8a       ___set_fpsr_sse2           1003eb8a f   LIBCMT:fpctrl.obj
 0001:0003de5d       ___crtLCMapStringW         1003ee5d f   LIBCMT:w_map.obj
 0001:0003de9e       _RtlUnwind@16              1003ee9e f   kernel32:KERNEL32.dll
 0001:0003dea4       _ClosePrinter@4            1003eea4 f   winspool:WINSPOOL.DRV
 0001:0003deaa       _DocumentPropertiesA@24    1003eeaa f   winspool:WINSPOOL.DRV
 0001:0003deb0       _OpenPrinterA@12           1003eeb0 f   winspool:WINSPOOL.DRV
 0001:0003deb6       ?_AtlGetThreadACPFake@ATL@@YGIXZ 1003eeb6 f i atls:atltrace.obj
 0001:0003df1b       ?_AtlGetThreadACPReal@ATL@@YGIXZ 1003ef1b f i atls:atltrace.obj
 0001:0003df1f       ?_AtlGetThreadACPThunk@ATL@@YGIXZ 1003ef1f f i atls:atltrace.obj
 0001:0003df83       ??0CComCriticalSection@ATL@@QAE@XZ 1003ef83 f i atls:atlbase.obj
 0001:0003df97       ?Init@CComCriticalSection@ATL@@QAEJXZ 1003ef97 f i atls:atlbase.obj
 0001:0003dfe2       ?AtlWinModuleInit@ATL@@YGJPAU_ATL_WIN_MODULE70@1@@Z 1003efe2 f i atls:atlbase.obj
 0001:0003e005       ?RemoveAll@?$CSimpleArray@PAUHINSTANCE__@@V?$CSimpleArrayEqualHelper@PAUHINSTANCE__@@@ATL@@@ATL@@QAEXXZ 1003f005 f i atls:atlbase.obj
 0001:0003e005       ?RemoveAll@?$CSimpleArray@GV?$CSimpleArrayEqualHelper@G@ATL@@@ATL@@QAEXXZ 1003f005 f i atls:atlbase.obj
 0001:0003e022       ??A?$CSimpleArray@GV?$CSimpleArrayEqualHelper@G@ATL@@@ATL@@QAEAAGH@Z 1003f022 f i atls:atlbase.obj
 0001:0003e049       ??0_ATL_WIN_MODULE70@ATL@@QAE@XZ 1003f049 f i atls:atlbase.obj
 0001:0003e063       ?AtlWinModuleTerm@ATL@@YGJPAU_ATL_WIN_MODULE70@1@PAUHINSTANCE__@@@Z 1003f063 f i atls:atlbase.obj
 0001:0003e0c3       ??0_ATL_BASE_MODULE70@ATL@@QAE@XZ 1003f0c3 f i atls:atlbase.obj
 0001:0003e0dd       ??1CAtlBaseModule@ATL@@QAE@XZ 1003f0dd f   atls:atlbase.obj
 0001:0003e0f3       ??0CAtlWinModule@ATL@@QAE@XZ 1003f0f3 f i atls:atlbase.obj
 0001:0003e119       ??0CAtlBaseModule@ATL@@QAE@XZ 1003f119 f   atls:atlbase.obj
 0001:0003e1c8       ??1CAtlWinModule@ATL@@QAE@XZ 1003f1c8 f i atls:atlbase.obj
 0001:0003e1e0       __imp_load__CreateStdAccessibleObject@16 1003f1e0     oleacc:OLEACC.dll
 0001:0003e1ea       __tailMerge_OLEACC_dll     1003f1ea     oleacc:OLEACC.dll
 0001:0003e1fb       _CreateStdAccessibleObject@16 1003f1fb f   oleacc:OLEACC.dll
 0001:0003e201       __imp_load__LresultFromObject@12 1003f201     oleacc:OLEACC.dll
 0001:0003e20b       _LresultFromObject@12      1003f20b f   oleacc:OLEACC.dll
 0001:0003e211       ___delayLoadHelper2@8      1003f211 f   DelayImp:delayhlp.obj
 0002:00000000       __imp__SetWindowExtEx@16   10043000     gdi32:GDI32.dll
 0002:00000004       __imp__ScaleWindowExtEx@24 10043004     gdi32:GDI32.dll
 0002:00000008       __imp__DeleteDC@4          10043008     gdi32:GDI32.dll
 0002:0000000c       __imp__GetStockObject@4    1004300c     gdi32:GDI32.dll
 0002:00000010       __imp__ScaleViewportExtEx@24 10043010     gdi32:GDI32.dll
 0002:00000014       __imp__SetViewportExtEx@16 10043014     gdi32:GDI32.dll
 0002:00000018       __imp__OffsetViewportOrgEx@16 10043018     gdi32:GDI32.dll
 0002:0000001c       __imp__SetViewportOrgEx@16 1004301c     gdi32:GDI32.dll
 0002:00000020       __imp__SelectObject@8      10043020     gdi32:GDI32.dll
 0002:00000024       __imp__Escape@20           10043024     gdi32:GDI32.dll
 0002:00000028       __imp__ExtTextOutA@32      10043028     gdi32:GDI32.dll
 0002:0000002c       __imp__TextOutA@20         1004302c     gdi32:GDI32.dll
 0002:00000030       __imp__RectVisible@8       10043030     gdi32:GDI32.dll
 0002:00000034       __imp__PtVisible@12        10043034     gdi32:GDI32.dll
 0002:00000038       __imp__GetDeviceCaps@8     10043038     gdi32:GDI32.dll
 0002:0000003c       __imp__SetMapMode@8        1004303c     gdi32:GDI32.dll
 0002:00000040       __imp__RestoreDC@8         10043040     gdi32:GDI32.dll
 0002:00000044       __imp__SaveDC@4            10043044     gdi32:GDI32.dll
 0002:00000048       __imp__DeleteObject@4      10043048     gdi32:GDI32.dll
 0002:0000004c       __imp__SetBkColor@8        1004304c     gdi32:GDI32.dll
 0002:00000050       __imp__SetTextColor@8      10043050     gdi32:GDI32.dll
 0002:00000054       __imp__GetClipBox@8        10043054     gdi32:GDI32.dll
 0002:00000058       __imp__CreateBitmap@20     10043058     gdi32:GDI32.dll
 0002:0000005c       \177GDI32_NULL_THUNK_DATA  1004305c     gdi32:GDI32.dll
 0002:00000060       __imp__SetEndOfFile@4      10043060     kernel32:KERNEL32.dll
 0002:00000064       __imp__GetCurrentProcess@0 10043064     kernel32:KERNEL32.dll
 0002:00000068       __imp__CreateFileA@28      10043068     kernel32:KERNEL32.dll
 0002:0000006c       __imp__ExitProcess@4       1004306c     kernel32:KERNEL32.dll
 0002:00000070       __imp__HeapFree@12         10043070     kernel32:KERNEL32.dll
 0002:00000074       __imp__ExitThread@4        10043074     kernel32:KERNEL32.dll
 0002:00000078       __imp__CreateThread@24     10043078     kernel32:KERNEL32.dll
 0002:0000007c       __imp__TerminateProcess@8  1004307c     kernel32:KERNEL32.dll
 0002:00000080       __imp__UnhandledExceptionFilter@4 10043080     kernel32:KERNEL32.dll
 0002:00000084       __imp__SetUnhandledExceptionFilter@4 10043084     kernel32:KERNEL32.dll
 0002:00000088       __imp__IsDebuggerPresent@0 10043088     kernel32:KERNEL32.dll
 0002:0000008c       __imp__VirtualAlloc@16     1004308c     kernel32:KERNEL32.dll
 0002:00000090       __imp__HeapReAlloc@16      10043090     kernel32:KERNEL32.dll
 0002:00000094       __imp__HeapAlloc@12        10043094     kernel32:KERNEL32.dll
 0002:00000098       __imp__GetCommandLineA@0   10043098     kernel32:KERNEL32.dll
 0002:0000009c       __imp__GetProcessHeap@0    1004309c     kernel32:KERNEL32.dll
 0002:000000a0       __imp__RtlUnwind@16        100430a0     kernel32:KERNEL32.dll
 0002:000000a4       __imp__RaiseException@16   100430a4     kernel32:KERNEL32.dll
 0002:000000a8       __imp__HeapSize@12         100430a8     kernel32:KERNEL32.dll
 0002:000000ac       __imp__LCMapStringA@24     100430ac     kernel32:KERNEL32.dll
 0002:000000b0       __imp__LCMapStringW@24     100430b0     kernel32:KERNEL32.dll
 0002:000000b4       __imp__GetConsoleCP@0      100430b4     kernel32:KERNEL32.dll
 0002:000000b8       __imp__GetConsoleMode@8    100430b8     kernel32:KERNEL32.dll
 0002:000000bc       __imp__SetHandleCount@4    100430bc     kernel32:KERNEL32.dll
 0002:000000c0       __imp__GetFileType@4       100430c0     kernel32:KERNEL32.dll
 0002:000000c4       __imp__GetStartupInfoA@4   100430c4     kernel32:KERNEL32.dll
 0002:000000c8       __imp__HeapDestroy@4       100430c8     kernel32:KERNEL32.dll
 0002:000000cc       __imp__HeapCreate@12       100430cc     kernel32:KERNEL32.dll
 0002:000000d0       __imp__VirtualFree@12      100430d0     kernel32:KERNEL32.dll
 0002:000000d4       __imp__GetACP@0            100430d4     kernel32:KERNEL32.dll
 0002:000000d8       __imp__IsValidCodePage@4   100430d8     kernel32:KERNEL32.dll
 0002:000000dc       __imp__FreeEnvironmentStringsA@4 100430dc     kernel32:KERNEL32.dll
 0002:000000e0       __imp__GetEnvironmentStrings@0 100430e0     kernel32:KERNEL32.dll
 0002:000000e4       __imp__FreeEnvironmentStringsW@4 100430e4     kernel32:KERNEL32.dll
 0002:000000e8       __imp__GetEnvironmentStringsW@0 100430e8     kernel32:KERNEL32.dll
 0002:000000ec       __imp__QueryPerformanceCounter@4 100430ec     kernel32:KERNEL32.dll
 0002:000000f0       __imp__GetTickCount@0      100430f0     kernel32:KERNEL32.dll
 0002:000000f4       __imp__GetSystemTimeAsFileTime@4 100430f4     kernel32:KERNEL32.dll
 0002:000000f8       __imp__GetUserDefaultLCID@0 100430f8     kernel32:KERNEL32.dll
 0002:000000fc       __imp__EnumSystemLocalesA@8 100430fc     kernel32:KERNEL32.dll
 0002:00000100       __imp__IsValidLocale@8     10043100     kernel32:KERNEL32.dll
 0002:00000104       __imp__GetStringTypeA@20   10043104     kernel32:KERNEL32.dll
 0002:00000108       __imp__GetStringTypeW@16   10043108     kernel32:KERNEL32.dll
 0002:0000010c       __imp__GetLocaleInfoW@16   1004310c     kernel32:KERNEL32.dll
 0002:00000110       __imp__SetStdHandle@8      10043110     kernel32:KERNEL32.dll
 0002:00000114       __imp__WriteConsoleA@20    10043114     kernel32:KERNEL32.dll
 0002:00000118       __imp__GetConsoleOutputCP@0 10043118     kernel32:KERNEL32.dll
 0002:0000011c       __imp__WriteConsoleW@20    1004311c     kernel32:KERNEL32.dll
 0002:00000120       __imp__CreateFileW@28      10043120     kernel32:KERNEL32.dll
 0002:00000124       __imp__FlushFileBuffers@4  10043124     kernel32:KERNEL32.dll
 0002:00000128       __imp__SetFilePointer@16   10043128     kernel32:KERNEL32.dll
 0002:0000012c       __imp__WriteFile@20        1004312c     kernel32:KERNEL32.dll
 0002:00000130       __imp__ReadFile@20         10043130     kernel32:KERNEL32.dll
 0002:00000134       __imp__DeleteFileA@4       10043134     kernel32:KERNEL32.dll
 0002:00000138       __imp__GetOEMCP@0          10043138     kernel32:KERNEL32.dll
 0002:0000013c       __imp__GetCPInfo@8         1004313c     kernel32:KERNEL32.dll
 0002:00000140       __imp__GetLocaleInfoA@16   10043140     kernel32:KERNEL32.dll
 0002:00000144       __imp__GlobalFlags@4       10043144     kernel32:KERNEL32.dll
 0002:00000148       __imp__GlobalAddAtomA@4    10043148     kernel32:KERNEL32.dll
 0002:0000014c       __imp__GlobalFindAtomA@4   1004314c     kernel32:KERNEL32.dll
 0002:00000150       __imp__GlobalDeleteAtom@4  10043150     kernel32:KERNEL32.dll
 0002:00000154       __imp__lstrcmpW@8          10043154     kernel32:KERNEL32.dll
 0002:00000158       __imp__GetVersionExA@4     10043158     kernel32:KERNEL32.dll
 0002:0000015c       __imp__GetThreadLocale@0   1004315c     kernel32:KERNEL32.dll
 0002:00000160       __imp__lstrcmpA@8          10043160     kernel32:KERNEL32.dll
 0002:00000164       __imp__GlobalGetAtomNameA@12 10043164     kernel32:KERNEL32.dll
 0002:00000168       __imp__GetCurrentProcessId@0 10043168     kernel32:KERNEL32.dll
 0002:0000016c       __imp__InterlockedIncrement@4 1004316c     kernel32:KERNEL32.dll
 0002:00000170       __imp__SetErrorMode@4      10043170     kernel32:KERNEL32.dll
 0002:00000174       __imp__GetCurrentThreadId@0 10043174     kernel32:KERNEL32.dll
 0002:00000178       __imp__CloseHandle@4       10043178     kernel32:KERNEL32.dll
 0002:0000017c       __imp__TlsFree@4           1004317c     kernel32:KERNEL32.dll
 0002:00000180       __imp__LocalReAlloc@12     10043180     kernel32:KERNEL32.dll
 0002:00000184       __imp__TlsSetValue@8       10043184     kernel32:KERNEL32.dll
 0002:00000188       __imp__TlsAlloc@0          10043188     kernel32:KERNEL32.dll
 0002:0000018c       __imp__GlobalHandle@4      1004318c     kernel32:KERNEL32.dll
 0002:00000190       __imp__GlobalReAlloc@12    10043190     kernel32:KERNEL32.dll
 0002:00000194       __imp__TlsGetValue@4       10043194     kernel32:KERNEL32.dll
 0002:00000198       __imp__LocalAlloc@8        10043198     kernel32:KERNEL32.dll
 0002:0000019c       __imp__GlobalFree@4        1004319c     kernel32:KERNEL32.dll
 0002:000001a0       __imp__GlobalAlloc@8       100431a0     kernel32:KERNEL32.dll
 0002:000001a4       __imp__GlobalLock@4        100431a4     kernel32:KERNEL32.dll
 0002:000001a8       __imp__GlobalUnlock@4      100431a8     kernel32:KERNEL32.dll
 0002:000001ac       __imp__FormatMessageA@28   100431ac     kernel32:KERNEL32.dll
 0002:000001b0       __imp__LocalFree@4         100431b0     kernel32:KERNEL32.dll
 0002:000001b4       __imp__InterlockedDecrement@4 100431b4     kernel32:KERNEL32.dll
 0002:000001b8       __imp__GetModuleFileNameW@12 100431b8     kernel32:KERNEL32.dll
 0002:000001bc       __imp__SetLastError@4      100431bc     kernel32:KERNEL32.dll
 0002:000001c0       __imp__GetModuleHandleA@4  100431c0     kernel32:KERNEL32.dll
 0002:000001c4       __imp__MultiByteToWideChar@24 100431c4     kernel32:KERNEL32.dll
 0002:000001c8       __imp__GetModuleFileNameA@12 100431c8     kernel32:KERNEL32.dll
 0002:000001cc       __imp__lstrlenA@4          100431cc     kernel32:KERNEL32.dll
 0002:000001d0       __imp__CompareStringA@24   100431d0     kernel32:KERNEL32.dll
 0002:000001d4       __imp__InterlockedExchange@8 100431d4     kernel32:KERNEL32.dll
 0002:000001d8       __imp__LockResource@4      100431d8     kernel32:KERNEL32.dll
 0002:000001dc       __imp__FindResourceA@12    100431dc     kernel32:KERNEL32.dll
 0002:000001e0       __imp__GetVersion@0        100431e0     kernel32:KERNEL32.dll
 0002:000001e4       __imp__LoadResource@8      100431e4     kernel32:KERNEL32.dll
 0002:000001e8       __imp__SizeofResource@8    100431e8     kernel32:KERNEL32.dll
 0002:000001ec       __imp__WideCharToMultiByte@32 100431ec     kernel32:KERNEL32.dll
 0002:000001f0       __imp__MoveFileExA@12      100431f0     kernel32:KERNEL32.dll
 0002:000001f4       __imp__FindNextFileA@8     100431f4     kernel32:KERNEL32.dll
 0002:000001f8       __imp__EnterCriticalSection@4 100431f8     kernel32:KERNEL32.dll
 0002:000001fc       __imp__Sleep@4             100431fc     kernel32:KERNEL32.dll
 0002:00000200       __imp__InitializeCriticalSection@4 10043200     kernel32:KERNEL32.dll
 0002:00000204       __imp__LoadLibraryA@4      10043204     kernel32:KERNEL32.dll
 0002:00000208       __imp__GetProcAddress@8    10043208     kernel32:KERNEL32.dll
 0002:0000020c       __imp__LeaveCriticalSection@4 1004320c     kernel32:KERNEL32.dll
 0002:00000210       __imp__FreeLibrary@4       10043210     kernel32:KERNEL32.dll
 0002:00000214       __imp__FindClose@4         10043214     kernel32:KERNEL32.dll
 0002:00000218       __imp__DeleteCriticalSection@4 10043218     kernel32:KERNEL32.dll
 0002:0000021c       __imp__GetLastError@0      1004321c     kernel32:KERNEL32.dll
 0002:00000220       __imp__GetStdHandle@4      10043220     kernel32:KERNEL32.dll
 0002:00000224       __imp__FindFirstFileA@8    10043224     kernel32:KERNEL32.dll
 0002:00000228       \177KERNEL32_NULL_THUNK_DATA 10043228     kernel32:KERNEL32.dll
 0002:0000022c       __imp__VariantClear@4      1004322c     oleaut32:OLEAUT32.dll
 0002:00000230       __imp__VariantChangeType@16 10043230     oleaut32:OLEAUT32.dll
 0002:00000234       __imp__VariantInit@4       10043234     oleaut32:OLEAUT32.dll
 0002:00000238       \177OLEAUT32_NULL_THUNK_DATA 10043238     oleaut32:OLEAUT32.dll
 0002:0000023c       __imp__PathFindFileNameA@4 1004323c     shlwapi:SHLWAPI.dll
 0002:00000240       __imp__PathFindExtensionA@4 10043240     shlwapi:SHLWAPI.dll
 0002:00000244       \177SHLWAPI_NULL_THUNK_DATA 10043244     shlwapi:SHLWAPI.dll
 0002:00000248       __imp__DestroyMenu@4       10043248     user32:USER32.dll
 0002:0000024c       __imp__GrayStringA@36      1004324c     user32:USER32.dll
 0002:00000250       __imp__DrawTextExA@24      10043250     user32:USER32.dll
 0002:00000254       __imp__DrawTextA@20        10043254     user32:USER32.dll
 0002:00000258       __imp__TabbedTextOutA@32   10043258     user32:USER32.dll
 0002:0000025c       __imp__ClientToScreen@8    1004325c     user32:USER32.dll
 0002:00000260       __imp__SetWindowTextA@8    10043260     user32:USER32.dll
 0002:00000264       __imp__RegisterWindowMessageA@4 10043264     user32:USER32.dll
 0002:00000268       __imp__LoadIconA@8         10043268     user32:USER32.dll
 0002:0000026c       __imp__WinHelpA@16         1004326c     user32:USER32.dll
 0002:00000270       __imp__GetCapture@0        10043270     user32:USER32.dll
 0002:00000274       __imp__GetClassLongA@8     10043274     user32:USER32.dll
 0002:00000278       __imp__GetClassNameA@12    10043278     user32:USER32.dll
 0002:0000027c       __imp__SetPropA@12         1004327c     user32:USER32.dll
 0002:00000280       __imp__GetPropA@8          10043280     user32:USER32.dll
 0002:00000284       __imp__RemovePropA@8       10043284     user32:USER32.dll
 0002:00000288       __imp__IsWindow@4          10043288     user32:USER32.dll
 0002:0000028c       __imp__GetForegroundWindow@0 1004328c     user32:USER32.dll
 0002:00000290       __imp__GetDlgItem@8        10043290     user32:USER32.dll
 0002:00000294       __imp__GetTopWindow@4      10043294     user32:USER32.dll
 0002:00000298       __imp__DestroyWindow@4     10043298     user32:USER32.dll
 0002:0000029c       __imp__GetMessageTime@0    1004329c     user32:USER32.dll
 0002:000002a0       __imp__GetMessagePos@0     100432a0     user32:USER32.dll
 0002:000002a4       __imp__MapWindowPoints@16  100432a4     user32:USER32.dll
 0002:000002a8       __imp__SetForegroundWindow@4 100432a8     user32:USER32.dll
 0002:000002ac       __imp__GetClientRect@8     100432ac     user32:USER32.dll
 0002:000002b0       __imp__GetMenu@4           100432b0     user32:USER32.dll
 0002:000002b4       __imp__PostMessageA@16     100432b4     user32:USER32.dll
 0002:000002b8       __imp__CreateWindowExA@48  100432b8     user32:USER32.dll
 0002:000002bc       __imp__GetClassInfoExA@12  100432bc     user32:USER32.dll
 0002:000002c0       __imp__RegisterClassA@4    100432c0     user32:USER32.dll
 0002:000002c4       __imp__AdjustWindowRectEx@16 100432c4     user32:USER32.dll
 0002:000002c8       __imp__CopyRect@8          100432c8     user32:USER32.dll
 0002:000002cc       __imp__PtInRect@12         100432cc     user32:USER32.dll
 0002:000002d0       __imp__GetDlgCtrlID@4      100432d0     user32:USER32.dll
 0002:000002d4       __imp__DefWindowProcA@16   100432d4     user32:USER32.dll
 0002:000002d8       __imp__CallWindowProcA@20  100432d8     user32:USER32.dll
 0002:000002dc       __imp__SetWindowLongA@12   100432dc     user32:USER32.dll
 0002:000002e0       __imp__SetWindowPos@28     100432e0     user32:USER32.dll
 0002:000002e4       __imp__SystemParametersInfoA@16 100432e4     user32:USER32.dll
 0002:000002e8       __imp__IsIconic@4          100432e8     user32:USER32.dll
 0002:000002ec       __imp__GetWindowPlacement@8 100432ec     user32:USER32.dll
 0002:000002f0       __imp__GetWindowRect@8     100432f0     user32:USER32.dll
 0002:000002f4       __imp__UnhookWindowsHookEx@4 100432f4     user32:USER32.dll
 0002:000002f8       __imp__GetWindow@8         100432f8     user32:USER32.dll
 0002:000002fc       __imp__SetMenuItemBitmaps@20 100432fc     user32:USER32.dll
 0002:00000300       __imp__GetMenuCheckMarkDimensions@0 10043300     user32:USER32.dll
 0002:00000304       __imp__LoadBitmapA@8       10043304     user32:USER32.dll
 0002:00000308       __imp__GetFocus@0          10043308     user32:USER32.dll
 0002:0000030c       __imp__ModifyMenuA@20      1004330c     user32:USER32.dll
 0002:00000310       __imp__EnableMenuItem@12   10043310     user32:USER32.dll
 0002:00000314       __imp__CheckMenuItem@12    10043314     user32:USER32.dll
 0002:00000318       __imp__GetWindowTextA@12   10043318     user32:USER32.dll
 0002:0000031c       __imp__GetWindowThreadProcessId@8 1004331c     user32:USER32.dll
 0002:00000320       __imp__GetParent@4         10043320     user32:USER32.dll
 0002:00000324       __imp__GetWindowLongA@8    10043324     user32:USER32.dll
 0002:00000328       __imp__PostQuitMessage@4   10043328     user32:USER32.dll
 0002:0000032c       __imp__GetSubMenu@8        1004332c     user32:USER32.dll
 0002:00000330       __imp__GetMenuItemCount@4  10043330     user32:USER32.dll
 0002:00000334       __imp__GetMenuItemID@8     10043334     user32:USER32.dll
 0002:00000338       __imp__GetMenuState@12     10043338     user32:USER32.dll
 0002:0000033c       __imp__ValidateRect@8      1004333c     user32:USER32.dll
 0002:00000340       __imp__PeekMessageA@20     10043340     user32:USER32.dll
 0002:00000344       __imp__GetKeyState@4       10043344     user32:USER32.dll
 0002:00000348       __imp__SendMessageA@16     10043348     user32:USER32.dll
 0002:0000034c       __imp__DispatchMessageA@4  1004334c     user32:USER32.dll
 0002:00000350       __imp__GetLastActivePopup@4 10043350     user32:USER32.dll
 0002:00000354       __imp__IsWindowEnabled@4   10043354     user32:USER32.dll
 0002:00000358       __imp__EnableWindow@8      10043358     user32:USER32.dll
 0002:0000035c       __imp__MessageBoxA@16      1004335c     user32:USER32.dll
 0002:00000360       __imp__LoadCursorA@8       10043360     user32:USER32.dll
 0002:00000364       __imp__GetSystemMetrics@4  10043364     user32:USER32.dll
 0002:00000368       __imp__GetDC@4             10043368     user32:USER32.dll
 0002:0000036c       __imp__ReleaseDC@8         1004336c     user32:USER32.dll
 0002:00000370       __imp__GetSysColor@4       10043370     user32:USER32.dll
 0002:00000374       __imp__GetSysColorBrush@4  10043374     user32:USER32.dll
 0002:00000378       __imp__UnregisterClassA@8  10043378     user32:USER32.dll
 0002:0000037c       __imp__SetWindowsHookExA@16 1004337c     user32:USER32.dll
 0002:00000380       __imp__CallNextHookEx@16   10043380     user32:USER32.dll
 0002:00000384       __imp__GetClassInfoA@12    10043384     user32:USER32.dll
 0002:00000388       \177USER32_NULL_THUNK_DATA 10043388     user32:USER32.dll
 0002:0000038c       __imp__ClosePrinter@4      1004338c     winspool:WINSPOOL.DRV
 0002:00000390       __imp__DocumentPropertiesA@24 10043390     winspool:WINSPOOL.DRV
 0002:00000394       __imp__OpenPrinterA@12     10043394     winspool:WINSPOOL.DRV
 0002:00000398       \177WINSPOOL_NULL_THUNK_DATA 10043398     winspool:WINSPOOL.DRV
 0002:0000039c       ___xc_a                    1004339c     LIBCMT:crt0init.obj
 0002:0000040c       ___xc_z                    1004340c     LIBCMT:crt0init.obj
 0002:00000410       ___xi_a                    10043410     LIBCMT:crt0init.obj
 0002:0000042c       ___xi_z                    1004342c     LIBCMT:crt0init.obj
 0002:00000430       ___xp_a                    10043430     LIBCMT:crt0init.obj
 0002:0000043c       ___xp_z                    1004343c     LIBCMT:crt0init.obj
 0002:00000440       ___xt_a                    10043440     LIBCMT:crt0init.obj
 0002:00000444       ___xt_z                    10043444     LIBCMT:crt0init.obj
 0002:0000046c       __pActualRawDllMain        1004346c     nafxcw:dllmodul.obj
 0002:00000470       ??_C@_0BB@NPIOCCPF@DeactivateActCtx?$AA@ 10043470     nafxcw:afxstate.obj
 0002:00000484       ??_C@_0P@CECBPMJL@ActivateActCtx?$AA@ 10043484     nafxcw:afxstate.obj
 0002:00000494       ??_C@_0O@MFNHEEKA@ReleaseActCtx?$AA@ 10043494     nafxcw:afxstate.obj
 0002:000004a4       ??_C@_0O@JKAFBCMB@CreateActCtxW?$AA@ 100434a4     nafxcw:afxstate.obj
 0002:000004b4       ??_C@_08CPNIBGIE@KERNEL32?$AA@ 100434b4     nafxcw:afxstate.obj
 0002:000004c4       ??_7_AFX_THREAD_STATE@@6B@ 100434c4     nafxcw:afxstate.obj
 0002:000004cc       ??_7AFX_MODULE_THREAD_STATE@@6B@ 100434cc     nafxcw:afxstate.obj
 0002:000004d4       ??_7AFX_MODULE_STATE@@6B@  100434d4     nafxcw:afxstate.obj
 0002:000004dc       ??_7CDllIsolationWrapperBase@@6B@ 100434dc     nafxcw:afxstate.obj
 0002:000004e4       ??_7CComCtlWrapper@@6B@    100434e4     nafxcw:afxstate.obj
 0002:000004e8       ??_C@_0N@OGEBEC@comctl32?4dll?$AA@ 100434e8     nafxcw:afxstate.obj
 0002:000004fc       ??_7CCommDlgWrapper@@6B@   100434fc     nafxcw:afxstate.obj
 0002:00000500       ??_C@_0N@KIEIKGAE@comdlg32?4dll?$AA@ 10043500     nafxcw:afxstate.obj
 0002:00000514       ??_7_AFX_BASE_MODULE_STATE@@6B@ 10043514     nafxcw:afxstate.obj
 0002:00000518       ??_C@_0O@MIBDFLDP@COleException?$AA@ 10043518     nafxcw:olemisc.obj
 0002:00000528       ?classCOleException@COleException@@2UCRuntimeClass@@B 10043528     nafxcw:olemisc.obj
 0002:00000548       ??_7COleException@@6B@     10043548     nafxcw:olemisc.obj
 0002:00000560       ??_C@_07JPHDIPNG@DISPLAY?$AA@ 10043560     nafxcw:olemisc.obj
 0002:00000568       ??_C@_0BF@JDJEAIOB@CInvalidArgException?$AA@ 10043568     nafxcw:except.obj
 0002:00000580       ??_C@_0BH@EAGMGDLP@CNotSupportedException?$AA@ 10043580     nafxcw:except.obj
 0002:00000598       ??_C@_0BB@HMFCKMLN@CMemoryException?$AA@ 10043598     nafxcw:except.obj
 0002:000005ac       ??_C@_0L@JGHLGBLN@CException?$AA@ 100435ac     nafxcw:except.obj
 0002:000005b8       ?classCException@CException@@2UCRuntimeClass@@B 100435b8     nafxcw:except.obj
 0002:000005d4       ?classCMemoryException@CMemoryException@@2UCRuntimeClass@@B 100435d4     nafxcw:except.obj
 0002:000005f0       ?classCNotSupportedException@CNotSupportedException@@2UCRuntimeClass@@B 100435f0     nafxcw:except.obj
 0002:0000060c       ?classCInvalidArgException@CInvalidArgException@@2UCRuntimeClass@@B 1004360c     nafxcw:except.obj
 0002:0000062c       ??_7CMemoryException@@6B@  1004362c     nafxcw:except.obj
 0002:00000648       ??_7CNotSupportedException@@6B@ 10043648     nafxcw:except.obj
 0002:00000664       ??_7CInvalidArgException@@6B@ 10043664     nafxcw:except.obj
 0002:00000680       ??_7CAfxStringMgr@@6B@     10043680     nafxcw:strcore.obj
 0002:00000698       ??_7CThreadData@@6B@       10043698     nafxcw:afxtls.obj
 0002:000006a0       ??_7CHandleMap@@6B@        100436a0     nafxcw:winhand.obj
 0002:000006a4       ??_C@_04PKIPNKLG@?4INI?$AA@ 100436a4     nafxcw:appinit.obj
 0002:000006ac       ??_C@_04NKLHMAKF@?4HLP?$AA@ 100436ac     nafxcw:appinit.obj
 0002:000006b4       ??_C@_04PFNDIDGE@?4CHM?$AA@ 100436b4     nafxcw:appinit.obj
 0002:000006bc       ??_C@_0P@IGJNGFKD@NotifyWinEvent?$AA@ 100436bc     nafxcw:appinit.obj
 0002:000006cc       ??_C@_0L@GMPLCCII@user32?4dll?$AA@ 100436cc     nafxcw:appinit.obj
 0002:000006d8       ??_C@_0N@BBCNFPFP@CMapPtrToPtr?$AA@ 100436d8     nafxcw:map_pp.obj
 0002:000006e8       ?classCMapPtrToPtr@CMapPtrToPtr@@2UCRuntimeClass@@B 100436e8     nafxcw:map_pp.obj
 0002:00000708       ??_7CMapPtrToPtr@@6B@      10043708     nafxcw:map_pp.obj
 0002:00000714       ??_C@_07BEAIOPAP@CObject?$AA@ 10043714     nafxcw:objcore.obj
 0002:0000071c       ??_C@_06JBKGCNBB@Delete?$AA@ 1004371c     nafxcw:objcore.obj
 0002:00000724       ??_C@_08KAAPDIAN@NoRemove?$AA@ 10043724     nafxcw:objcore.obj
 0002:00000730       ??_C@_0M@DBGDLGLL@ForceRemove?$AA@ 10043730     nafxcw:objcore.obj
 0002:0000073c       ??_C@_03LAIAPFCB@Val?$AA@  1004373c     nafxcw:objcore.obj
 0002:00000740       ??_C@_01HMGJMAIH@B?$AA@    10043740     nafxcw:objcore.obj
 0002:00000744       ??_C@_01CKDDGHAB@D?$AA@    10043744     nafxcw:objcore.obj
 0002:00000748       ??_C@_01PLPBNMEI@M?$AA@    10043748     nafxcw:objcore.obj
 0002:0000074c       ??_C@_01CPLAODJH@S?$AA@    1004374c     nafxcw:objcore.obj
 0002:00000770       ?classCObject@CObject@@2UCRuntimeClass@@B 10043770     nafxcw:objcore.obj
 0002:0000078c       ??_C@_0L@LBHJMCDF@?$CFs?5?$CI?$CFs?3?$CFd?$CJ?$AA@ 1004378c     nafxcw:auxdata.obj
 0002:00000798       ??_C@_0O@KHJMBFME@?$CFs?5?$CI?$CFs?3?$CFd?$CJ?6?$CFs?$AA@ 10043798     nafxcw:auxdata.obj
 0002:000007a8       ??_C@_0BP@OIEOKIDM@Exception?5thrown?5in?5destructor?$AA@ 100437a8     nafxcw:auxdata.obj
 0002:000007c8       ??_C@_0DG@KPNMEMGB@f?3?2dd?2vctools?2vc7libs?2ship?2atlmf@ 100437c8     nafxcw:auxdata.obj
 0002:00000800       ??_C@_0BC@IIDFIFGA@CArchiveException?$AA@ 10043800     nafxcw:arcex.obj
 0002:00000814       ?classCArchiveException@CArchiveException@@2UCRuntimeClass@@B 10043814     nafxcw:arcex.obj
 0002:00000834       ??_7CArchiveException@@6B@ 10043834     nafxcw:arcex.obj
 0002:0000084c       ??_C@_0L@GDEMJNJL@CCmdTarget?$AA@ 1004384c     nafxcw:cmdtarg.obj
 0002:00000858       ?_dispatchEntries@CCmdTarget@@0QBUAFX_DISPMAP_ENTRY@@B 10043858     nafxcw:cmdtarg.obj
 0002:00000878       ?dispatchMap@CCmdTarget@@1UAFX_DISPMAP@@B 10043878     nafxcw:cmdtarg.obj
 0002:00000888       ?_eventsinkEntries@CCmdTarget@@0QBUAFX_EVENTSINKMAP_ENTRY@@B 10043888     nafxcw:cmdtarg.obj
 0002:000008b0       ?eventsinkMap@CCmdTarget@@1UAFX_EVENTSINKMAP@@B 100438b0     nafxcw:cmdtarg.obj
 0002:000008bc       ?_interfaceEntries@CCmdTarget@@0QBUAFX_INTERFACEMAP_ENTRY@@B 100438bc     nafxcw:cmdtarg.obj
 0002:000008cc       ?interfaceMap@CCmdTarget@@1UAFX_INTERFACEMAP@@B 100438cc     nafxcw:cmdtarg.obj
 0002:000008d4       ?_connectionEntries@CCmdTarget@@0QBUAFX_CONNECTIONMAP_ENTRY@@B 100438d4     nafxcw:cmdtarg.obj
 0002:000008dc       ?connectionMap@CCmdTarget@@1UAFX_CONNECTIONMAP@@B 100438dc     nafxcw:cmdtarg.obj
 0002:000008e4       ?_commandEntries@CCmdTarget@@0QBUAFX_OLECMDMAP_ENTRY@@B 100438e4     nafxcw:cmdtarg.obj
 0002:000008f0       ?commandMap@CCmdTarget@@1UAFX_OLECMDMAP@@B 100438f0     nafxcw:cmdtarg.obj
 0002:000008f8       ?_afxDot@@3QBEB            100438f8     nafxcw:cmdtarg.obj
 0002:00000900       ?classCCmdTarget@CCmdTarget@@2UCRuntimeClass@@B 10043900     nafxcw:cmdtarg.obj
 0002:00000940       ??_7CCmdUI@@6B@            10043940     nafxcw:cmdtarg.obj
 0002:00000950       ??_C@_04DDIMFFOJ@CWnd?$AA@ 10043950     nafxcw:wincore.obj
 0002:00000958       ?_interfaceEntries@CWnd@@0QBUAFX_INTERFACEMAP_ENTRY@@B 10043958     nafxcw:wincore.obj
 0002:00000960       ?_afxWnd@@3QBDB            10043960     nafxcw:wincore.obj
 0002:0000096c       ?_afxWndControlBar@@3QBDB  1004396c     nafxcw:wincore.obj
 0002:00000980       ?_afxWndMDIFrame@@3QBDB    10043980     nafxcw:wincore.obj
 0002:00000990       ?_afxWndFrameOrView@@3QBDB 10043990     nafxcw:wincore.obj
 0002:000009a4       ?_afxWndOleControl@@3QBDB  100439a4     nafxcw:wincore.obj
 0002:000009b8       ?_afxOldWndProc@@3QBDB     100439b8     nafxcw:wincore.obj
 0002:000009cc       ?interfaceMap@CWnd@@1UAFX_INTERFACEMAP@@B 100439cc     nafxcw:wincore.obj
 0002:000009d4       ?classCWnd@CWnd@@2UCRuntimeClass@@B 100439d4     nafxcw:wincore.obj
 0002:000009f0       ??_C@_0BE@NPEOLIBM@EnumDisplayDevicesA?$AA@ 100439f0     nafxcw:wincore.obj
 0002:00000a04       ??_C@_0BA@KIAMMEPJ@GetMonitorInfoA?$AA@ 10043a04     nafxcw:wincore.obj
 0002:00000a14       ??_C@_0BE@OHNDFFJG@EnumDisplayMonitors?$AA@ 10043a14     nafxcw:wincore.obj
 0002:00000a28       ??_C@_0BB@DDMDAIAD@MonitorFromPoint?$AA@ 10043a28     nafxcw:wincore.obj
 0002:00000a3c       ??_C@_0BA@DPLKJPEB@MonitorFromRect?$AA@ 10043a3c     nafxcw:wincore.obj
 0002:00000a4c       ??_C@_0BC@CHFENAPF@MonitorFromWindow?$AA@ 10043a4c     nafxcw:wincore.obj
 0002:00000a60       ??_C@_0BB@BFCABEPI@GetSystemMetrics?$AA@ 10043a60     nafxcw:wincore.obj
 0002:00000a74       ??_C@_06KDCOIDGA@USER32?$AA@ 10043a74     nafxcw:wincore.obj
 0002:00000a7c       ??_C@_1BE@IPGFMKAP@?$AAa?$AAc?$AAc?$AAP?$AAa?$AAr?$AAe?$AAn?$AAt?$AA?$AA@ 10043a7c     nafxcw:wincore.obj
 0002:00000a90       ??_C@_1BM@BMIHNMGG@?$AAa?$AAc?$AAc?$AAC?$AAh?$AAi?$AAl?$AAd?$AAC?$AAo?$AAu?$AAn?$AAt?$AA?$AA@ 10043a90     nafxcw:wincore.obj
 0002:00000aac       ??_C@_1BC@PBFDOIOF@?$AAa?$AAc?$AAc?$AAC?$AAh?$AAi?$AAl?$AAd?$AA?$AA@ 10043aac     nafxcw:wincore.obj
 0002:00000ac0       ??_C@_1BA@PLNDADF@?$AAa?$AAc?$AAc?$AAN?$AAa?$AAm?$AAe?$AA?$AA@ 10043ac0     nafxcw:wincore.obj
 0002:00000ad0       ??_C@_1BC@ENHIGDJB@?$AAa?$AAc?$AAc?$AAV?$AAa?$AAl?$AAu?$AAe?$AA?$AA@ 10043ad0     nafxcw:wincore.obj
 0002:00000ae4       ??_C@_1BO@LNDKJAGG@?$AAa?$AAc?$AAc?$AAD?$AAe?$AAs?$AAc?$AAr?$AAi?$AAp?$AAt?$AAi?$AAo?$AAn?$AA?$AA@ 10043ae4     nafxcw:wincore.obj
 0002:00000b04       ??_C@_1BA@OMPJJAME@?$AAa?$AAc?$AAc?$AAR?$AAo?$AAl?$AAe?$AA?$AA@ 10043b04     nafxcw:wincore.obj
 0002:00000b14       ??_C@_1BC@EEAFJIFJ@?$AAa?$AAc?$AAc?$AAS?$AAt?$AAa?$AAt?$AAe?$AA?$AA@ 10043b14     nafxcw:wincore.obj
 0002:00000b28       ??_C@_1BA@CKHCDKIA@?$AAa?$AAc?$AAc?$AAH?$AAe?$AAl?$AAp?$AA?$AA@ 10043b28     nafxcw:wincore.obj
 0002:00000b38       ??_C@_1BK@GNALBKBD@?$AAa?$AAc?$AAc?$AAH?$AAe?$AAl?$AAp?$AAT?$AAo?$AAp?$AAi?$AAc?$AA?$AA@ 10043b38     nafxcw:wincore.obj
 0002:00000b54       ??_C@_1CI@PLNHFMPJ@?$AAa?$AAc?$AAc?$AAK?$AAe?$AAy?$AAb?$AAo?$AAa?$AAr?$AAd?$AAS?$AAh?$AAo?$AAr?$AAt?$AAc?$AAu?$AAt?$AA?$AA@ 10043b54     nafxcw:wincore.obj
 0002:00000b7c       ??_C@_1BC@PDPLKEDB@?$AAa?$AAc?$AAc?$AAF?$AAo?$AAc?$AAu?$AAs?$AA?$AA@ 10043b7c     nafxcw:wincore.obj
 0002:00000b90       ??_C@_1BK@KFJGMMBL@?$AAa?$AAc?$AAc?$AAS?$AAe?$AAl?$AAe?$AAc?$AAt?$AAi?$AAo?$AAn?$AA?$AA@ 10043b90     nafxcw:wincore.obj
 0002:00000bac       ??_C@_1CC@CJCCELFA@?$AAa?$AAc?$AAc?$AAD?$AAe?$AAf?$AAa?$AAu?$AAl?$AAt?$AAA?$AAc?$AAt?$AAi?$AAo?$AAn?$AA?$AA@ 10043bac     nafxcw:wincore.obj
 0002:00000bd0       ??_C@_1BE@HFPLHGCO@?$AAa?$AAc?$AAc?$AAS?$AAe?$AAl?$AAe?$AAc?$AAt?$AA?$AA@ 10043bd0     nafxcw:wincore.obj
 0002:00000be4       ??_C@_1BI@LONMDPCL@?$AAa?$AAc?$AAc?$AAL?$AAo?$AAc?$AAa?$AAt?$AAi?$AAo?$AAn?$AA?$AA@ 10043be4     nafxcw:wincore.obj
 0002:00000bfc       ??_C@_1BI@NOPLNCPL@?$AAa?$AAc?$AAc?$AAN?$AAa?$AAv?$AAi?$AAg?$AAa?$AAt?$AAe?$AA?$AA@ 10043bfc     nafxcw:wincore.obj
 0002:00000c14       ??_C@_1BG@JGHKFACA@?$AAa?$AAc?$AAc?$AAH?$AAi?$AAt?$AAT?$AAe?$AAs?$AAt?$AA?$AA@ 10043c14     nafxcw:wincore.obj
 0002:00000c2c       ??_C@_1CG@DKEMKFDI@?$AAa?$AAc?$AAc?$AAD?$AAo?$AAD?$AAe?$AAf?$AAa?$AAu?$AAl?$AAt?$AAA?$AAc?$AAt?$AAi?$AAo?$AAn?$AA?$AA@ 10043c2c     nafxcw:wincore.obj
 0002:00000c5c       ??_7XAccessible@CWnd@@6B@  10043c5c     nafxcw:wincore.obj
 0002:00000cd0       ??_7XAccessibleServer@CWnd@@6B@ 10043cd0     nafxcw:wincore.obj
 0002:00000cec       ??_7CWnd@@6B@              10043cec     nafxcw:wincore.obj
 0002:00000e24       ??_7CTestCmdUI@@6B@        10043e24     nafxcw:wincore.obj
 0002:00000e34       __GUID_618736e0_3c3d_11cf_810c_00aa00389b71 10043e34     nafxcw:wincore.obj
 0002:00000e44       __GUID_7a7d9dcf_b7a1_4019_9031_258268846980 10043e44     nafxcw:wincore.obj
 0002:00000e58       ??_7_AFX_HTMLHELP_STATE@@6B@ 10043e58     nafxcw:wincore.obj
 0002:00000e5c       ??_C@_0BD@KDNHKDOA@InitCommonControls?$AA@ 10043e5c     nafxcw:wincore.obj
 0002:00000e70       ??_C@_0BF@IABGBOLM@InitCommonControlsEx?$AA@ 10043e70     nafxcw:wincore.obj
 0002:00000e88       ??_C@_09EFBFPPGM@HtmlHelpA?$AA@ 10043e88     nafxcw:wincore.obj
 0002:00000e94       ??_C@_0L@EFKJKBHF@hhctrl?4ocx?$AA@ 10043e94     nafxcw:wincore.obj
 0002:00000ea4       ??_7?$CMFCComObject@VCAccessibleProxy@ATL@@@@6B@ 10043ea4     nafxcw:wincore.obj
 0002:00000ebc       ??_7?$CMFCComObject@VCAccessibleProxy@ATL@@@@6BIAccessibleProxy@@@ 10043ebc     nafxcw:wincore.obj
 0002:00000ed4       ??_7?$CMFCComObject@VCAccessibleProxy@ATL@@@@6BIAccessible@@@ 10043ed4     nafxcw:wincore.obj
 0002:00000f48       ?_entries@?1??_GetEntries@CAccessibleProxy@ATL@@SGPBU_ATL_INTMAP_ENTRY@3@XZ@4QBU43@B 10043f48     nafxcw:wincore.obj
 0002:00000f84       __GUID_00020400_0000_0000_c000_000000000046 10043f84     nafxcw:wincore.obj
 0002:00000f94       __GUID_00000114_0000_0000_c000_000000000046 10043f94     nafxcw:wincore.obj
 0002:00000fa4       ??_C@_06JPEMHIKE@?$CD32768?$AA@ 10043fa4     nafxcw:wincore.obj
 0002:00000fac       ??_C@_03MABAFPPL@ime?$AA@  10043fac     nafxcw:wincore.obj
 0002:00000fb0       ??_C@_0DG@LAHMNBDH@f?3?2dd?2vctools?2vc7libs?2ship?2atlmf@ 10043fb0     nafxcw:wincore.obj
 0002:000012c0       ??_C@_0BF@NHDBJBLA@commctrl_DragListMsg?$AA@ 100442c0     nafxcw:wincore.obj
 0002:000012d8       ??_C@_0L@EAFIEMIL@CGdiObject?$AA@ 100442d8     nafxcw:wingdi.obj
 0002:000012e4       ??_C@_03PLNNOOOK@CDC?$AA@  100442e4     nafxcw:wingdi.obj
 0002:000012e8       ??_C@_0P@MCKPIMM@CUserException?$AA@ 100442e8     nafxcw:wingdi.obj
 0002:000012f8       ??_C@_0BD@LKICOBNI@CResourceException?$AA@ 100442f8     nafxcw:wingdi.obj
 0002:0000130c       ?classCResourceException@CResourceException@@2UCRuntimeClass@@B 1004430c     nafxcw:wingdi.obj
 0002:00001328       ?classCUserException@CUserException@@2UCRuntimeClass@@B 10044328     nafxcw:wingdi.obj
 0002:00001344       ?classCDC@CDC@@2UCRuntimeClass@@B 10044344     nafxcw:wingdi.obj
 0002:00001360       ?classCGdiObject@CGdiObject@@2UCRuntimeClass@@B 10044360     nafxcw:wingdi.obj
 0002:00001380       ??_7CResourceException@@6B@ 10044380     nafxcw:wingdi.obj
 0002:0000139c       ??_7CUserException@@6B@    1004439c     nafxcw:wingdi.obj
 0002:000013b8       ??_7CGdiObject@@6B@        100443b8     nafxcw:wingdi.obj
 0002:000013cc       ??_7CDC@@6B@               100443cc     nafxcw:wingdi.obj
 0002:00001444       ??_C@_0DG@DGOIKDJJ@f?3?2dd?2vctools?2vc7libs?2ship?2atlmf@ 10044444     nafxcw:wingdi.obj
 0002:0000147c       ??_C@_0L@NNMBAOBP@CByteArray?$AA@ 1004447c     nafxcw:array_b.obj
 0002:0000148c       ??_7CByteArray@@6B@        1004448c     nafxcw:array_b.obj
 0002:00001498       ??_C@_05HLGLNGMO@CMenu?$AA@ 10044498     nafxcw:winmenu.obj
 0002:000014a0       ?classCMenu@CMenu@@2UCRuntimeClass@@B 100444a0     nafxcw:winmenu.obj
 0002:000014c0       ??_7CMenu@@6B@             100444c0     nafxcw:winmenu.obj
 0002:000014d4       ??_C@_0N@MDJJJHMB@kernel32?4dll?$AA@ 100444d4     nafxcw:appcore.obj
 0002:000014e4       ?hFileNull@CFile@@2QAXA    100444e4     nafxcw:filecore.obj
 0002:000014e8       ??_C@_01ICJEACDI@?$DL?$AA@ 100444e8     nafxcw:docmgr.obj
 0002:000014ec       _IID_IUnknown              100444ec     uuid:unknwn_i.obj
 0002:000014fc       _IID_IDispatch             100444fc     uuid:oaidl_i.obj
 0002:00001510       ??_7bad_alloc@std@@6B@     10044510     libcpmt:locale0.obj
 0002:0000151c       ??_7facet@locale@std@@6B@  1004451c     libcpmt:locale0.obj
 0002:00001524       ??_7_Locimp@locale@std@@6B@ 10044524     libcpmt:locale0.obj
 0002:00001528       ??_C@_01NBENCBCI@?$CK?$AA@ 10044528     libcpmt:locale0.obj
 0002:0000152c       ??_C@_13BPINEIPE@?$AAr?$AA?$AA@ 1004452c     libcpmt:fiopen.obj
 0002:0000156c       ??_C@_13CIFDLIMG@?$AAw?$AA?$AA@ 1004456c     libcpmt:fiopen.obj
 0002:00001570       ??_C@_13FNCBLAIF@?$AAa?$AA?$AA@ 10044570     libcpmt:fiopen.obj
 0002:00001574       ??_C@_15JJPIMNBO@?$AAr?$AAb?$AA?$AA@ 10044574     libcpmt:fiopen.obj
 0002:0000157c       ??_C@_15MJDFFMKN@?$AAw?$AAb?$AA?$AA@ 1004457c     libcpmt:fiopen.obj
 0002:00001584       ??_C@_15BMLKLNCL@?$AAa?$AAb?$AA?$AA@ 10044584     libcpmt:fiopen.obj
 0002:0000158c       ??_C@_15HPOENKKJ@?$AAr?$AA?$CL?$AA?$AA@ 1004458c     libcpmt:fiopen.obj
 0002:00001594       ??_C@_15CPCJELBK@?$AAw?$AA?$CL?$AA?$AA@ 10044594     libcpmt:fiopen.obj
 0002:0000159c       ??_C@_15PKKGKKJM@?$AAa?$AA?$CL?$AA?$AA@ 1004459c     libcpmt:fiopen.obj
 0002:000015a4       ??_C@_17IIOMHMAG@?$AAr?$AA?$CL?$AAb?$AA?$AA@ 100445a4     libcpmt:fiopen.obj
 0002:000015ac       ??_C@_17MAAMHCGC@?$AAw?$AA?$CL?$AAb?$AA?$AA@ 100445ac     libcpmt:fiopen.obj
 0002:000015b4       ??_C@_17HKNIEKMO@?$AAa?$AA?$CL?$AAb?$AA?$AA@ 100445b4     libcpmt:fiopen.obj
 0002:000015bc       ?_BADOFF@std@@3JB          100445bc     libcpmt:ios.obj
 0002:000015c4       ??_7logic_error@std@@6B@   100445c4     libcpmt:string.obj
 0002:000015d0       ??_7length_error@std@@6B@  100445d0     libcpmt:string.obj
 0002:000015dc       ??_7out_of_range@std@@6B@  100445dc     libcpmt:string.obj
 0002:000015e4       ??_C@_0BA@JFNIOLAK@string?5too?5long?$AA@ 100445e4     libcpmt:string.obj
 0002:000015f4       ??_C@_0BI@CFPLBAOH@invalid?5string?5position?$AA@ 100445f4     libcpmt:string.obj
 0002:00001610       ??_7exception@std@@6B@     10044610     LIBCMT:stdexcpt.obj
 0002:00001618       ??_C@_0BC@EOODALEL@Unknown?5exception?$AA@ 10044618     LIBCMT:stdexcpt.obj
 0002:00001630       ??_7bad_cast@std@@6B@      10044630     LIBCMT:stdexcpt.obj
 0002:00001638       ??_C@_0P@MIGLKIOC@CorExitProcess?$AA@ 10044638     LIBCMT:crt0dat.obj
 0002:00001648       ??_C@_0M@MBOPBNBK@mscoree?4dll?$AA@ 10044648     LIBCMT:crt0dat.obj
 0002:00001658       ??_7type_info@@6B@         10044658     LIBCMT:typinfo.obj
 0002:0000165c       __pDefaultRawDllMain       1004465c     LIBCMT:dllcrt0.obj
 0002:0000165c       __pRawDllMain              1004465c     LIBCMT:dllcrt0.obj
 0002:00001680       __FPinit                   10044680     LIBCMT:fpinit.obj
 0002:00001684       __FPmtinit                 10044684     LIBCMT:fpinit.obj
 0002:00001688       __FPmtterm                 10044688     LIBCMT:fpinit.obj
 0002:0000168c       ??_C@_07LCBHPJJN@LC_TIME?$AA@ 1004468c     LIBCMT:setlocal.obj
 0002:00001694       ??_C@_0L@DLHIECNL@LC_NUMERIC?$AA@ 10044694     LIBCMT:setlocal.obj
 0002:000016a0       ??_C@_0M@MIENIKLA@LC_MONETARY?$AA@ 100446a0     LIBCMT:setlocal.obj
 0002:000016ac       ??_C@_08EADHIDAD@LC_CTYPE?$AA@ 100446ac     LIBCMT:setlocal.obj
 0002:000016b8       ??_C@_0L@KFJHEKIK@LC_COLLATE?$AA@ 100446b8     LIBCMT:setlocal.obj
 0002:000016c4       ??_C@_06NEFDFEKB@LC_ALL?$AA@ 100446c4     LIBCMT:setlocal.obj
 0002:000016d0       ___lc_category             100446d0     LIBCMT:setlocal.obj
 0002:00001798       ??_C@_03EGDHDPFD@_?4?0?$AA@ 10044798     LIBCMT:setlocal.obj
 0002:0000179c       ??_C@_01IDAFKMJL@_?$AA@    1004479c     LIBCMT:setlocal.obj
 0002:000017a0       ??_C@_01NEMOKFLO@?$DN?$AA@ 100447a0     LIBCMT:setlocal.obj
 0002:000017a4       ??_C@_02BALPLPBG@?$DN?$DL?$AA@ 100447a4     LIBCMT:setlocal.obj
 0002:000017a8       ??_C@_13NOLLCAOD@?$AA?$AA?$AA?$AA@ 100447a8     LIBCMT:a_map.obj
 0002:000017b0       ___newctype                100447b0     LIBCMT:ctype.obj
 0002:00001ab0       __wctype                   10044ab0     LIBCMT:ctype.obj
 0002:00001cb8       ___newclmap                10044cb8     LIBCMT:ctype.obj
 0002:00001e38       ___newcumap                10044e38     LIBCMT:ctype.obj
 0002:00001fb8       __pDestructExceptionObject 10044fb8     LIBCMT:frame.obj
 0002:00001fc0       ??_7bad_exception@std@@6B@ 10044fc0     LIBCMT:frame.obj
 0002:00001fc8       ??_C@_0O@DPKOEFFH@bad?5exception?$AA@ 10044fc8     LIBCMT:frame.obj
 0002:00001fd8       ??_C@_07EPKMNAGK@?4mixcrt?$AA@ 10044fd8     LIBCMT:tidtable.obj
 0002:00001fe0       ??_C@_0O@NLDKAIKN@EncodePointer?$AA@ 10044fe0     LIBCMT:tidtable.obj
 0002:00001ff0       ??_C@_0N@NHGLKGEC@KERNEL32?4DLL?$AA@ 10044ff0     LIBCMT:tidtable.obj
 0002:00002000       ??_C@_0O@KBPMFGHI@DecodePointer?$AA@ 10045000     LIBCMT:tidtable.obj
 0002:00002010       ??_C@_07PEJMOBNF@FlsFree?$AA@ 10045010     LIBCMT:tidtable.obj
 0002:00002018       ??_C@_0M@JCPCPOEF@FlsSetValue?$AA@ 10045018     LIBCMT:tidtable.obj
 0002:00002024       ??_C@_0M@GDNOONDI@FlsGetValue?$AA@ 10045024     LIBCMT:tidtable.obj
 0002:00002030       ??_C@_08KNHFBNJ@FlsAlloc?$AA@ 10045030     LIBCMT:tidtable.obj
 0002:0000203c       ??_C@_0P@GGKDKEEG@runtime?5error?5?$AA@ 1004503c     LIBCMT:crt0msg.obj
 0002:0000204c       ??_C@_02PCIJFNDE@?$AN?6?$AA@ 1004504c     LIBCMT:crt0msg.obj
 0002:00002050       ??_C@_0O@MJNIPGOH@TLOSS?5error?$AN?6?$AA@ 10045050     LIBCMT:crt0msg.obj
 0002:00002060       ??_C@_0N@BONNPDHF@SING?5error?$AN?6?$AA@ 10045060     LIBCMT:crt0msg.obj
 0002:00002070       ??_C@_0P@MBDAJNE@DOMAIN?5error?$AN?6?$AA@ 10045070     LIBCMT:crt0msg.obj
 0002:00002080       ??_C@_0JL@DFDOOABL@R6034?$AN?6An?5application?5has?5made?5a@ 10045080     LIBCMT:crt0msg.obj
 0002:00002120       ??_C@_0PH@EPAFIJ@R6033?$AN?6?9?5Attempt?5to?5use?5MSIL?5cod@ 10045120     LIBCMT:crt0msg.obj
 0002:00002218       ??_C@_0DD@BKEEABMM@R6032?$AN?6?9?5not?5enough?5space?5for?5lo@ 10045218     LIBCMT:crt0msg.obj
 0002:00002250       ??_C@_0GD@OFKILIED@R6031?$AN?6?9?5Attempt?5to?5initialize?5t@ 10045250     LIBCMT:crt0msg.obj
 0002:000022b4       ??_C@_0BP@LPMHJOKI@R6030?$AN?6?9?5CRT?5not?5initialized?$AN?6?$AA@ 100452b4     LIBCMT:crt0msg.obj
 0002:000022d4       ??_C@_0CF@KJDAIALP@R6028?$AN?6?9?5unable?5to?5initialize?5he@ 100452d4     LIBCMT:crt0msg.obj
 0002:000022fc       ??_C@_0DF@GAKBPDFP@R6027?$AN?6?9?5not?5enough?5space?5for?5lo@ 100452fc     LIBCMT:crt0msg.obj
 0002:00002334       ??_C@_0DF@IBLNNAIG@R6026?$AN?6?9?5not?5enough?5space?5for?5st@ 10045334     LIBCMT:crt0msg.obj
 0002:0000236c       ??_C@_0CG@IOHKGFNJ@R6025?$AN?6?9?5pure?5virtual?5function?5c@ 1004536c     LIBCMT:crt0msg.obj
 0002:00002394       ??_C@_0DF@JIJJFJDC@R6024?$AN?6?9?5not?5enough?5space?5for?5_o@ 10045394     LIBCMT:crt0msg.obj
 0002:000023cc       ??_C@_0CJ@EGEJHFME@R6019?$AN?6?9?5unable?5to?5open?5console?5@ 100453cc     LIBCMT:crt0msg.obj
 0002:000023f8       ??_C@_0CB@GNHNIELH@R6018?$AN?6?9?5unexpected?5heap?5error?$AN?6@ 100453f8     LIBCMT:crt0msg.obj
 0002:0000241c       ??_C@_0CN@FOLDKNG@R6017?$AN?6?9?5unexpected?5multithread?5@ 1004541c     LIBCMT:crt0msg.obj
 0002:0000244c       ??_C@_0CM@FAHFJNHO@R6016?$AN?6?9?5not?5enough?5space?5for?5th@ 1004544c     LIBCMT:crt0msg.obj
 0002:00002478       ??_C@_0JG@LBKMGKLD@?$AN?6This?5application?5has?5requested@ 10045478     LIBCMT:crt0msg.obj
 0002:00002510       ??_C@_0CM@FLCNIPKK@R6009?$AN?6?9?5not?5enough?5space?5for?5en@ 10045510     LIBCMT:crt0msg.obj
 0002:0000253c       ??_C@_0CK@KMMJOAPP@R6008?$AN?6?9?5not?5enough?5space?5for?5ar@ 1004553c     LIBCMT:crt0msg.obj
 0002:00002568       ??_C@_0CN@LEKKICBM@R6002?$AN?6?9?5floating?5point?5support?5@ 10045568     LIBCMT:crt0msg.obj
 0002:00002598       ??_C@_0CF@GOGNBNAK@Microsoft?5Visual?5C?$CL?$CL?5Runtime?5Lib@ 10045598     LIBCMT:crt0msg.obj
 0002:000025c0       ??_C@_02PHMGELLB@?6?6?$AA@ 100455c0     LIBCMT:crt0msg.obj
 0002:000025c4       ??_C@_03KHICJKCI@?4?4?4?$AA@ 100455c4     LIBCMT:crt0msg.obj
 0002:000025c8       ??_C@_0BH@DNAGHKFM@?$DMprogram?5name?5unknown?$DO?$AA@ 100455c8     LIBCMT:crt0msg.obj
 0002:000025e0       ??_C@_0BK@OFGJDLJJ@Runtime?5Error?$CB?6?6Program?3?5?$AA@ 100455e0     LIBCMT:crt0msg.obj
 0002:000025fc       ??_C@_0CG@PKBDLMEO@InitializeCriticalSectionAndSpin@ 100455fc     LIBCMT:initcrit.obj
 0002:00002624       ??_C@_1O@CEDCILHN@?$AA?$CI?$AAn?$AAu?$AAl?$AAl?$AA?$CJ?$AA?$AA@ 10045624     LIBCMT:output.obj
 0002:00002634       ??_C@_06OJHGLDPL@?$CInull?$CJ?$AA@ 10045634     LIBCMT:output.obj
 0002:00002640       ___lookuptable             10045640     LIBCMT:output.obj
 0002:000026a4       ??_C@_04PNGHFIJN@?4com?$AA@ 100456a4     LIBCMT:spawnve.obj
 0002:000026ac       ??_C@_04JLMDILM@?4exe?$AA@ 100456ac     LIBCMT:spawnve.obj
 0002:000026b4       ??_C@_04NEEFLLOK@?4bat?$AA@ 100456b4     LIBCMT:spawnve.obj
 0002:000026bc       ??_C@_04CPCBDHLK@?4cmd?$AA@ 100456bc     LIBCMT:spawnve.obj
 0002:000026c8       ___lookuptable_s           100456c8     LIBCMT:outputs.obj
 0002:00002748       ??_C@_05KLBDPFGC@e?$CL000?$AA@ 10045748     LIBCMT:cvt.obj
 0002:00002750       __real@4150017ec0000000    10045750     LIBCMT:testfdiv.obj
 0002:00002758       __real@4147ffff80000000    10045758     LIBCMT:testfdiv.obj
 0002:00002760       ??_C@_0BK@NHEOCAHP@IsProcessorFeaturePresent?$AA@ 10045760     LIBCMT:testfdiv.obj
 0002:0000277c       ___dnames                  1004577c     LIBCMT:timeset.obj
 0002:00002794       ___mnames                  10045794     LIBCMT:timeset.obj
 0002:000027bc       ??_C@_08JCCMCCIL@HH?3mm?3ss?$AA@ 100457bc     LIBCMT:strftime.obj
 0002:000027c8       ??_C@_0BE@CKGJFCPC@dddd?0?5MMMM?5dd?0?5yyyy?$AA@ 100457c8     LIBCMT:strftime.obj
 0002:000027dc       ??_C@_08BPBNCDIB@MM?1dd?1yy?$AA@ 100457dc     LIBCMT:strftime.obj
 0002:000027e8       ??_C@_02CJNFDJBF@PM?$AA@   100457e8     LIBCMT:strftime.obj
 0002:000027ec       ??_C@_02DEDBPAFC@AM?$AA@   100457ec     LIBCMT:strftime.obj
 0002:000027f0       ??_C@_08EDHMEBNP@December?$AA@ 100457f0     LIBCMT:strftime.obj
 0002:000027fc       ??_C@_08HCHEGEOA@November?$AA@ 100457fc     LIBCMT:strftime.obj
 0002:00002808       ??_C@_07JJNFCEND@October?$AA@ 10045808     LIBCMT:strftime.obj
 0002:00002810       ??_C@_09BHHEALKD@September?$AA@ 10045810     LIBCMT:strftime.obj
 0002:0000281c       ??_C@_06LBBHFDDG@August?$AA@ 1004581c     LIBCMT:strftime.obj
 0002:00002824       ??_C@_04MIEPOIFP@July?$AA@ 10045824     LIBCMT:strftime.obj
 0002:0000282c       ??_C@_04CNLMGBGM@June?$AA@ 1004582c     LIBCMT:strftime.obj
 0002:00002834       ??_C@_05DMJDNLEJ@April?$AA@ 10045834     LIBCMT:strftime.obj
 0002:0000283c       ??_C@_05HPCKOFNC@March?$AA@ 1004583c     LIBCMT:strftime.obj
 0002:00002844       ??_C@_08GNJGEPFN@February?$AA@ 10045844     LIBCMT:strftime.obj
 0002:00002850       ??_C@_07CGJPFGJA@January?$AA@ 10045850     LIBCMT:strftime.obj
 0002:00002858       ??_C@_03MKABNOCG@Dec?$AA@  10045858     LIBCMT:strftime.obj
 0002:0000285c       ??_C@_03JPJOFNIA@Nov?$AA@  1004585c     LIBCMT:strftime.obj
 0002:00002860       ??_C@_03BMAOKBAD@Oct?$AA@  10045860     LIBCMT:strftime.obj
 0002:00002864       ??_C@_03GGCAPAJC@Sep?$AA@  10045864     LIBCMT:strftime.obj
 0002:00002868       ??_C@_03IFJFEIGA@Aug?$AA@  10045868     LIBCMT:strftime.obj
 0002:0000286c       ??_C@_03LBGABGKK@Jul?$AA@  1004586c     LIBCMT:strftime.obj
 0002:00002870       ??_C@_03IDFGHECI@Jun?$AA@  10045870     LIBCMT:strftime.obj
 0002:00002874       ??_C@_03CNMDKL@May?$AA@    10045874     LIBCMT:strftime.obj
 0002:00002878       ??_C@_03LEOLGMJP@Apr?$AA@  10045878     LIBCMT:strftime.obj
 0002:0000287c       ??_C@_03ODNJBKGA@Mar?$AA@  1004587c     LIBCMT:strftime.obj
 0002:00002880       ??_C@_03HJBDCHOM@Feb?$AA@  10045880     LIBCMT:strftime.obj
 0002:00002884       ??_C@_03JIHJHPIE@Jan?$AA@  10045884     LIBCMT:strftime.obj
 0002:00002888       ??_C@_08INBOOONO@Saturday?$AA@ 10045888     LIBCMT:strftime.obj
 0002:00002894       ??_C@_06JECMNKMI@Friday?$AA@ 10045894     LIBCMT:strftime.obj
 0002:0000289c       ??_C@_08HACCIKIA@Thursday?$AA@ 1004589c     LIBCMT:strftime.obj
 0002:000028a8       ??_C@_09DLIGFAKA@Wednesday?$AA@ 100458a8     LIBCMT:strftime.obj
 0002:000028b4       ??_C@_07BAAGCFCM@Tuesday?$AA@ 100458b4     LIBCMT:strftime.obj
 0002:000028bc       ??_C@_06JLEDEDGH@Monday?$AA@ 100458bc     LIBCMT:strftime.obj
 0002:000028c4       ??_C@_06OOPIFAJ@Sunday?$AA@ 100458c4     LIBCMT:strftime.obj
 0002:000028cc       ??_C@_03FEFJNEK@Sat?$AA@   100458cc     LIBCMT:strftime.obj
 0002:000028d0       ??_C@_03IDIOELNC@Fri?$AA@  100458d0     LIBCMT:strftime.obj
 0002:000028d4       ??_C@_03IOFIKPDN@Thu?$AA@  100458d4     LIBCMT:strftime.obj
 0002:000028d8       ??_C@_03MHOMLAJA@Wed?$AA@  100458d8     LIBCMT:strftime.obj
 0002:000028dc       ??_C@_03NAGEINEP@Tue?$AA@  100458dc     LIBCMT:strftime.obj
 0002:000028e0       ??_C@_03PDAGKDH@Mon?$AA@   100458e0     LIBCMT:strftime.obj
 0002:000028e4       ??_C@_03KOEHGMDN@Sun?$AA@  100458e4     LIBCMT:strftime.obj
 0002:000028e8       ??_C@_0O@FMJNFNKE@united?9states?$AA@ 100458e8     LIBCMT:getqloc.obj
 0002:000028f8       ??_C@_0P@NDHFFKCA@united?9kingdom?$AA@ 100458f8     LIBCMT:getqloc.obj
 0002:00002908       ??_C@_0BC@HHDADLGF@trinidad?5?$CG?5tobago?$AA@ 10045908     LIBCMT:getqloc.obj
 0002:0000291c       ??_C@_0M@IOAEBDAC@south?9korea?$AA@ 1004591c     LIBCMT:getqloc.obj
 0002:00002928       ??_C@_0N@FIELFKIJ@south?9africa?$AA@ 10045928     LIBCMT:getqloc.obj
 0002:00002938       ??_C@_0M@OPNDHCMC@south?5korea?$AA@ 10045938     LIBCMT:getqloc.obj
 0002:00002944       ??_C@_0N@MDEOEPFI@south?5africa?$AA@ 10045944     LIBCMT:getqloc.obj
 0002:00002954       ??_C@_06FKAPCJLB@slovak?$AA@ 10045954     LIBCMT:getqloc.obj
 0002:0000295c       ??_C@_0M@EFJANOAL@puerto?9rico?$AA@ 1004595c     LIBCMT:getqloc.obj
 0002:00002968       ??_C@_08PGOJKDAI@pr?9china?$AA@ 10045968     LIBCMT:getqloc.obj
 0002:00002974       ??_C@_08JHDOMCMI@pr?5china?$AA@ 10045974     LIBCMT:getqloc.obj
 0002:00002980       ??_C@_02JHCHFBLL@nz?$AA@   10045980     LIBCMT:getqloc.obj
 0002:00002984       ??_C@_0M@LINHDHKP@new?9zealand?$AA@ 10045984     LIBCMT:getqloc.obj
 0002:00002990       ??_C@_09IIIPPBDB@hong?9kong?$AA@ 10045990     LIBCMT:getqloc.obj
 0002:0000299c       ??_C@_07HJLCKBG@holland?$AA@ 1004599c     LIBCMT:getqloc.obj
 0002:000029a4       ??_C@_0O@LEHGMHAG@great?5britain?$AA@ 100459a4     LIBCMT:getqloc.obj
 0002:000029b4       ??_C@_07FACOMELA@england?$AA@ 100459b4     LIBCMT:getqloc.obj
 0002:000029bc       ??_C@_05JIHCEICB@czech?$AA@ 100459bc     LIBCMT:getqloc.obj
 0002:000029c4       ??_C@_05BBJOBLGB@china?$AA@ 100459c4     LIBCMT:getqloc.obj
 0002:000029cc       ??_C@_07GPKPHICP@britain?$AA@ 100459cc     LIBCMT:getqloc.obj
 0002:000029d4       ??_C@_07MHIPBHMG@america?$AA@ 100459d4     LIBCMT:getqloc.obj
 0002:000029dc       ??_C@_03KIALPMKC@usa?$AA@  100459dc     LIBCMT:getqloc.obj
 0002:000029e0       ??_C@_02FGJGKGGD@us?$AA@   100459e0     LIBCMT:getqloc.obj
 0002:000029e4       ??_C@_02NEINDODK@uk?$AA@   100459e4     LIBCMT:getqloc.obj
 0002:000029e8       ??_C@_05JMPCFJFJ@swiss?$AA@ 100459e8     LIBCMT:getqloc.obj
 0002:000029f0       ??_C@_0BA@HLOCPIOD@swedish?9finland?$AA@ 100459f0     LIBCMT:getqloc.obj
 0002:00002a00       ??_C@_0BC@PKCNIABK@spanish?9venezuela?$AA@ 10045a00     LIBCMT:getqloc.obj
 0002:00002a14       ??_C@_0BA@GBHHMIJI@spanish?9uruguay?$AA@ 10045a14     LIBCMT:getqloc.obj
 0002:00002a24       ??_C@_0BE@BHDOHPMC@spanish?9puerto?5rico?$AA@ 10045a24     LIBCMT:getqloc.obj
 0002:00002a38       ??_C@_0N@KMOIDGGN@spanish?9peru?$AA@ 10045a38     LIBCMT:getqloc.obj
 0002:00002a48       ??_C@_0BB@HMHLPGPH@spanish?9paraguay?$AA@ 10045a48     LIBCMT:getqloc.obj
 0002:00002a5c       ??_C@_0P@MCPKNGFD@spanish?9panama?$AA@ 10045a5c     LIBCMT:getqloc.obj
 0002:00002a6c       ??_C@_0BC@IHOHGAIL@spanish?9nicaragua?$AA@ 10045a6c     LIBCMT:getqloc.obj
 0002:00002a80       ??_C@_0P@KLMJDNFJ@spanish?9modern?$AA@ 10045a80     LIBCMT:getqloc.obj
 0002:00002a90       ??_C@_0BA@BPAPGBCM@spanish?9mexican?$AA@ 10045a90     LIBCMT:getqloc.obj
 0002:00002aa0       ??_C@_0BB@PDECHHHE@spanish?9honduras?$AA@ 10045aa0     LIBCMT:getqloc.obj
 0002:00002ab4       ??_C@_0BC@KLHKFGDB@spanish?9guatemala?$AA@ 10045ab4     LIBCMT:getqloc.obj
 0002:00002ac8       ??_C@_0BE@MFOOKJAI@spanish?9el?5salvador?$AA@ 10045ac8     LIBCMT:getqloc.obj
 0002:00002adc       ??_C@_0BA@FCOKFPFC@spanish?9ecuador?$AA@ 10045adc     LIBCMT:getqloc.obj
 0002:00002aec       ??_C@_0BL@PLMGIMOO@spanish?9dominican?5republic?$AA@ 10045aec     LIBCMT:getqloc.obj
 0002:00002b08       ??_C@_0BD@HLGDNMHB@spanish?9costa?5rica?$AA@ 10045b08     LIBCMT:getqloc.obj
 0002:00002b1c       ??_C@_0BB@PKCBKCPE@spanish?9colombia?$AA@ 10045b1c     LIBCMT:getqloc.obj
 0002:00002b30       ??_C@_0O@MCBIJGNE@spanish?9chile?$AA@ 10045b30     LIBCMT:getqloc.obj
 0002:00002b40       ??_C@_0BA@BEFEIGJJ@spanish?9bolivia?$AA@ 10045b40     LIBCMT:getqloc.obj
 0002:00002b50       ??_C@_0BC@EMECMPD@spanish?9argentina?$AA@ 10045b50     LIBCMT:getqloc.obj
 0002:00002b64       ??_C@_0BF@EALFLENP@portuguese?9brazilian?$AA@ 10045b64     LIBCMT:getqloc.obj
 0002:00002b7c       ??_C@_0BC@HBLEBLNN@norwegian?9nynorsk?$AA@ 10045b7c     LIBCMT:getqloc.obj
 0002:00002b90       ??_C@_0BB@HMACDDCK@norwegian?9bokmal?$AA@ 10045b90     LIBCMT:getqloc.obj
 0002:00002ba4       ??_C@_09BAFFPPHE@norwegian?$AA@ 10045ba4     LIBCMT:getqloc.obj
 0002:00002bb0       ??_C@_0O@EAJFJDFG@italian?9swiss?$AA@ 10045bb0     LIBCMT:getqloc.obj
 0002:00002bc0       ??_C@_0O@CNOMPGD@irish?9english?$AA@ 10045bc0     LIBCMT:getqloc.obj
 0002:00002bd0       ??_C@_0N@EDHBGCKG@german?9swiss?$AA@ 10045bd0     LIBCMT:getqloc.obj
 0002:00002be0       ??_C@_0BC@JACMHNBP@german?9luxembourg?$AA@ 10045be0     LIBCMT:getqloc.obj
 0002:00002bf4       ??_C@_0BE@HBGMGFEG@german?9lichtenstein?$AA@ 10045bf4     LIBCMT:getqloc.obj
 0002:00002c08       ??_C@_0BA@HKKBIBKL@german?9austrian?$AA@ 10045c08     LIBCMT:getqloc.obj
 0002:00002c18       ??_C@_0N@GCAEPEBK@french?9swiss?$AA@ 10045c18     LIBCMT:getqloc.obj
 0002:00002c28       ??_C@_0BC@DJFJJCK@french?9luxembourg?$AA@ 10045c28     LIBCMT:getqloc.obj
 0002:00002c3c       ??_C@_0BA@NNCEDFIC@french?9canadian?$AA@ 10045c3c     LIBCMT:getqloc.obj
 0002:00002c4c       ??_C@_0P@CMPOCLM@french?9belgian?$AA@ 10045c4c     LIBCMT:getqloc.obj
 0002:00002c5c       ??_C@_0M@GHHDJOK@english?9usa?$AA@ 10045c5c     LIBCMT:getqloc.obj
 0002:00002c68       ??_C@_0L@PLDJKEIL@english?9us?$AA@ 10045c68     LIBCMT:getqloc.obj
 0002:00002c74       ??_C@_0L@HJCCDMNC@english?9uk?$AA@ 10045c74     LIBCMT:getqloc.obj
 0002:00002c80       ??_C@_0BK@CKLIAGJB@english?9trinidad?5y?5tobago?$AA@ 10045c80     LIBCMT:getqloc.obj
 0002:00002c9c       ??_C@_0BF@JMJMGNNF@english?9south?5africa?$AA@ 10045c9c     LIBCMT:getqloc.obj
 0002:00002cb4       ??_C@_0L@DKIIFDFD@english?9nz?$AA@ 10045cb4     LIBCMT:getqloc.obj
 0002:00002cc0       ??_C@_0BA@ONHGJCLH@english?9jamaica?$AA@ 10045cc0     LIBCMT:getqloc.obj
 0002:00002cd0       ??_C@_0M@HJBGHOPO@english?9ire?$AA@ 10045cd0     LIBCMT:getqloc.obj
 0002:00002cdc       ??_C@_0BC@LFEKMIFB@english?9caribbean?$AA@ 10045cdc     LIBCMT:getqloc.obj
 0002:00002cf0       ??_C@_0M@OLDPFKHI@english?9can?$AA@ 10045cf0     LIBCMT:getqloc.obj
 0002:00002cfc       ??_C@_0P@OMDEHBMP@english?9belize?$AA@ 10045cfc     LIBCMT:getqloc.obj
 0002:00002d0c       ??_C@_0M@KFHFPFED@english?9aus?$AA@ 10045d0c     LIBCMT:getqloc.obj
 0002:00002d18       ??_C@_0BB@MNMBKDFE@english?9american?$AA@ 10045d18     LIBCMT:getqloc.obj
 0002:00002d2c       ??_C@_0O@KIDLNNBA@dutch?9belgian?$AA@ 10045d2c     LIBCMT:getqloc.obj
 0002:00002d3c       ??_C@_0BE@JBKABBMH@chinese?9traditional?$AA@ 10045d3c     LIBCMT:getqloc.obj
 0002:00002d50       ??_C@_0BC@MJJMPKCG@chinese?9singapore?$AA@ 10045d50     LIBCMT:getqloc.obj
 0002:00002d64       ??_C@_0BD@FDKADDCP@chinese?9simplified?$AA@ 10045d64     LIBCMT:getqloc.obj
 0002:00002d78       ??_C@_0BB@DBEFDDME@chinese?9hongkong?$AA@ 10045d78     LIBCMT:getqloc.obj
 0002:00002d8c       ??_C@_07DHNMFMCI@chinese?$AA@ 10045d8c     LIBCMT:getqloc.obj
 0002:00002d94       ??_C@_03FNDDCHI@chi?$AA@   10045d94     LIBCMT:getqloc.obj
 0002:00002d98       ??_C@_03BMMIADDJ@chh?$AA@  10045d98     LIBCMT:getqloc.obj
 0002:00002d9c       ??_C@_08OAIPJDGI@canadian?$AA@ 10045d9c     LIBCMT:getqloc.obj
 0002:00002da8       ??_C@_07HBPMNPNJ@belgian?$AA@ 10045da8     LIBCMT:getqloc.obj
 0002:00002db0       ??_C@_0L@OEKOPBEL@australian?$AA@ 10045db0     LIBCMT:getqloc.obj
 0002:00002dbc       ??_C@_0BB@MEIMBEDG@american?9english?$AA@ 10045dbc     LIBCMT:getqloc.obj
 0002:00002dd0       ??_C@_0BB@DFMDPDGB@american?5english?$AA@ 10045dd0     LIBCMT:getqloc.obj
 0002:00002de4       ??_C@_08IJLOKOLL@american?$AA@ 10045de4     LIBCMT:getqloc.obj
 0002:00002df0       ___rg_language             10045df0     LIBCMT:getqloc.obj
 0002:00002ff8       ___rg_country              10045ff8     LIBCMT:getqloc.obj
 0002:000030b0       ___rglangidNotDefault      100460b0     LIBCMT:getqloc.obj
 0002:000030c4       ??_C@_03NFKLAGEF@OCP?$AA@  100460c4     LIBCMT:getqloc.obj
 0002:000030c8       ??_C@_03DFHEHBHG@ACP?$AA@  100460c8     LIBCMT:getqloc.obj
 0002:000030cc       ??_C@_0BC@NFIEMBLL@Norwegian?9Nynorsk?$AA@ 100460cc     LIBCMT:getqloc.obj
 0002:0000311c       ??_C@_0BI@DFKBFLJE@GetProcessWindowStation?$AA@ 1004611c     LIBCMT:crtmbox.obj
 0002:00003134       ??_C@_0BK@CIDNPOGP@GetUserObjectInformationA?$AA@ 10046134     LIBCMT:crtmbox.obj
 0002:00003150       ??_C@_0BD@HHGDFDBJ@GetLastActivePopup?$AA@ 10046150     LIBCMT:crtmbox.obj
 0002:00003164       ??_C@_0BA@HNOPNCHB@GetActiveWindow?$AA@ 10046164     LIBCMT:crtmbox.obj
 0002:00003174       ??_C@_0M@CHKKJDAI@MessageBoxA?$AA@ 10046174     LIBCMT:crtmbox.obj
 0002:00003180       ??_C@_0L@NDEGIDAG@USER32?4DLL?$AA@ 10046180     LIBCMT:crtmbox.obj
 0002:0000318c       ??_C@_0BK@CFCOFLF@?5Complete?5Object?5Locator?8?$AA@ 1004618c     LIBCMT:undname.obj
 0002:000031a8       ??_C@_0BN@MECKDCOJ@?5Class?5Hierarchy?5Descriptor?8?$AA@ 100461a8     LIBCMT:undname.obj
 0002:000031c8       ??_C@_0BD@LGICGFMM@?5Base?5Class?5Array?8?$AA@ 100461c8     LIBCMT:undname.obj
 0002:000031dc       ??_C@_0BM@LDKODKLH@?5Base?5Class?5Descriptor?5at?5?$CI?$AA@ 100461dc     LIBCMT:undname.obj
 0002:000031f8       ??_C@_0BC@DAFEJGAK@?5Type?5Descriptor?8?$AA@ 100461f8     LIBCMT:undname.obj
 0002:0000320c       ??_C@_0BM@PMGGMLDN@?$GAlocal?5static?5thread?5guard?8?$AA@ 1004620c     LIBCMT:undname.obj
 0002:00003228       ??_C@_0CL@FGIJHLCE@?$GAmanaged?5vector?5copy?5constructor@ 10046228     LIBCMT:undname.obj
 0002:00003254       ??_C@_0CJ@GJELGAMM@?$GAvector?5vbase?5copy?5constructor?5i@ 10046254     LIBCMT:undname.obj
 0002:00003280       ??_C@_0CD@CGAJBKEJ@?$GAvector?5copy?5constructor?5iterato@ 10046280     LIBCMT:undname.obj
 0002:000032a4       ??_C@_0CB@PDBIFEP@?$GAdynamic?5atexit?5destructor?5for?5?8@ 100462a4     LIBCMT:undname.obj
 0002:000032c8       ??_C@_0BL@CLIPGLGB@?$GAdynamic?5initializer?5for?5?8?$AA@ 100462c8     LIBCMT:undname.obj
 0002:000032e4       ??_C@_0CM@FCBBDIGB@?$GAeh?5vector?5vbase?5copy?5constructo@ 100462e4     LIBCMT:undname.obj
 0002:00003310       ??_C@_0CG@HLDDJMAG@?$GAeh?5vector?5copy?5constructor?5iter@ 10046310     LIBCMT:undname.obj
 0002:00003338       ??_C@_0CF@IMGKMJNO@?$GAmanaged?5vector?5destructor?5itera@ 10046338     LIBCMT:undname.obj
 0002:00003360       ??_C@_0CG@CFDHKGGD@?$GAmanaged?5vector?5constructor?5iter@ 10046360     LIBCMT:undname.obj
 0002:00003388       ??_C@_0BN@CKNJLHMB@?$GAplacement?5delete?$FL?$FN?5closure?8?$AA@ 10046388     LIBCMT:undname.obj
 0002:000033a8       ??_C@_0BL@CNOONJFP@?$GAplacement?5delete?5closure?8?$AA@ 100463a8     LIBCMT:undname.obj
 0002:000033c4       ??_C@_0P@HJKNJFNN@?$GAomni?5callsig?8?$AA@ 100463c4     LIBCMT:undname.obj
 0002:000033d4       ??_C@_09LBNFPBCA@?5delete?$FL?$FN?$AA@ 100463d4     LIBCMT:undname.obj
 0002:000033e0       ??_C@_06FHBGPFGH@?5new?$FL?$FN?$AA@ 100463e0     LIBCMT:undname.obj
 0002:000033e8       ??_C@_0CE@IIHCMGGL@?$GAlocal?5vftable?5constructor?5closu@ 100463e8     LIBCMT:undname.obj
 0002:0000340c       ??_C@_0BA@KKLDJDLB@?$GAlocal?5vftable?8?$AA@ 1004640c     LIBCMT:undname.obj
 0002:0000341c       ??_C@_05KHLCHHI@?$GARTTI?$AA@ 1004641c     LIBCMT:undname.obj
 0002:00003424       ??_C@_03KLGMFNMG@?$GAEH?$AA@ 10046424     LIBCMT:undname.obj
 0002:00003428       ??_C@_0BA@KBCDOMBN@?$GAudt?5returning?8?$AA@ 10046428     LIBCMT:undname.obj
 0002:00003438       ??_C@_0BL@LLKPOHJI@?$GAcopy?5constructor?5closure?8?$AA@ 10046438     LIBCMT:undname.obj
 0002:00003454       ??_C@_0CH@OOJPLCPH@?$GAeh?5vector?5vbase?5constructor?5ite@ 10046454     LIBCMT:undname.obj
 0002:0000347c       ??_C@_0CA@GCEOPDGL@?$GAeh?5vector?5destructor?5iterator?8?$AA@ 1004647c     LIBCMT:undname.obj
 0002:0000349c       ??_C@_0CB@JONCMFFK@?$GAeh?5vector?5constructor?5iterator?8@ 1004649c     LIBCMT:undname.obj
 0002:000034c0       ??_C@_0BL@NILFHHPC@?$GAvirtual?5displacement?5map?8?$AA@ 100464c0     LIBCMT:undname.obj
 0002:000034dc       ??_C@_0CE@IKBNEHA@?$GAvector?5vbase?5constructor?5iterat@ 100464dc     LIBCMT:undname.obj
 0002:00003500       ??_C@_0BN@LFPFMEDL@?$GAvector?5destructor?5iterator?8?$AA@ 10046500     LIBCMT:undname.obj
 0002:00003520       ??_C@_0BO@PFGOCPJJ@?$GAvector?5constructor?5iterator?8?$AA@ 10046520     LIBCMT:undname.obj
 0002:00003540       ??_C@_0BN@IMDCHIKM@?$GAscalar?5deleting?5destructor?8?$AA@ 10046540     LIBCMT:undname.obj
 0002:00003560       ??_C@_0BO@OBMKPJIG@?$GAdefault?5constructor?5closure?8?$AA@ 10046560     LIBCMT:undname.obj
 0002:00003580       ??_C@_0BN@DEGPLNFK@?$GAvector?5deleting?5destructor?8?$AA@ 10046580     LIBCMT:undname.obj
 0002:000035a0       ??_C@_0BD@JDLKDPAB@?$GAvbase?5destructor?8?$AA@ 100465a0     LIBCMT:undname.obj
 0002:000035b4       ??_C@_08OBABFOLI@?$GAstring?8?$AA@ 100465b4     LIBCMT:undname.obj
 0002:000035c0       ??_C@_0BF@KDPPACIK@?$GAlocal?5static?5guard?8?$AA@ 100465c0     LIBCMT:undname.obj
 0002:000035d8       ??_C@_08LLFFHHDJ@?$GAtypeof?8?$AA@ 100465d8     LIBCMT:undname.obj
 0002:000035e4       ??_C@_07FEEIOKP@?$GAvcall?8?$AA@ 100465e4     LIBCMT:undname.obj
 0002:000035ec       ??_C@_09BLBHBJP@?$GAvbtable?8?$AA@ 100465ec     LIBCMT:undname.obj
 0002:000035f8       ??_C@_09IFPLHPGF@?$GAvftable?8?$AA@ 100465f8     LIBCMT:undname.obj
 0002:00003604       ??_C@_02MHEGNOJ@?$FO?$DN?$AA@ 10046604     LIBCMT:undname.obj
 0002:00003608       ??_C@_02DHLNPPGH@?$HM?$DN?$AA@ 10046608     LIBCMT:undname.obj
 0002:0000360c       ??_C@_02FGJGFEAB@?$CG?$DN?$AA@ 1004660c     LIBCMT:undname.obj
 0002:00003610       ??_C@_03CDNPDDLA@?$DM?$DM?$DN?$AA@ 10046610     LIBCMT:undname.obj
 0002:00003614       ??_C@_03IKFCCPFF@?$DO?$DO?$DN?$AA@ 10046614     LIBCMT:undname.obj
 0002:00003618       ??_C@_02FENAOKFI@?$CF?$DN?$AA@ 10046618     LIBCMT:undname.obj
 0002:0000361c       ??_C@_02FJEHGPIO@?1?$DN?$AA@ 1004661c     LIBCMT:undname.obj
 0002:00003620       ??_C@_02FKMDLLOA@?9?$DN?$AA@ 10046620     LIBCMT:undname.obj
 0002:00003624       ??_C@_02FOEOMHFC@?$CL?$DN?$AA@ 10046624     LIBCMT:undname.obj
 0002:00003628       ??_C@_02FPIMKNGF@?$CK?$DN?$AA@ 10046628     LIBCMT:undname.obj
 0002:0000362c       ??_C@_02NONPIBCD@?$HM?$HM?$AA@ 1004662c     LIBCMT:undname.obj
 0002:00003630       ??_C@_02PPKAJPJL@?$CG?$CG?$AA@ 10046630     LIBCMT:undname.obj
 0002:00003634       ??_C@_01DNKMNLPK@?$HM?$AA@ 10046634     LIBCMT:undname.obj
 0002:00003638       ??_C@_01JKBOJNNK@?$FO?$AA@ 10046638     LIBCMT:undname.obj
 0002:0000363c       ??_C@_01PJKLJHI@?$HO?$AA@  1004663c     LIBCMT:undname.obj
 0002:00003640       ??_C@_02HCKGKOFO@?$CI?$CJ?$AA@ 10046640     LIBCMT:undname.obj
 0002:00003644       ??_C@_02EEKDKGMJ@?$DO?$DN?$AA@ 10046644     LIBCMT:undname.obj
 0002:00003648       ??_C@_01PPODPGHN@?$DO?$AA@ 10046648     LIBCMT:undname.obj
 0002:0000364c       ??_C@_02EHCHHCKH@?$DM?$DN?$AA@ 1004664c     LIBCMT:undname.obj
 0002:00003650       ??_C@_01MNNFJEPP@?$DM?$AA@ 10046650     LIBCMT:undname.obj
 0002:00003654       ??_C@_01FGNFDNOH@?$CF?$AA@ 10046654     LIBCMT:undname.obj
 0002:00003658       ??_C@_03MNHNFDLC@?9?$DO?$CK?$AA@ 10046658     LIBCMT:undname.obj
 0002:0000365c       ??_C@_01HNPIGOCE@?$CG?$AA@ 1004665c     LIBCMT:undname.obj
 0002:00003660       ??_C@_01MIFGBAGJ@?$CL?$AA@ 10046660     LIBCMT:undname.obj
 0002:00003664       ??_C@_01JOAMLHOP@?9?$AA@   10046664     LIBCMT:undname.obj
 0002:00003668       ??_C@_02BAABKJLB@?9?9?$AA@ 10046668     LIBCMT:undname.obj
 0002:0000366c       ??_C@_02ECNGHCIF@?$CL?$CL?$AA@ 1004666c     LIBCMT:undname.obj
 0002:00003670       ??_C@_02HBOOOICD@?9?$DO?$AA@ 10046670     LIBCMT:undname.obj
 0002:00003674       ??_C@_08LHJFAFGD@operator?$AA@ 10046674     LIBCMT:undname.obj
 0002:00003680       ??_C@_02FDNJECIE@?$CB?$DN?$AA@ 10046680     LIBCMT:undname.obj
 0002:00003684       ??_C@_02EGOFBIJA@?$DN?$DN?$AA@ 10046684     LIBCMT:undname.obj
 0002:00003688       ??_C@_01DCLJPIOD@?$CB?$AA@ 10046688     LIBCMT:undname.obj
 0002:0000368c       ??_C@_02FODMEDOG@?$DM?$DM?$AA@ 1004668c     LIBCMT:undname.obj
 0002:00003690       ??_C@_02GPIOPFAK@?$DO?$DO?$AA@ 10046690     LIBCMT:undname.obj
 0002:00003694       ??_C@_07FPCDHGMM@?5delete?$AA@ 10046694     LIBCMT:undname.obj
 0002:0000369c       ??_C@_04NIHEBCM@?5new?$AA@ 1004669c     LIBCMT:undname.obj
 0002:000036a4       ??_C@_0M@GFIIJFMG@__unaligned?$AA@ 100466a4     LIBCMT:undname.obj
 0002:000036b0       ??_C@_0L@PILCLIHE@__restrict?$AA@ 100466b0     LIBCMT:undname.obj
 0002:000036bc       ??_C@_07JOMMBBKO@__ptr64?$AA@ 100466bc     LIBCMT:undname.obj
 0002:000036c4       ??_C@_09HIJEGCPM@__clrcall?$AA@ 100466c4     LIBCMT:undname.obj
 0002:000036d0       ??_C@_0L@JMKHOMEK@__fastcall?$AA@ 100466d0     LIBCMT:undname.obj
 0002:000036dc       ??_C@_0L@NPHFGOKO@__thiscall?$AA@ 100466dc     LIBCMT:undname.obj
 0002:000036e8       ??_C@_09IFJBGAPI@__stdcall?$AA@ 100466e8     LIBCMT:undname.obj
 0002:000036f4       ??_C@_08GHMPAG@__pascal?$AA@ 100466f4     LIBCMT:undname.obj
 0002:00003700       ??_C@_07KOLFKCDI@__cdecl?$AA@ 10046700     LIBCMT:undname.obj
 0002:00003708       ??_C@_08EHJDFFNH@__based?$CI?$AA@ 10046708     LIBCMT:undname.obj
 0002:00003898       ??_C@_07GPDNMNG@CONOUT$?$AA@ 10046898     LIBCMT:initcon.obj
 0002:000038a0       ??_C@_06IMKFLFPG@1?$CDQNAN?$AA@ 100468a0     LIBCMT:x10fout.obj
 0002:000038a8       ??_C@_05DNEBIAHO@1?$CDINF?$AA@ 100468a8     LIBCMT:x10fout.obj
 0002:000038b0       ??_C@_05PHHOCPM@1?$CDIND?$AA@ 100468b0     LIBCMT:x10fout.obj
 0002:000038b8       ??_C@_06PGGFOGJG@1?$CDSNAN?$AA@ 100468b8     LIBCMT:x10fout.obj
 0002:000038c0       _GUID_ATLVer30             100468c0     atls:atlbase.obj
 0002:000038d0       _GUID_ATLVer70             100468d0     atls:atlbase.obj
 0002:000038e0       __sz_OLEACC_dll            100468e0     oleacc:OLEACC.dll
 0002:000038ec       ??_C@_0P@GHFPNOJB@bad?5allocation?$AA@ 100468ec     CommonFrameMain.obj
 0002:000038fc       ??_C@_01GFHCPBMG@C?$AA@    100468fc     CommonFrameMain.obj
 0002:00003900       ??_C@_0BF@PHHKMMFD@ios_base?3?3badbit?5set?$AA@ 10046900     CommonFrameMain.obj
 0002:00003918       ??_C@_0BG@FMKFHCIL@ios_base?3?3failbit?5set?$AA@ 10046918     CommonFrameMain.obj
 0002:00003930       ??_C@_0BF@OOHOMBOF@ios_base?3?3eofbit?5set?$AA@ 10046930     CommonFrameMain.obj
 0002:00003948       ??_C@_01JLIPDDHJ@?3?$AA@   10046948     CommonFrameMain.obj
 0002:0000394c       ??_C@_0BF@JCAHNBGK@?$LJ?$LJ?T?l?5CommonFrameMain?$AA@ 1004694c     CommonFrameMain.obj
 0002:00003964       ??_C@_03EFKIOLOJ@123?$AA@  10046964     CommonFrameMain.obj
 0002:00003968       ??_C@_0BD@MPHDFIDM@filePathConfig?4txt?$AA@ 10046968     CommonFrameMain.obj
 0002:0000397c       ??_C@_0CE@BKKFGOGG@?$FL?$CDCommonFrameMain?$CD?$FN?5read?5?$CFs?5fail@ 1004697c     CommonFrameMain.obj
 0002:000039a0       ??_C@_0P@OMKKIJNA@begin?5load?5lib?$AA@ 100469a0     CommonFrameMain.obj
 0002:000039b0       ??_C@_0N@HHEALGPJ@?E?d?V?C?N?D?$LM?$PO?D?Z?H?$NN?$AA@ 100469b0     CommonFrameMain.obj
 0002:000039c0       ??_C@_0N@HDEPKPNO@?E?d?V?C?$LN?b?N?v?J?$KH?$LA?$NM?$AA@ 100469c0     CommonFrameMain.obj
 0002:000039d0       ??_C@_0N@IGHFAHKD@?E?d?V?C?$LN?b?N?v?$LD?I?$LJ?$KG?$AA@ 100469d0     CommonFrameMain.obj
 0002:000039e0       ??_C@_06GCOBGCMM@?2?$CK?4dll?$AA@ 100469e0     CommonFrameMain.obj
 0002:000039e8       ??_C@_01LFCBOECM@?4?$AA@   100469e8     CommonFrameMain.obj
 0002:000039ec       ??_C@_02DJGKEECL@?4?4?$AA@ 100469ec     CommonFrameMain.obj
 0002:000039f0       ??_C@_04CLJHFACG@?4zip?$AA@ 100469f0     CommonFrameMain.obj
 0002:000039f8       ??_C@_04PHGNBECP@?4tar?$AA@ 100469f8     CommonFrameMain.obj
 0002:00003a00       ??_C@_05CEBDJIEE@?4dll?4?$AA@ 10046a00     CommonFrameMain.obj
 0002:00003a08       ??_C@_04HLONOPDM@?4dll?$AA@ 10046a08     CommonFrameMain.obj
 0002:00003a10       ??_C@_0M@IJKADJAM@?4?4?2loadLib?2?$AA@ 10046a10     CommonFrameMain.obj
 0002:00003a1c       ??_C@_0DG@EDBGGKMB@?$FL?$CDCommonFrameMain?3?3tryUpdateDLL?$CD@ 10046a1c     CommonFrameMain.obj
 0002:00003a54       ??_C@_0BD@KIKODNDL@find?5upd?5file?5end?6?$AA@ 10046a54     CommonFrameMain.obj
 0002:00003a68       ??_C@_06FEEMFPKK@?$CFs?0?$CFd?6?$AA@ 10046a68     CommonFrameMain.obj
 0002:00003a70       ??_C@_0BF@IOJPPOAM@check?5upd?5state?5end?6?$AA@ 10046a70     CommonFrameMain.obj
 0002:00003a88       ??_C@_0P@LOEBACNF@start?5update?5?6?$AA@ 10046a88     CommonFrameMain.obj
 0002:00003a98       ??_C@_07HEBPEBJK@?4dllbak?$AA@ 10046a98     CommonFrameMain.obj
 0002:00003aa0       ??_C@_00CNPNBAHC@?$AA@     10046aa0     CommonFrameMain.obj
 0002:00003aa4       ??_C@_04NDFOBODE@code?$AA@ 10046aa4     CommonFrameMain.obj
 0002:00003aac       ??_C@_06KJFADLGN@result?$AA@ 10046aac     CommonFrameMain.obj
 0002:00003ab4       ??_C@_0P@OIAAEDEN@updateflag?4txt?$AA@ 10046ab4     CommonFrameMain.obj
 0002:00003ac4       ??_C@_02DPKJAMEF@?$CFd?$AA@ 10046ac4     CommonFrameMain.obj
 0002:00003ac8       ??_C@_0M@NBBCBFGN@getInstance?$AA@ 10046ac8     CommonFrameMain.obj
 0002:00003ad4       ??_C@_0DO@NFALPFJD@The?5commpents?5must?5surrport?5getI@ 10046ad4     CommonFrameMain.obj
 0002:00003b14       ??_C@_04KCBHKNCH@?J?$KH?$LA?$NM?$AA@ 10046b14     CommonFrameMain.obj
 0002:00003b1c       ??_C@_04BLGKCJHL@?$LM?S?T?X?$AA@ 10046b1c     CommonFrameMain.obj
 0002:00003b24       ??_C@_04FHCNAFFK@?$LD?I?$LJ?$KG?$AA@ 10046b24     CommonFrameMain.obj
 0002:00003b2c       ??_C@_0BI@OAGKBAOP@can?8t?5load?5fileName?$DN?$CFs?6?$AA@ 10046b2c     CommonFrameMain.obj
 0002:00003b44       ??_C@_0CN@BJHGILKN@commpents?5have?5loaded?0?$CFs?5can?8t?5l@ 10046b44     CommonFrameMain.obj
 0002:00003b74       ??_C@_03OFAPEBGM@?$CFs?6?$AA@ 10046b74     CommonFrameMain.obj
 0002:00003b78       ??_C@_0BD@CJKACLEC@twsdnetpaycore?4dll?$AA@ 10046b78     CommonFrameMain.obj
 0002:00003b8c       ??_C@_0L@IOMPCALJ@IF_Destroy?$AA@ 10046b8c     CommonFrameMain.obj
 0002:00003b98       ??_C@_0BM@FLEGPGD@start?5unload?5commpents?5?$CFs?4?6?$AA@ 10046b98     CommonFrameMain.obj
 0002:00003bb4       ??_C@_0P@GCEOBNMG@deleteInstance?$AA@ 10046bb4     CommonFrameMain.obj
 0002:00003bc4       ??_C@_0CN@LPKNBIEJ@the?5commpents?5has?5not?5load?5or?5ha@ 10046bc4     CommonFrameMain.obj
 0002:00003bf4       ??_C@_0N@DGBDCGFM@?$LG?A?H?$KB?N?D?$LM?$PO?E?d?V?C?$AA@ 10046bf4     CommonFrameMain.obj
 0002:00003c04       ??_C@_0P@ENPPOOMN@?$LN?x?P?P?$LD?u?J?$LM?$LL?$KP?$LC?Y?W?w?$AA@ 10046c04     CommonFrameMain.obj
 0002:00003c14       ??_C@_0BL@CGAANKB@before?5into?5InitUpdateCore?$AA@ 10046c14     CommonFrameMain.obj
 0002:00003c30       ??_C@_0BD@OOJGBCDF@IF_InitEnvironment?$AA@ 10046c30     CommonFrameMain.obj
 0002:00003c44       ??_C@_08HCOPOJGO@init?3?$CFs?6?$AA@ 10046c44     CommonFrameMain.obj
 0002:00003c50       ??_C@_0O@HJLAAEPL@init?3?$LP?$KK?J?$LM?$LF?w?S?C?$AA@ 10046c50     CommonFrameMain.obj
 0002:00003c60       ??_C@_0BC@OFAJMMBI@init?3?$LL?q?H?$KB?$LF?X?V?$LH?J?$KH?$LA?$NM?$AA@ 10046c60     CommonFrameMain.obj
 0002:00003c74       ??_C@_0BF@PPMBKOB@before?5step?5into?5ITC?$AA@ 10046c74     CommonFrameMain.obj
 0002:00003c8c       ??_C@_0BF@GMPCGBBP@before?5step?5into?5LPR?$AA@ 10046c8c     CommonFrameMain.obj
 0002:00003ca4       ??_C@_07PEEDPFGE@IF_Init?$AA@ 10046ca4     CommonFrameMain.obj
 0002:00003cac       ??_C@_0BI@BLBECHIC@before?5step?5into?5assign?$AA@ 10046cac     CommonFrameMain.obj
 0002:00003cc4       ??_C@_0O@JGCAEPKC@before?5return?$AA@ 10046cc4     CommonFrameMain.obj
 0002:00003cd4       ??_C@_0BE@LLCNAGEA@IF_InitEnvironment2?$AA@ 10046cd4     CommonFrameMain.obj
 0002:00003ce8       ??_C@_0BE@KCDGDHAB@IF_InitEnvironment3?$AA@ 10046ce8     CommonFrameMain.obj
 0002:00003cfc       ??_C@_0BE@ONHHKBMG@IF_InitEnvironment4?$AA@ 10046cfc     CommonFrameMain.obj
 0002:00003d10       ??_C@_0BE@FCEKJBGB@IF_GetLastErrorDesc?$AA@ 10046d10     CommonFrameMain.obj
 0002:00003d24       ??_C@_0BH@HHBLBDED@IF_StartGetAccountInfo?$AA@ 10046d24     CommonFrameMain.obj
 0002:00003d3c       ??_C@_0BG@LKMPDNMC@IF_StopGetAccountInfo?$AA@ 10046d3c     CommonFrameMain.obj
 0002:00003d54       ??_C@_0BC@BBDHMBGF@IF_GetAccountInfo?$AA@ 10046d54     CommonFrameMain.obj
 0002:00003d68       ??_C@_0O@KFNJPEDL@IF_DebitMoney?$AA@ 10046d68     CommonFrameMain.obj
 0002:00003d78       ??_C@_0P@CCIEALJO@IF_DebitCancel?$AA@ 10046d78     CommonFrameMain.obj
 0002:00003d88       ??_C@_0BA@PKOFGODJ@IF_DebitCancel2?$AA@ 10046d88     CommonFrameMain.obj
 0002:00003d98       ??_C@_0BC@FODCEOPB@IF_GetDebitResult?$AA@ 10046d98     CommonFrameMain.obj
 0002:00003dac       ??_C@_09CJIFGBPH@IF_SetMMI?$AA@ 10046dac     CommonFrameMain.obj
 0002:00003db8       ??_C@_0M@JFHBAEFB@IF_GetParam?$AA@ 10046db8     CommonFrameMain.obj
 0002:00003dc4       ??_C@_0BG@FMFOGNLP@IF_GetComponentStatus?$AA@ 10046dc4     CommonFrameMain.obj
 0002:00003ddc       ??_C@_0BB@CMFDFJA@IF_TranslateData?$AA@ 10046ddc     CommonFrameMain.obj
 0002:00003df0       ??_C@_0BD@MBCJABEF@IF_GetCancelResult?$AA@ 10046df0     CommonFrameMain.obj
 0002:00003e04       ??_C@_0BB@LGMCNENL@IF_TransferImage?$AA@ 10046e04     CommonFrameMain.obj
 0002:00003e18       ??_C@_0BE@KEPDPEE@IF_AgencyDebitQuery?$AA@ 10046e18     CommonFrameMain.obj
 0002:00003e2c       ??_C@_0O@LJIBEKMG@CommonBus?4dll?$AA@ 10046e2c     CommonFrameMain.obj
 0002:00003e3c       ??_C@_0BA@KEAIFCNI@GenerateMainBus?$AA@ 10046e3c     CommonFrameMain.obj
 0002:00003e4c       ??_C@_0BA@KLPKCCM@send2Bus_Target?$AA@ 10046e4c     CommonFrameMain.obj
 0002:00003e5c       ??_C@_0BE@LCOFPGM@register2Bus_Target?$AA@ 10046e5c     CommonFrameMain.obj
 0002:00003e70       ??_C@_0BG@KGGHENBG@unRegister2Bus_Target?$AA@ 10046e70     CommonFrameMain.obj
 0002:00003e88       ??_C@_0BB@FOAHOCBI@IF_ITCEntryTrade?$AA@ 10046e88     CommonFrameMain.obj
 0002:00003e9c       ??_C@_0BB@MNFELKHD@IF_ITCEntryQuery?$AA@ 10046e9c     CommonFrameMain.obj
 0002:00003eb0       ??_C@_0BA@IEOLDGGI@IF_ITCExitQuery?$AA@ 10046eb0     CommonFrameMain.obj
 0002:00003ec0       ??_C@_0BA@BHLIGOAD@IF_ITCExitTrade?$AA@ 10046ec0     CommonFrameMain.obj
 0002:00003ed0       ??_C@_0BA@FFHGDPAC@IF_ITCQueryPath?$AA@ 10046ed0     CommonFrameMain.obj
 0002:00003ee0       ??_C@_0BB@JDFOAHOD@IF_GetServerTime?$AA@ 10046ee0     CommonFrameMain.obj
 0002:00003ef4       ??_C@_0BG@MBFMCL@IF_CompletionTicketNo?$AA@ 10046ef4     CommonFrameMain.obj
 0002:00003f0c       ??_C@_0BE@BMKJGDJM@IF_SetVehicleStatus?$AA@ 10046f0c     CommonFrameMain.obj
 0002:00003f20       ??_C@_0BB@CPFMJCFL@IF_PrinterTicket?$AA@ 10046f20     CommonFrameMain.obj
 0002:00003f34       ??_C@_0BA@NKEHIBOB@IF_ReadCardInfo?$AA@ 10046f34     CommonFrameMain.obj
 0002:00003f44       ??_C@_0BB@MKFHCOMP@IF_WriteCardInfo?$AA@ 10046f44     CommonFrameMain.obj
 0002:00003f58       ??_C@_0BI@HKEAAFGJ@IF_TMP_SetUnipayEncrypt?$AA@ 10046f58     CommonFrameMain.obj
 0002:00003f70       ??_C@_0BJ@MFLOBOJO@IF_QueryVirtualCardDebit?$AA@ 10046f70     CommonFrameMain.obj
 0002:00003f8c       ??_C@_0BG@HCOEIEOA@IF_AuditPayIdenfitier?$AA@ 10046f8c     CommonFrameMain.obj
 0002:00003fa4       ??_C@_0BC@GFHJINGN@IF_GetAuditResult?$AA@ 10046fa4     CommonFrameMain.obj
 0002:00003fb8       ??_C@_0BI@GPJNIKMI@IF_QueryAgentDebitEtcUp?$AA@ 10046fb8     CommonFrameMain.obj
 0002:00003fd0       ??_C@_0BO@LEMEFNHB@IF_QueryAgentDebitResultEtcUp?$AA@ 10046fd0     CommonFrameMain.obj
 0002:00003ff0       ??_C@_0BD@LBMBFOOE@IF_DebitMoneyEtcUp?$AA@ 10046ff0     CommonFrameMain.obj
 0002:00004004       ??_C@_0BJ@ILJBLAHJ@IF_EventInitEnvironment3?$AA@ 10047004     CommonFrameMain.obj
 0002:00004020       ??_C@_0BA@NIBFLGCG@IF_EventDestroy?$AA@ 10047020     CommonFrameMain.obj
 0002:00004030       ??_C@_0BJ@HLONBGBJ@IF_EventGetLastErrorDesc?$AA@ 10047030     CommonFrameMain.obj
 0002:0000404c       ??_C@_0BL@MIGEKBGF@IF_EventGetComponentStatus?$AA@ 1004704c     CommonFrameMain.obj
 0002:00004068       ??_C@_0BC@NJDIKGML@IF_EventDealStart?$AA@ 10047068     CommonFrameMain.obj
 0002:0000407c       ??_C@_0BG@JGOKPHJI@IF_EventCheckVehQueue?$AA@ 1004707c     CommonFrameMain.obj
 0002:00004094       ??_C@_0BF@LLGEMLMC@IF_EventCheckVehInfo?$AA@ 10047094     CommonFrameMain.obj
 0002:000040ac       ??_C@_0BH@HBAHEJAD@IF_EventCheckEntryInfo?$AA@ 100470ac     CommonFrameMain.obj
 0002:000040c4       ??_C@_0BE@LNPKGALO@IF_EventShowFeeInfo?$AA@ 100470c4     CommonFrameMain.obj
 0002:000040d8       ??_C@_0BJ@GFFFCAOC@IF_EventPayResultDisplay?$AA@ 100470d8     CommonFrameMain.obj
 0002:000040f4       ??_C@_0BB@IBDMONEE@IF_EventDealStop?$AA@ 100470f4     CommonFrameMain.obj
 0002:00004108       ??_C@_0BC@PNBMGEBI@IF_EventStartScan?$AA@ 10047108     CommonFrameMain.obj
 0002:0000411c       ??_C@_0BB@MOLGDHAH@IF_EventStopScan?$AA@ 1004711c     CommonFrameMain.obj
 0002:00004130       ??_C@_0BM@CDBKDCAO@IF_EventCardOperationNotify?$AA@ 10047130     CommonFrameMain.obj
 0002:0000414c       ??_C@_0BH@CNLFNFGC@IF_EventModifyVehQueue?$AA@ 1004714c     CommonFrameMain.obj
 0002:00004164       ??_C@_0BF@HEDKAENC@IF_EventFeeAuthorize?$AA@ 10047164     CommonFrameMain.obj
 0002:0000417c       ??_C@_0BM@PAPJHAGI@invalid?5map?1set?$DMT?$DO?5iterator?$AA@ 1004717c     CommonFrameMain.obj
 0002:00004198       ??_C@_0BE@JONHPENG@map?1set?$DMT?$DO?5too?5long?$AA@ 10047198     CommonFrameMain.obj
 0002:000041ac       ??_C@_0BB@MOGOBHAF@list?$DMT?$DO?5too?5long?$AA@ 100471ac     CommonFrameMain.obj
 0002:000041c0       ??_C@_08EPJLHIJG@bad?5cast?$AA@ 100471c0     CommonFrameMain.obj
 0002:000041d0       ??_7ios_base@std@@6B@      100471d0     CommonFrameMain.obj
 0002:000041d8       ??_7?$basic_ios@DU?$char_traits@D@std@@@std@@6B@ 100471d8     CommonFrameMain.obj
 0002:000041e0       ??_7?$basic_streambuf@DU?$char_traits@D@std@@@std@@6B@ 100471e0     CommonFrameMain.obj
 0002:0000421c       ??_7?$basic_istream@DU?$char_traits@D@std@@@std@@6B@ 1004721c     CommonFrameMain.obj
 0002:00004224       ??_7?$basic_ostream@DU?$char_traits@D@std@@@std@@6B@ 10047224     CommonFrameMain.obj
 0002:0000422c       ??_7?$basic_filebuf@DU?$char_traits@D@std@@@std@@6B@ 1004722c     CommonFrameMain.obj
 0002:00004268       ??_7?$basic_ifstream@DU?$char_traits@D@std@@@std@@6B@ 10047268     CommonFrameMain.obj
 0002:0000426c       ??_8?$basic_ifstream@DU?$char_traits@D@std@@@std@@7B@ 1004726c     CommonFrameMain.obj
 0002:00004278       ??_7?$basic_ofstream@DU?$char_traits@D@std@@@std@@6B@ 10047278     CommonFrameMain.obj
 0002:0000427c       ??_8?$basic_ofstream@DU?$char_traits@D@std@@@std@@7B@ 1004727c     CommonFrameMain.obj
 0002:00004288       ??_7runtime_error@std@@6B@ 10047288     CommonFrameMain.obj
 0002:00004294       ??_7?$ctype@D@std@@6B@     10047294     CommonFrameMain.obj
 0002:000042c4       ??_7failure@ios_base@std@@6B@ 100472c4     CommonFrameMain.obj
 0002:000042d0       ??_7FastWriter@Json@@6B@   100472d0     CommonFrameMain.obj
 0002:000042dc       ??_7CommonFrameMain@@6B@   100472dc     CommonFrameMain.obj
 0002:000042e4       ??_7?$codecvt@DDH@std@@6B@ 100472e4     CommonFrameMain.obj
 0002:00004304       ??_C@_05BMGBEOOC@?$CFs?2?$CFs?$AA@ 10047304     FrameConfigFileOperate.obj
 0002:0000430c       ??_C@_01KDCPPGHE@r?$AA@    1004730c     FrameConfigFileOperate.obj
 0002:00004310       ??_C@_0EL@NHGBNFMD@?$FL?$CDFrameConfigFileOperate?3?3parseF@ 10047310     FrameConfigFileOperate.obj
 0002:0000435c       ??_C@_08HNIAHLMM@download?$AA@ 1004735c     FrameConfigFileOperate.obj
 0002:00004368       ??_C@_07OHCLKBD@loadLib?$AA@ 10047368     FrameConfigFileOperate.obj
 0002:00004370       ??_C@_03LPIGJBNC@lib?$AA@  10047370     FrameConfigFileOperate.obj
 0002:00004374       ??_C@_03MGHMBJCF@log?$AA@  10047374     FrameConfigFileOperate.obj
 0002:00004378       ??_C@_0L@BNMEDINA@netPayPath?$AA@ 10047378     FrameConfigFileOperate.obj
 0002:00004384       ??_C@_08DAEANMJ@twupdate?$AA@ 10047384     FrameConfigFileOperate.obj
 0002:00004390       ??_C@_0BD@MBCKOJHF@filepathconfig?4txt?$AA@ 10047390     FrameConfigFileOperate.obj
 0002:000043a4       ??_C@_07IBAOPFBE@itc?4dll?$AA@ 100473a4     FrameConfigFileOperate.obj
 0002:000043ac       ??_C@_0P@MJLIFAKC@tw_vprctrl?4dll?$AA@ 100473ac     FrameConfigFileOperate.obj
 0002:000043bc       ??_C@_0BB@NFNELCFJ@twupdatecore?4dll?$AA@ 100473bc     FrameConfigFileOperate.obj
 0002:000043d0       ??_C@_0EF@HNOLMHCE@ERROR?3?$FL?$CDConfigFileOperate?3?3parse@ 100473d0     FrameConfigFileOperate.obj
 0002:00004418       ??_C@_0EC@HCHNIDLM@A?5valid?5JSON?5document?5must?5be?5ei@ 10047418     json_reader.obj
 0002:0000445c       ??_C@_0CP@GDDNKEK@Syntax?5error?3?5value?0?5object?5or?5a@ 1004745c     json_reader.obj
 0002:0000448c       ??_C@_03FFDNHNKN@rue?$AA@  1004748c     json_reader.obj
 0002:00004490       ??_C@_04KCECFHEP@alse?$AA@ 10047490     json_reader.obj
 0002:00004498       ??_C@_03KNPGGKC@ull?$AA@   10047498     json_reader.obj
 0002:0000449c       ??_C@_01EEMJAFIK@?6?$AA@   1004749c     json_reader.obj
 0002:000044a0       ??_C@_0CF@GCCDMCPH@Missing?5?8?3?8?5after?5object?5member?5@ 100474a0     json_reader.obj
 0002:000044c8       ??_C@_0CJ@NGKOAFKA@Missing?5?8?0?8?5or?5?8?$HN?8?5in?5object?5dec@ 100474c8     json_reader.obj
 0002:000044f4       ??_C@_0CC@JNCGHFHN@Missing?5?8?$HN?8?5or?5object?5member?5nam@ 100474f4     json_reader.obj
 0002:00004518       ??_C@_0CI@DPCANLPO@Missing?5?8?0?8?5or?5?8?$FN?8?5in?5array?5decl@ 10047518     json_reader.obj
 0002:00004540       ??_C@_0BD@HHNBFDKF@?8?5is?5not?5a?5number?4?$AA@ 10047540     json_reader.obj
 0002:00004554       ??_C@_01GEODFPGF@?8?$AA@   10047554     json_reader.obj
 0002:00004558       ??_C@_03DLDNIBIK@?$CFlf?$AA@ 10047558     json_reader.obj
 0002:0000455c       ??_C@_0CA@DPGKPPOE@Empty?5escape?5sequence?5in?5string?$AA@ 1004755c     json_reader.obj
 0002:0000457c       ??_C@_0BO@NDEEJNNB@Bad?5escape?5sequence?5in?5string?$AA@ 1004757c     json_reader.obj
 0002:000045a0       ??_C@_0EE@LMPEHADE@additional?5six?5characters?5expect@ 100475a0     json_reader.obj
 0002:000045e8       ??_C@_0FA@BGMMPLKB@expecting?5another?5?2u?5token?5to?5be@ 100475e8     json_reader.obj
 0002:00004638       ??_C@_0DN@BPAHJPFJ@Bad?5unicode?5escape?5sequence?5in?5s@ 10047638     json_reader.obj
 0002:00004678       ??_C@_0ED@FIDDECIG@Bad?5unicode?5escape?5sequence?5in?5s@ 10047678     json_reader.obj
 0002:000046bc       ??_C@_0BC@KBDMBKEH@deque?$DMT?$DO?5too?5long?$AA@ 100476bc     json_reader.obj
 0002:000046d0       ??_C@_05LAPONLG@false?$AA@ 100476d0     json_value.obj
 0002:000046d8       ??_C@_04LOAJBDKD@true?$AA@ 100476d8     json_value.obj
 0002:000046e0       ?minInt@Value@Json@@2HB    100476e0     json_value.obj
 0002:000046e4       ?maxInt@Value@Json@@2HB    100476e4     json_value.obj
 0002:000046e8       ?maxUInt@Value@Json@@2IB   100476e8     json_value.obj
 0002:000046ec       ??_C@_0BL@DKGNIMPN@Comments?5must?5start?5with?5?1?$AA@ 100476ec     json_value.obj
 0002:00004708       ??_C@_0CC@BNBMBIGA@Type?5is?5not?5convertible?5to?5strin@ 10047708     json_value.obj
 0002:0000472c       ??_C@_0CE@MKMAPPKF@integer?5out?5of?5signed?5integer?5ra@ 1004772c     json_value.obj
 0002:00004750       ??_C@_0CB@PBEICPFN@Real?5out?5of?5signed?5integer?5range@ 10047750     json_value.obj
 0002:00004774       ??_C@_0BP@KDDCHLKA@Type?5is?5not?5convertible?5to?5int?$AA@ 10047774     json_value.obj
 0002:00004794       ??_C@_0DK@NAHIGMFE@Negative?5integer?5can?5not?5be?5conv@ 10047794     json_value.obj
 0002:000047d0       ??_C@_0CD@PGCLDEBG@Real?5out?5of?5unsigned?5integer?5ran@ 100477d0     json_value.obj
 0002:000047f4       ??_C@_0CA@LEFAEJPN@Type?5is?5not?5convertible?5to?5uint?$AA@ 100477f4     json_value.obj
 0002:00004814       ??_C@_0CC@ICOHKFIF@Type?5is?5not?5convertible?5to?5doubl@ 10047814     json_value.obj
 0002:00004838       ??_C@_0BD@OLBABOEK@vector?$DMT?$DO?5too?5long?$AA@ 10047838     json_value.obj
 0002:00004850       ??_7ValueAllocator@Json@@6B@ 10047850     json_value.obj
 0002:00004868       ??_7DefaultValueAllocator@Json@@6B@ 10047868     json_value.obj
 0002:0000487c       ??_C@_06ECBCCLMB@?$CF?$CD?416g?$AA@ 1004787c     json_writer.obj
 0002:00004884       ??_C@_07FKPPGBGM@?$CC?2?$AI?$AM?6?$AN?7?$AA@ 10047884     json_writer.obj
 0002:0000488c       ??_C@_01BJJEKLCA@?$CC?$AA@ 1004788c     json_writer.obj
 0002:00004890       ??_C@_02MCKKLHBJ@?2?$CC?$AA@ 10047890     json_writer.obj
 0002:00004894       ??_C@_02HDBGODGB@?2?2?$AA@ 10047894     json_writer.obj
 0002:00004898       ??_C@_02DCNDPIBM@?2b?$AA@  10047898     json_writer.obj
 0002:0000489c       ??_C@_02FGLPDNBI@?2f?$AA@  1004789c     json_writer.obj
 0002:000048a0       ??_C@_02JOGGLHBA@?2n?$AA@  100478a0     json_writer.obj
 0002:000048a4       ??_C@_02HIBBOKEN@?2r?$AA@  100478a4     json_writer.obj
 0002:000048a8       ??_C@_02COELENML@?2t?$AA@  100478a8     json_writer.obj
 0002:000048ac       ??_C@_02DHFAHMIK@?2u?$AA@  100478ac     json_writer.obj
 0002:000048b0       ??_C@_04MLLLIHIP@null?$AA@ 100478b0     json_writer.obj
 0002:000048b8       ??_C@_01OHGJGJJP@?$FL?$AA@ 100478b8     json_writer.obj
 0002:000048bc       ??_C@_01IHBHIGKO@?0?$AA@   100478bc     json_writer.obj
 0002:000048c0       ??_C@_01LBDDMOBJ@?$FN?$AA@ 100478c0     json_writer.obj
 0002:000048c4       ??_C@_01HCONENDN@?$HL?$AA@ 100478c4     json_writer.obj
 0002:000048c8       ??_C@_02LMMGGCAJ@?3?5?$AA@ 100478c8     json_writer.obj
 0002:000048cc       ??_C@_01CELHOKLL@?$HN?$AA@ 100478cc     json_writer.obj
 0002:000048d0       ??_C@_02GPECMEKF@?$FL?$FN?$AA@ 100478d0     json_writer.obj
 0002:000048d4       ??_C@_02EAOCLKAK@ld?$AA@   100478d4     json_writer.obj
 0002:000048d8       ??_C@_02BDDLJJBK@lu?$AA@   100478d8     json_writer.obj
 0002:000048dc       ??_C@_02HIKPPMOK@Ld?$AA@   100478dc     json_writer.obj
 0002:000048e0       ??_C@_02CLHGNPPK@Lu?$AA@   100478e0     json_writer.obj
 0002:000048e4       ??_C@_02BBAHNLBA@?$CFp?$AA@ 100478e4     json_writer.obj
 0002:000048e8       ??_C@_01DDCIFGEA@E?$AA@    100478e8     json_writer.obj
 0002:000048ec       ??_C@_01KGKMHCOC@e?$AA@    100478ec     json_writer.obj
 0002:000048f4       ??_7?$basic_stringbuf@DU?$char_traits@D@std@@V?$allocator@D@2@@std@@6B@ 100478f4     json_writer.obj
 0002:00004930       ??_7?$basic_ostringstream@DU?$char_traits@D@std@@V?$allocator@D@2@@std@@6B@ 10047930     json_writer.obj
 0002:00004934       ??_8?$basic_ostringstream@DU?$char_traits@D@std@@V?$allocator@D@2@@std@@7B@ 10047934     json_writer.obj
 0002:00004940       ??_7?$numpunct@D@std@@6B@  10047940     json_writer.obj
 0002:0000495c       ??_7?$num_put@DV?$ostreambuf_iterator@DU?$char_traits@D@std@@@std@@@std@@6B@ 1004795c     json_writer.obj
 0002:00004984       ??_7Writer@Json@@6B@       10047984     json_writer.obj
 0002:0000498c       ??_C@_01KMDKNFGN@?1?$AA@   1004798c     pystring.obj
 0002:00004990       ??_C@_01KICIPPFI@?2?$AA@   10047990     pystring.obj
 0002:00004998       __real@38aa95a5b7f87a0f    10047998      CIL library: CIL module
 0002:000049a0       __real@4202a05f20000000    100479a0      CIL library: CIL module
 0002:000049a8       __real@4733426172c74d82    100479a8      CIL library: CIL module
 0002:000049b0       __real@41f0000000000000    100479b0      CIL library: CIL module
 0002:000049b8       __real@41efffffffe00000    100479b8      CIL library: CIL module
 0002:000049c0       __real@41dfffffffc00000    100479c0      CIL library: CIL module
 0002:000049c8       __real@c1e0000000000000    100479c8      CIL library: CIL module
 0002:000049d0       __load_config_used         100479d0     LIBCMT:loadcfg.obj
 0002:00004a78       ??_R4_AFX_THREAD_STATE@@6B@ 10047a78     nafxcw:afxstate.obj
 0002:00004a8c       ??_R3_AFX_THREAD_STATE@@8  10047a8c     nafxcw:afxstate.obj
 0002:00004a9c       ??_R2_AFX_THREAD_STATE@@8  10047a9c     nafxcw:afxstate.obj
 0002:00004aa8       ??_R1A@?0A@EA@_AFX_THREAD_STATE@@8 10047aa8     nafxcw:afxstate.obj
 0002:00004ac4       ??_R1A@?0A@EA@CNoTrackObject@@8 10047ac4     nafxcw:afxstate.obj
 0002:00004ae0       ??_R3CNoTrackObject@@8     10047ae0     nafxcw:afxstate.obj
 0002:00004af0       ??_R2CNoTrackObject@@8     10047af0     nafxcw:afxstate.obj
 0002:00004af8       ??_R4AFX_MODULE_THREAD_STATE@@6B@ 10047af8     nafxcw:afxstate.obj
 0002:00004b0c       ??_R3AFX_MODULE_THREAD_STATE@@8 10047b0c     nafxcw:afxstate.obj
 0002:00004b1c       ??_R2AFX_MODULE_THREAD_STATE@@8 10047b1c     nafxcw:afxstate.obj
 0002:00004b28       ??_R1A@?0A@EA@AFX_MODULE_THREAD_STATE@@8 10047b28     nafxcw:afxstate.obj
 0002:00004b44       ??_R4AFX_MODULE_STATE@@6B@ 10047b44     nafxcw:afxstate.obj
 0002:00004b58       ??_R3AFX_MODULE_STATE@@8   10047b58     nafxcw:afxstate.obj
 0002:00004b68       ??_R2AFX_MODULE_STATE@@8   10047b68     nafxcw:afxstate.obj
 0002:00004b74       ??_R1A@?0A@EA@AFX_MODULE_STATE@@8 10047b74     nafxcw:afxstate.obj
 0002:00004b90       ??_R4CDllIsolationWrapperBase@@6B@ 10047b90     nafxcw:afxstate.obj
 0002:00004ba4       ??_R3CDllIsolationWrapperBase@@8 10047ba4     nafxcw:afxstate.obj
 0002:00004bb4       ??_R2CDllIsolationWrapperBase@@8 10047bb4     nafxcw:afxstate.obj
 0002:00004bc0       ??_R1A@?0A@EA@CDllIsolationWrapperBase@@8 10047bc0     nafxcw:afxstate.obj
 0002:00004bdc       ??_R4CComCtlWrapper@@6B@   10047bdc     nafxcw:afxstate.obj
 0002:00004bf0       ??_R3CComCtlWrapper@@8     10047bf0     nafxcw:afxstate.obj
 0002:00004c00       ??_R2CComCtlWrapper@@8     10047c00     nafxcw:afxstate.obj
 0002:00004c10       ??_R1A@?0A@EA@CComCtlWrapper@@8 10047c10     nafxcw:afxstate.obj
 0002:00004c2c       ??_R4CCommDlgWrapper@@6B@  10047c2c     nafxcw:afxstate.obj
 0002:00004c40       ??_R3CCommDlgWrapper@@8    10047c40     nafxcw:afxstate.obj
 0002:00004c50       ??_R2CCommDlgWrapper@@8    10047c50     nafxcw:afxstate.obj
 0002:00004c60       ??_R1A@?0A@EA@CCommDlgWrapper@@8 10047c60     nafxcw:afxstate.obj
 0002:00004c7c       ??_R4_AFX_BASE_MODULE_STATE@@6B@ 10047c7c     nafxcw:afxstate.obj
 0002:00004c90       ??_R3_AFX_BASE_MODULE_STATE@@8 10047c90     nafxcw:afxstate.obj
 0002:00004ca0       ??_R2_AFX_BASE_MODULE_STATE@@8 10047ca0     nafxcw:afxstate.obj
 0002:00004cb0       ??_R1A@?0A@EA@_AFX_BASE_MODULE_STATE@@8 10047cb0     nafxcw:afxstate.obj
 0002:00004ccc       ??_R4COleException@@6B@    10047ccc     nafxcw:olemisc.obj
 0002:00004ce0       ??_R3COleException@@8      10047ce0     nafxcw:olemisc.obj
 0002:00004cf0       ??_R2COleException@@8      10047cf0     nafxcw:olemisc.obj
 0002:00004d00       ??_R1A@?0A@EA@COleException@@8 10047d00     nafxcw:olemisc.obj
 0002:00004d1c       ??_R1A@?0A@EA@CException@@8 10047d1c     nafxcw:olemisc.obj
 0002:00004d38       ??_R3CException@@8         10047d38     nafxcw:olemisc.obj
 0002:00004d48       ??_R2CException@@8         10047d48     nafxcw:olemisc.obj
 0002:00004d54       ??_R1A@?0A@EA@CObject@@8   10047d54     nafxcw:olemisc.obj
 0002:00004d70       ??_R3CObject@@8            10047d70     nafxcw:olemisc.obj
 0002:00004d80       ??_R2CObject@@8            10047d80     nafxcw:olemisc.obj
 0002:00004d88       ??_R4CMemoryException@@6B@ 10047d88     nafxcw:except.obj
 0002:00004d9c       ??_R3CMemoryException@@8   10047d9c     nafxcw:except.obj
 0002:00004dac       ??_R2CMemoryException@@8   10047dac     nafxcw:except.obj
 0002:00004dc0       ??_R1A@?0A@EA@CMemoryException@@8 10047dc0     nafxcw:except.obj
 0002:00004ddc       ??_R1A@?0A@EA@CSimpleException@@8 10047ddc     nafxcw:except.obj
 0002:00004df8       ??_R3CSimpleException@@8   10047df8     nafxcw:except.obj
 0002:00004e08       ??_R2CSimpleException@@8   10047e08     nafxcw:except.obj
 0002:00004e18       ??_R4CNotSupportedException@@6B@ 10047e18     nafxcw:except.obj
 0002:00004e2c       ??_R3CNotSupportedException@@8 10047e2c     nafxcw:except.obj
 0002:00004e3c       ??_R2CNotSupportedException@@8 10047e3c     nafxcw:except.obj
 0002:00004e50       ??_R1A@?0A@EA@CNotSupportedException@@8 10047e50     nafxcw:except.obj
 0002:00004e6c       ??_R4CInvalidArgException@@6B@ 10047e6c     nafxcw:except.obj
 0002:00004e80       ??_R3CInvalidArgException@@8 10047e80     nafxcw:except.obj
 0002:00004e90       ??_R2CInvalidArgException@@8 10047e90     nafxcw:except.obj
 0002:00004ea4       ??_R1A@?0A@EA@CInvalidArgException@@8 10047ea4     nafxcw:except.obj
 0002:00004ec0       ??_R4CAfxStringMgr@@6B@    10047ec0     nafxcw:strcore.obj
 0002:00004ed4       ??_R3CAfxStringMgr@@8      10047ed4     nafxcw:strcore.obj
 0002:00004ee4       ??_R2CAfxStringMgr@@8      10047ee4     nafxcw:strcore.obj
 0002:00004ef0       ??_R1A@?0A@EA@CAfxStringMgr@@8 10047ef0     nafxcw:strcore.obj
 0002:00004f0c       ??_R1A@?0A@EA@IAtlStringMgr@ATL@@8 10047f0c     nafxcw:strcore.obj
 0002:00004f28       ??_R3IAtlStringMgr@ATL@@8  10047f28     nafxcw:strcore.obj
 0002:00004f38       ??_R2IAtlStringMgr@ATL@@8  10047f38     nafxcw:strcore.obj
 0002:00004f40       ??_R4CThreadData@@6B@      10047f40     nafxcw:afxtls.obj
 0002:00004f54       ??_R3CThreadData@@8        10047f54     nafxcw:afxtls.obj
 0002:00004f64       ??_R2CThreadData@@8        10047f64     nafxcw:afxtls.obj
 0002:00004f70       ??_R1A@?0A@EA@CThreadData@@8 10047f70     nafxcw:afxtls.obj
 0002:00004f8c       ??_R1A@?0A@EA@CCmdTarget@@8 10047f8c     nafxcw:thrdcore.obj
 0002:00004fa8       ??_R3CCmdTarget@@8         10047fa8     nafxcw:thrdcore.obj
 0002:00004fb8       ??_R2CCmdTarget@@8         10047fb8     nafxcw:thrdcore.obj
 0002:00004fc4       ??_R4CHandleMap@@6B@       10047fc4     nafxcw:winhand.obj
 0002:00004fd8       ??_R3CHandleMap@@8         10047fd8     nafxcw:winhand.obj
 0002:00004fe8       ??_R2CHandleMap@@8         10047fe8     nafxcw:winhand.obj
 0002:00004ff0       ??_R1A@?0A@EA@CHandleMap@@8 10047ff0     nafxcw:winhand.obj
 0002:0000500c       ??_R4CMapPtrToPtr@@6B@     1004800c     nafxcw:map_pp.obj
 0002:00005020       ??_R3CMapPtrToPtr@@8       10048020     nafxcw:map_pp.obj
 0002:00005030       ??_R2CMapPtrToPtr@@8       10048030     nafxcw:map_pp.obj
 0002:0000503c       ??_R1A@?0A@EA@CMapPtrToPtr@@8 1004803c     nafxcw:map_pp.obj
 0002:00005058       ??_R1A@?0A@EA@IUnknown@@8  10048058     nafxcw:oleunk.obj
 0002:00005074       ??_R3IUnknown@@8           10048074     nafxcw:oleunk.obj
 0002:00005084       ??_R2IUnknown@@8           10048084     nafxcw:oleunk.obj
 0002:0000508c       ??_R4CArchiveException@@6B@ 1004808c     nafxcw:arcex.obj
 0002:000050a0       ??_R3CArchiveException@@8  100480a0     nafxcw:arcex.obj
 0002:000050b0       ??_R2CArchiveException@@8  100480b0     nafxcw:arcex.obj
 0002:000050c0       ??_R1A@?0A@EA@CArchiveException@@8 100480c0     nafxcw:arcex.obj
 0002:000050dc       ??_R4CCmdUI@@6B@           100480dc     nafxcw:cmdtarg.obj
 0002:000050f0       ??_R3CCmdUI@@8             100480f0     nafxcw:cmdtarg.obj
 0002:00005100       ??_R2CCmdUI@@8             10048100     nafxcw:cmdtarg.obj
 0002:00005108       ??_R1A@?0A@EA@CCmdUI@@8    10048108     nafxcw:cmdtarg.obj
 0002:00005124       ??_R4XAccessible@CWnd@@6B@ 10048124     nafxcw:wincore.obj
 0002:00005138       ??_R3XAccessible@CWnd@@8   10048138     nafxcw:wincore.obj
 0002:00005148       ??_R2XAccessible@CWnd@@8   10048148     nafxcw:wincore.obj
 0002:00005150       ??_R1A@?0A@EA@XAccessible@CWnd@@8 10048150     nafxcw:wincore.obj
 0002:0000516c       ??_R4XAccessibleServer@CWnd@@6B@ 1004816c     nafxcw:wincore.obj
 0002:00005180       ??_R3XAccessibleServer@CWnd@@8 10048180     nafxcw:wincore.obj
 0002:00005190       ??_R2XAccessibleServer@CWnd@@8 10048190     nafxcw:wincore.obj
 0002:00005198       ??_R1A@?0A@EA@XAccessibleServer@CWnd@@8 10048198     nafxcw:wincore.obj
 0002:000051b4       ??_R4CWnd@@6B@             100481b4     nafxcw:wincore.obj
 0002:000051c8       ??_R3CWnd@@8               100481c8     nafxcw:wincore.obj
 0002:000051d8       ??_R2CWnd@@8               100481d8     nafxcw:wincore.obj
 0002:000051e8       ??_R1A@?0A@EA@CWnd@@8      100481e8     nafxcw:wincore.obj
 0002:00005204       ??_R4CTestCmdUI@@6B@       10048204     nafxcw:wincore.obj
 0002:00005218       ??_R3CTestCmdUI@@8         10048218     nafxcw:wincore.obj
 0002:00005228       ??_R2CTestCmdUI@@8         10048228     nafxcw:wincore.obj
 0002:00005234       ??_R1A@?0A@EA@CTestCmdUI@@8 10048234     nafxcw:wincore.obj
 0002:00005250       ??_R4_AFX_HTMLHELP_STATE@@6B@ 10048250     nafxcw:wincore.obj
 0002:00005264       ??_R3_AFX_HTMLHELP_STATE@@8 10048264     nafxcw:wincore.obj
 0002:00005274       ??_R2_AFX_HTMLHELP_STATE@@8 10048274     nafxcw:wincore.obj
 0002:00005280       ??_R1A@?0A@EA@_AFX_HTMLHELP_STATE@@8 10048280     nafxcw:wincore.obj
 0002:0000529c       ??_R3?$IAccessibleProxyImpl@VCAccessibleProxy@ATL@@@ATL@@8 1004829c     nafxcw:wincore.obj
 0002:000052ac       ??_R2?$IAccessibleProxyImpl@VCAccessibleProxy@ATL@@@ATL@@8 100482ac     nafxcw:wincore.obj
 0002:000052c8       ??_R1A@?0A@EA@?$IAccessibleProxyImpl@VCAccessibleProxy@ATL@@@ATL@@8 100482c8     nafxcw:wincore.obj
 0002:000052e4       ??_R1A@?0A@EA@IAccessible@@8 100482e4     nafxcw:wincore.obj
 0002:00005300       ??_R3IAccessible@@8        10048300     nafxcw:wincore.obj
 0002:00005310       ??_R2IAccessible@@8        10048310     nafxcw:wincore.obj
 0002:00005320       ??_R1A@?0A@EA@IDispatch@@8 10048320     nafxcw:wincore.obj
 0002:0000533c       ??_R3IDispatch@@8          1004833c     nafxcw:wincore.obj
 0002:0000534c       ??_R2IDispatch@@8          1004834c     nafxcw:wincore.obj
 0002:00005358       ??_R1A@?0A@EC@IUnknown@@8  10048358     nafxcw:wincore.obj
 0002:00005374       ??_R13?0A@EA@IAccessibleProxy@@8 10048374     nafxcw:wincore.obj
 0002:00005390       ??_R3IAccessibleProxy@@8   10048390     nafxcw:wincore.obj
 0002:000053a0       ??_R2IAccessibleProxy@@8   100483a0     nafxcw:wincore.obj
 0002:000053ac       ??_R1A@?0A@EA@IAccessibleProxy@@8 100483ac     nafxcw:wincore.obj
 0002:000053c8       ??_R13?0A@EC@IUnknown@@8   100483c8     nafxcw:wincore.obj
 0002:000053e4       ??_R4?$CMFCComObject@VCAccessibleProxy@ATL@@@@6BIAccessible@@@ 100483e4     nafxcw:wincore.obj
 0002:000053f8       ??_R3?$CMFCComObject@VCAccessibleProxy@ATL@@@@8 100483f8     nafxcw:wincore.obj
 0002:00005408       ??_R2?$CMFCComObject@VCAccessibleProxy@ATL@@@@8 10048408     nafxcw:wincore.obj
 0002:0000543c       ??_R1A@?0A@EA@?$CMFCComObject@VCAccessibleProxy@ATL@@@@8 1004843c     nafxcw:wincore.obj
 0002:00005458       ??_R1A@?0A@EA@CAccessibleProxy@ATL@@8 10048458     nafxcw:wincore.obj
 0002:00005474       ??_R3CAccessibleProxy@ATL@@8 10048474     nafxcw:wincore.obj
 0002:00005484       ??_R2CAccessibleProxy@ATL@@8 10048484     nafxcw:wincore.obj
 0002:000054b4       ??_R1BE@?0A@EA@?$CComObjectRootEx@VCComSingleThreadModel@ATL@@@ATL@@8 100484b4     nafxcw:wincore.obj
 0002:000054d0       ??_R3?$CComObjectRootEx@VCComSingleThreadModel@ATL@@@ATL@@8 100484d0     nafxcw:wincore.obj
 0002:000054e0       ??_R2?$CComObjectRootEx@VCComSingleThreadModel@ATL@@@ATL@@8 100484e0     nafxcw:wincore.obj
 0002:000054ec       ??_R1A@?0A@EA@?$CComObjectRootEx@VCComSingleThreadModel@ATL@@@ATL@@8 100484ec     nafxcw:wincore.obj
 0002:00005508       ??_R1A@?0A@EA@CComObjectRootBase@ATL@@8 10048508     nafxcw:wincore.obj
 0002:00005524       ??_R3CComObjectRootBase@ATL@@8 10048524     nafxcw:wincore.obj
 0002:00005534       ??_R2CComObjectRootBase@ATL@@8 10048534     nafxcw:wincore.obj
 0002:0000553c       ??_R1BE@?0A@EA@CComObjectRootBase@ATL@@8 1004853c     nafxcw:wincore.obj
 0002:00005558       ??_R1BA@?0A@EA@IOleWindow@@8 10048558     nafxcw:wincore.obj
 0002:00005574       ??_R3IOleWindow@@8         10048574     nafxcw:wincore.obj
 0002:00005584       ??_R2IOleWindow@@8         10048584     nafxcw:wincore.obj
 0002:00005590       ??_R1A@?0A@EA@IOleWindow@@8 10048590     nafxcw:wincore.obj
 0002:000055ac       ??_R1BA@?0A@EC@IUnknown@@8 100485ac     nafxcw:wincore.obj
 0002:000055c8       ??_R4?$CMFCComObject@VCAccessibleProxy@ATL@@@@6BIAccessibleProxy@@@ 100485c8     nafxcw:wincore.obj
 0002:000055dc       ??_R4?$CMFCComObject@VCAccessibleProxy@ATL@@@@6B@ 100485dc     nafxcw:wincore.obj
 0002:000055f0       ??_R4CResourceException@@6B@ 100485f0     nafxcw:wingdi.obj
 0002:00005604       ??_R3CResourceException@@8 10048604     nafxcw:wingdi.obj
 0002:00005614       ??_R2CResourceException@@8 10048614     nafxcw:wingdi.obj
 0002:00005628       ??_R1A@?0A@EA@CResourceException@@8 10048628     nafxcw:wingdi.obj
 0002:00005644       ??_R4CUserException@@6B@   10048644     nafxcw:wingdi.obj
 0002:00005658       ??_R3CUserException@@8     10048658     nafxcw:wingdi.obj
 0002:00005668       ??_R2CUserException@@8     10048668     nafxcw:wingdi.obj
 0002:0000567c       ??_R1A@?0A@EA@CUserException@@8 1004867c     nafxcw:wingdi.obj
 0002:00005698       ??_R4CGdiObject@@6B@       10048698     nafxcw:wingdi.obj
 0002:000056ac       ??_R3CGdiObject@@8         100486ac     nafxcw:wingdi.obj
 0002:000056bc       ??_R2CGdiObject@@8         100486bc     nafxcw:wingdi.obj
 0002:000056c8       ??_R1A@?0A@EA@CGdiObject@@8 100486c8     nafxcw:wingdi.obj
 0002:000056e4       ??_R4CDC@@6B@              100486e4     nafxcw:wingdi.obj
 0002:000056f8       ??_R3CDC@@8                100486f8     nafxcw:wingdi.obj
 0002:00005708       ??_R2CDC@@8                10048708     nafxcw:wingdi.obj
 0002:00005714       ??_R1A@?0A@EA@CDC@@8       10048714     nafxcw:wingdi.obj
 0002:00005730       ??_R4CByteArray@@6B@       10048730     nafxcw:array_b.obj
 0002:00005744       ??_R3CByteArray@@8         10048744     nafxcw:array_b.obj
 0002:00005754       ??_R2CByteArray@@8         10048754     nafxcw:array_b.obj
 0002:00005760       ??_R1A@?0A@EA@CByteArray@@8 10048760     nafxcw:array_b.obj
 0002:0000577c       ??_R4CMenu@@6B@            1004877c     nafxcw:winmenu.obj
 0002:00005790       ??_R3CMenu@@8              10048790     nafxcw:winmenu.obj
 0002:000057a0       ??_R2CMenu@@8              100487a0     nafxcw:winmenu.obj
 0002:000057ac       ??_R1A@?0A@EA@CMenu@@8     100487ac     nafxcw:winmenu.obj
 0002:000057c8       ??_R4_Locimp@locale@std@@6B@ 100487c8     libcpmt:locale0.obj
 0002:000057dc       ??_R3_Locimp@locale@std@@8 100487dc     libcpmt:locale0.obj
 0002:000057ec       ??_R2_Locimp@locale@std@@8 100487ec     libcpmt:locale0.obj
 0002:000057f8       ??_R1A@?0A@EA@_Locimp@locale@std@@8 100487f8     libcpmt:locale0.obj
 0002:00005814       ??_R4exception@std@@6B@    10048814     LIBCMT:stdexcpt.obj
 0002:00005828       ??_R4bad_cast@std@@6B@     10048828     LIBCMT:stdexcpt.obj
 0002:0000583c       ??_R3bad_cast@std@@8       1004883c     LIBCMT:stdexcpt.obj
 0002:0000584c       ??_R2bad_cast@std@@8       1004884c     LIBCMT:stdexcpt.obj
 0002:00005858       ??_R1A@?0A@EA@bad_cast@std@@8 10048858     LIBCMT:stdexcpt.obj
 0002:00005874       ??_R4type_info@@6B@        10048874     LIBCMT:typinfo.obj
 0002:00005888       ??_R3type_info@@8          10048888     LIBCMT:typinfo.obj
 0002:00005898       ??_R2type_info@@8          10048898     LIBCMT:typinfo.obj
 0002:000058a0       ??_R1A@?0A@EA@type_info@@8 100488a0     LIBCMT:typinfo.obj
 0002:000058bc       ??_R4bad_exception@std@@6B@ 100488bc     LIBCMT:frame.obj
 0002:000058d0       ??_R3bad_exception@std@@8  100488d0     LIBCMT:frame.obj
 0002:000058e0       ??_R2bad_exception@std@@8  100488e0     LIBCMT:frame.obj
 0002:000058ec       ??_R1A@?0A@EA@bad_exception@std@@8 100488ec     LIBCMT:frame.obj
 0002:00005908       ??_R4?$codecvt@DDH@std@@6B@ 10048908     CommonFrameMain.obj
 0002:0000591c       ??_R3?$codecvt@DDH@std@@8  1004891c     CommonFrameMain.obj
 0002:0000592c       ??_R2?$codecvt@DDH@std@@8  1004892c     CommonFrameMain.obj
 0002:0000593c       ??_R1A@?0A@EA@?$codecvt@DDH@std@@8 1004893c     CommonFrameMain.obj
 0002:00005958       ??_R4CommonFrameMain@@6B@  10048958     CommonFrameMain.obj
 0002:0000596c       ??_R3CommonFrameMain@@8    1004896c     CommonFrameMain.obj
 0002:0000597c       ??_R2CommonFrameMain@@8    1004897c     CommonFrameMain.obj
 0002:00005984       ??_R1A@?0A@EA@CommonFrameMain@@8 10048984     CommonFrameMain.obj
 0002:000059a0       ??_R4FastWriter@Json@@6B@  100489a0     CommonFrameMain.obj
 0002:000059b4       ??_R3FastWriter@Json@@8    100489b4     CommonFrameMain.obj
 0002:000059c4       ??_R2FastWriter@Json@@8    100489c4     CommonFrameMain.obj
 0002:000059d0       ??_R1A@?0A@EA@Writer@Json@@8 100489d0     CommonFrameMain.obj
 0002:000059ec       ??_R3Writer@Json@@8        100489ec     CommonFrameMain.obj
 0002:000059fc       ??_R2Writer@Json@@8        100489fc     CommonFrameMain.obj
 0002:00005a04       ??_R1A@?0A@EA@FastWriter@Json@@8 10048a04     CommonFrameMain.obj
 0002:00005a20       ??_R4failure@ios_base@std@@6B@ 10048a20     CommonFrameMain.obj
 0002:00005a34       ??_R3failure@ios_base@std@@8 10048a34     CommonFrameMain.obj
 0002:00005a44       ??_R2failure@ios_base@std@@8 10048a44     CommonFrameMain.obj
 0002:00005a54       ??_R1A@?0A@EA@failure@ios_base@std@@8 10048a54     CommonFrameMain.obj
 0002:00005a70       ??_R4?$ctype@D@std@@6B@    10048a70     CommonFrameMain.obj
 0002:00005a84       ??_R3?$ctype@D@std@@8      10048a84     CommonFrameMain.obj
 0002:00005a94       ??_R2?$ctype@D@std@@8      10048a94     CommonFrameMain.obj
 0002:00005aa4       ??_R1A@?0A@EA@?$ctype@D@std@@8 10048aa4     CommonFrameMain.obj
 0002:00005ac0       ??_R3ctype_base@std@@8     10048ac0     CommonFrameMain.obj
 0002:00005ad0       ??_R2ctype_base@std@@8     10048ad0     CommonFrameMain.obj
 0002:00005adc       ??_R1A@?0A@EA@ctype_base@std@@8 10048adc     CommonFrameMain.obj
 0002:00005af8       ??_R3codecvt_base@std@@8   10048af8     CommonFrameMain.obj
 0002:00005b08       ??_R2codecvt_base@std@@8   10048b08     CommonFrameMain.obj
 0002:00005b14       ??_R1A@?0A@EA@codecvt_base@std@@8 10048b14     CommonFrameMain.obj
 0002:00005b30       ??_R4facet@locale@std@@6B@ 10048b30     CommonFrameMain.obj
 0002:00005b44       ??_R3facet@locale@std@@8   10048b44     CommonFrameMain.obj
 0002:00005b54       ??_R2facet@locale@std@@8   10048b54     CommonFrameMain.obj
 0002:00005b5c       ??_R1A@?0A@EA@facet@locale@std@@8 10048b5c     CommonFrameMain.obj
 0002:00005b78       ??_R4runtime_error@std@@6B@ 10048b78     CommonFrameMain.obj
 0002:00005b8c       ??_R3runtime_error@std@@8  10048b8c     CommonFrameMain.obj
 0002:00005b9c       ??_R2runtime_error@std@@8  10048b9c     CommonFrameMain.obj
 0002:00005ba8       ??_R1A@?0A@EA@runtime_error@std@@8 10048ba8     CommonFrameMain.obj
 0002:00005bc4       ??_R4out_of_range@std@@6B@ 10048bc4     CommonFrameMain.obj
 0002:00005bd8       ??_R3out_of_range@std@@8   10048bd8     CommonFrameMain.obj
 0002:00005be8       ??_R2out_of_range@std@@8   10048be8     CommonFrameMain.obj
 0002:00005bf8       ??_R1A@?0A@EA@out_of_range@std@@8 10048bf8     CommonFrameMain.obj
 0002:00005c14       ??_R4length_error@std@@6B@ 10048c14     CommonFrameMain.obj
 0002:00005c28       ??_R3length_error@std@@8   10048c28     CommonFrameMain.obj
 0002:00005c38       ??_R2length_error@std@@8   10048c38     CommonFrameMain.obj
 0002:00005c48       ??_R1A@?0A@EA@length_error@std@@8 10048c48     CommonFrameMain.obj
 0002:00005c64       ??_R4logic_error@std@@6B@  10048c64     CommonFrameMain.obj
 0002:00005c78       ??_R3logic_error@std@@8    10048c78     CommonFrameMain.obj
 0002:00005c88       ??_R2logic_error@std@@8    10048c88     CommonFrameMain.obj
 0002:00005c94       ??_R1A@?0A@EA@logic_error@std@@8 10048c94     CommonFrameMain.obj
 0002:00005cb0       ??_R4?$basic_ofstream@DU?$char_traits@D@std@@@std@@6B@ 10048cb0     CommonFrameMain.obj
 0002:00005cc4       ??_R3?$basic_ofstream@DU?$char_traits@D@std@@@std@@8 10048cc4     CommonFrameMain.obj
 0002:00005cd4       ??_R2?$basic_ofstream@DU?$char_traits@D@std@@@std@@8 10048cd4     CommonFrameMain.obj
 0002:00005cec       ??_R1A@?0A@EA@?$basic_ofstream@DU?$char_traits@D@std@@@std@@8 10048cec     CommonFrameMain.obj
 0002:00005d08       ??_R4?$basic_ifstream@DU?$char_traits@D@std@@@std@@6B@ 10048d08     CommonFrameMain.obj
 0002:00005d1c       ??_R3?$basic_ifstream@DU?$char_traits@D@std@@@std@@8 10048d1c     CommonFrameMain.obj
 0002:00005d2c       ??_R2?$basic_ifstream@DU?$char_traits@D@std@@@std@@8 10048d2c     CommonFrameMain.obj
 0002:00005d44       ??_R1A@?0A@EA@?$basic_ifstream@DU?$char_traits@D@std@@@std@@8 10048d44     CommonFrameMain.obj
 0002:00005d60       ??_R4?$basic_filebuf@DU?$char_traits@D@std@@@std@@6B@ 10048d60     CommonFrameMain.obj
 0002:00005d74       ??_R3?$basic_filebuf@DU?$char_traits@D@std@@@std@@8 10048d74     CommonFrameMain.obj
 0002:00005d84       ??_R2?$basic_filebuf@DU?$char_traits@D@std@@@std@@8 10048d84     CommonFrameMain.obj
 0002:00005d90       ??_R1A@?0A@EA@?$basic_filebuf@DU?$char_traits@D@std@@@std@@8 10048d90     CommonFrameMain.obj
 0002:00005dac       ??_R4?$basic_ostream@DU?$char_traits@D@std@@@std@@6B@ 10048dac     CommonFrameMain.obj
 0002:00005dc0       ??_R3?$basic_ostream@DU?$char_traits@D@std@@@std@@8 10048dc0     CommonFrameMain.obj
 0002:00005dd0       ??_R2?$basic_ostream@DU?$char_traits@D@std@@@std@@8 10048dd0     CommonFrameMain.obj
 0002:00005de4       ??_R1A@?0A@EA@?$basic_ostream@DU?$char_traits@D@std@@@std@@8 10048de4     CommonFrameMain.obj
 0002:00005e00       ??_R4?$basic_istream@DU?$char_traits@D@std@@@std@@6B@ 10048e00     CommonFrameMain.obj
 0002:00005e14       ??_R3?$basic_istream@DU?$char_traits@D@std@@@std@@8 10048e14     CommonFrameMain.obj
 0002:00005e24       ??_R2?$basic_istream@DU?$char_traits@D@std@@@std@@8 10048e24     CommonFrameMain.obj
 0002:00005e38       ??_R13A@3EA@?$_Iosb@H@std@@8 10048e38     CommonFrameMain.obj
 0002:00005e54       ??_R1A@A@3EA@ios_base@std@@8 10048e54     CommonFrameMain.obj
 0002:00005e70       ??_R1A@A@3FA@?$basic_ios@DU?$char_traits@D@std@@@std@@8 10048e70     CommonFrameMain.obj
 0002:00005e8c       ??_R1A@?0A@EA@?$basic_istream@DU?$char_traits@D@std@@@std@@8 10048e8c     CommonFrameMain.obj
 0002:00005ea8       ??_R4?$basic_streambuf@DU?$char_traits@D@std@@@std@@6B@ 10048ea8     CommonFrameMain.obj
 0002:00005ebc       ??_R3?$basic_streambuf@DU?$char_traits@D@std@@@std@@8 10048ebc     CommonFrameMain.obj
 0002:00005ecc       ??_R2?$basic_streambuf@DU?$char_traits@D@std@@@std@@8 10048ecc     CommonFrameMain.obj
 0002:00005ed4       ??_R1A@?0A@EA@?$basic_streambuf@DU?$char_traits@D@std@@@std@@8 10048ed4     CommonFrameMain.obj
 0002:00005ef0       ??_R4?$basic_ios@DU?$char_traits@D@std@@@std@@6B@ 10048ef0     CommonFrameMain.obj
 0002:00005f04       ??_R3?$basic_ios@DU?$char_traits@D@std@@@std@@8 10048f04     CommonFrameMain.obj
 0002:00005f14       ??_R2?$basic_ios@DU?$char_traits@D@std@@@std@@8 10048f14     CommonFrameMain.obj
 0002:00005f24       ??_R1A@?0A@EA@?$basic_ios@DU?$char_traits@D@std@@@std@@8 10048f24     CommonFrameMain.obj
 0002:00005f40       ??_R4ios_base@std@@6B@     10048f40     CommonFrameMain.obj
 0002:00005f54       ??_R3ios_base@std@@8       10048f54     CommonFrameMain.obj
 0002:00005f64       ??_R2ios_base@std@@8       10048f64     CommonFrameMain.obj
 0002:00005f70       ??_R13?0A@EA@?$_Iosb@H@std@@8 10048f70     CommonFrameMain.obj
 0002:00005f8c       ??_R3?$_Iosb@H@std@@8      10048f8c     CommonFrameMain.obj
 0002:00005f9c       ??_R2?$_Iosb@H@std@@8      10048f9c     CommonFrameMain.obj
 0002:00005fa4       ??_R1A@?0A@EA@?$_Iosb@H@std@@8 10048fa4     CommonFrameMain.obj
 0002:00005fc0       ??_R1A@?0A@EA@ios_base@std@@8 10048fc0     CommonFrameMain.obj
 0002:00005fdc       ??_R4bad_alloc@std@@6B@    10048fdc     CommonFrameMain.obj
 0002:00005ff0       ??_R3bad_alloc@std@@8      10048ff0     CommonFrameMain.obj
 0002:00006000       ??_R2bad_alloc@std@@8      10049000     CommonFrameMain.obj
 0002:0000600c       ??_R1A@?0A@EA@exception@std@@8 1004900c     CommonFrameMain.obj
 0002:00006028       ??_R3exception@std@@8      10049028     CommonFrameMain.obj
 0002:00006038       ??_R2exception@std@@8      10049038     CommonFrameMain.obj
 0002:00006040       ??_R1A@?0A@EA@bad_alloc@std@@8 10049040     CommonFrameMain.obj
 0002:0000605c       ??_R4DefaultValueAllocator@Json@@6B@ 1004905c     json_value.obj
 0002:00006070       ??_R3DefaultValueAllocator@Json@@8 10049070     json_value.obj
 0002:00006080       ??_R2DefaultValueAllocator@Json@@8 10049080     json_value.obj
 0002:0000608c       ??_R1A@?0A@EA@DefaultValueAllocator@Json@@8 1004908c     json_value.obj
 0002:000060a8       ??_R4ValueAllocator@Json@@6B@ 100490a8     json_value.obj
 0002:000060bc       ??_R3ValueAllocator@Json@@8 100490bc     json_value.obj
 0002:000060cc       ??_R2ValueAllocator@Json@@8 100490cc     json_value.obj
 0002:000060d4       ??_R1A@?0A@EA@ValueAllocator@Json@@8 100490d4     json_value.obj
 0002:000060f0       ??_R4Writer@Json@@6B@      100490f0     json_writer.obj
 0002:00006104       ??_R4?$num_put@DV?$ostreambuf_iterator@DU?$char_traits@D@std@@@std@@@std@@6B@ 10049104     json_writer.obj
 0002:00006118       ??_R3?$num_put@DV?$ostreambuf_iterator@DU?$char_traits@D@std@@@std@@@std@@8 10049118     json_writer.obj
 0002:00006128       ??_R2?$num_put@DV?$ostreambuf_iterator@DU?$char_traits@D@std@@@std@@@std@@8 10049128     json_writer.obj
 0002:00006134       ??_R1A@?0A@EA@?$num_put@DV?$ostreambuf_iterator@DU?$char_traits@D@std@@@std@@@std@@8 10049134     json_writer.obj
 0002:00006150       ??_R4?$numpunct@D@std@@6B@ 10049150     json_writer.obj
 0002:00006164       ??_R3?$numpunct@D@std@@8   10049164     json_writer.obj
 0002:00006174       ??_R2?$numpunct@D@std@@8   10049174     json_writer.obj
 0002:00006180       ??_R1A@?0A@EA@?$numpunct@D@std@@8 10049180     json_writer.obj
 0002:0000619c       ??_R4?$basic_ostringstream@DU?$char_traits@D@std@@V?$allocator@D@2@@std@@6B@ 1004919c     json_writer.obj
 0002:000061b0       ??_R3?$basic_ostringstream@DU?$char_traits@D@std@@V?$allocator@D@2@@std@@8 100491b0     json_writer.obj
 0002:000061c0       ??_R2?$basic_ostringstream@DU?$char_traits@D@std@@V?$allocator@D@2@@std@@8 100491c0     json_writer.obj
 0002:000061d8       ??_R1A@?0A@EA@?$basic_ostringstream@DU?$char_traits@D@std@@V?$allocator@D@2@@std@@8 100491d8     json_writer.obj
 0002:000061f4       ??_R4?$basic_stringbuf@DU?$char_traits@D@std@@V?$allocator@D@2@@std@@6B@ 100491f4     json_writer.obj
 0002:00006208       ??_R3?$basic_stringbuf@DU?$char_traits@D@std@@V?$allocator@D@2@@std@@8 10049208     json_writer.obj
 0002:00006218       ??_R2?$basic_stringbuf@DU?$char_traits@D@std@@V?$allocator@D@2@@std@@8 10049218     json_writer.obj
 0002:00006224       ??_R1A@?0A@EA@?$basic_stringbuf@DU?$char_traits@D@std@@V?$allocator@D@2@@std@@8 10049224     json_writer.obj
 0002:00006240       ___safe_se_handler_table   10049240     <linker-defined>
 0002:000064e0       ___rtc_iaa                 100494e0     LIBCMT:initsect.obj
 0002:000064e4       ___rtc_izz                 100494e4     LIBCMT:initsect.obj
 0002:000064e8       ___rtc_taa                 100494e8     LIBCMT:initsect.obj
 0002:000064ec       ___rtc_tzz                 100494ec     LIBCMT:initsect.obj
 0002:000065c8       __TI4PAVCOleException@@    100495c8     nafxcw:olemisc.obj
 0002:000065d8       __CTA4PAVCOleException@@   100495d8     nafxcw:olemisc.obj
 0002:000065ec       __CT??_R0PAVCOleException@@@84 100495ec     nafxcw:olemisc.obj
 0002:00006608       __CT??_R0PAVCException@@@84 10049608     nafxcw:olemisc.obj
 0002:00006624       __CT??_R0PAVCObject@@@84   10049624     nafxcw:olemisc.obj
 0002:00006640       __CT??_R0PAX@84            10049640     nafxcw:olemisc.obj
 0002:0000665c       __TI5PAVCMemoryException@@ 1004965c     nafxcw:except.obj
 0002:0000666c       __CTA5PAVCMemoryException@@ 1004966c     nafxcw:except.obj
 0002:00006684       __CT??_R0PAVCMemoryException@@@84 10049684     nafxcw:except.obj
 0002:000066a0       __CT??_R0PAVCSimpleException@@@84 100496a0     nafxcw:except.obj
 0002:000066bc       __TI5PAVCInvalidArgException@@ 100496bc     nafxcw:except.obj
 0002:000066cc       __CTA5PAVCInvalidArgException@@ 100496cc     nafxcw:except.obj
 0002:000066e4       __CT??_R0PAVCInvalidArgException@@@84 100496e4     nafxcw:except.obj
 0002:00006acc       __TI4PAVCArchiveException@@ 10049acc     nafxcw:arcex.obj
 0002:00006b08       __CTA4PAVCArchiveException@@ 10049b08     nafxcw:arcex.obj
 0002:00006b1c       __CT??_R0PAVCArchiveException@@@84 10049b1c     nafxcw:arcex.obj
 0002:00006f7c       __TI5PAVCUserException@@   10049f7c     nafxcw:wingdi.obj
 0002:00006f8c       __CTA5PAVCUserException@@  10049f8c     nafxcw:wingdi.obj
 0002:00006fa4       __CT??_R0PAVCUserException@@@84 10049fa4     nafxcw:wingdi.obj
 0002:000075fc       __TI2?AVbad_exception@std@@ 1004a5fc     LIBCMT:frame.obj
 0002:0000760c       __CTA2?AVbad_exception@std@@ 1004a60c     LIBCMT:frame.obj
 0002:00007618       __CT??_R0?AVbad_exception@std@@@8??0bad_exception@std@@QAE@ABV01@@Z12 1004a618     LIBCMT:frame.obj
 0002:000079e4       __CT??_R0?AVruntime_error@std@@@8??0runtime_error@std@@QAE@ABV01@@Z40 1004a9e4     CommonFrameMain.obj
 0002:00007a00       __CT??_R0?AVexception@std@@@8??0exception@std@@QAE@ABV01@@Z12 1004aa00     CommonFrameMain.obj
 0002:00007a1c       __CTA2?AVruntime_error@std@@ 1004aa1c     CommonFrameMain.obj
 0002:00007a28       __TI2?AVruntime_error@std@@ 1004aa28     CommonFrameMain.obj
 0002:00007a38       __CT??_R0?AVout_of_range@std@@@8??0out_of_range@std@@QAE@ABV01@@Z40 1004aa38     CommonFrameMain.obj
 0002:00007a54       __CT??_R0?AVlogic_error@std@@@8??0logic_error@std@@QAE@ABV01@@Z40 1004aa54     CommonFrameMain.obj
 0002:00007a70       __CTA3?AVout_of_range@std@@ 1004aa70     CommonFrameMain.obj
 0002:00007a80       __TI3?AVout_of_range@std@@ 1004aa80     CommonFrameMain.obj
 0002:00007a90       __CT??_R0?AVfailure@ios_base@std@@@8??0failure@ios_base@std@@QAE@ABV012@@Z40 1004aa90     CommonFrameMain.obj
 0002:00007aac       __CTA3?AVfailure@ios_base@std@@ 1004aaac     CommonFrameMain.obj
 0002:00007abc       __TI3?AVfailure@ios_base@std@@ 1004aabc     CommonFrameMain.obj
 0002:00007acc       __CT??_R0?AVlength_error@std@@@8??0length_error@std@@QAE@ABV01@@Z40 1004aacc     CommonFrameMain.obj
 0002:00007ae8       __CTA3?AVlength_error@std@@ 1004aae8     CommonFrameMain.obj
 0002:00007af8       __TI3?AVlength_error@std@@ 1004aaf8     CommonFrameMain.obj
 0002:00007b08       __CT??_R0?AVbad_cast@std@@@8??0bad_cast@std@@QAE@ABV01@@Z12 1004ab08     CommonFrameMain.obj
 0002:00007b24       __CTA2?AVbad_cast@std@@    1004ab24     CommonFrameMain.obj
 0002:00007b30       __TI2?AVbad_cast@std@@     1004ab30     CommonFrameMain.obj
 0002:00007b40       __CT??_R0?AVbad_alloc@std@@@8??0bad_alloc@std@@QAE@ABV01@@Z12 1004ab40     CommonFrameMain.obj
 0002:00007b5c       __CTA2?AVbad_alloc@std@@   1004ab5c     CommonFrameMain.obj
 0002:00007b68       __TI2?AVbad_alloc@std@@    1004ab68     CommonFrameMain.obj
 0002:00009e8c       __DELAY_IMPORT_DESCRIPTOR_OLEACC_dll 1004ce8c     oleacc:OLEACC.dll
 0002:00009eac       __NULL_DELAY_IMPORT_DESCRIPTOR 1004ceac     oleacc:OLEACC.dll
 0002:00009ed4       \177OLEACC_NULL_THUNK_DATA_DLN 1004ced4     oleacc:OLEACC.dll
 0002:00009f0c       \177OLEACC_NULL_THUNK_DATA_DLB 1004cf0c     oleacc:OLEACC.dll
 0002:00009f14       __IMPORT_DESCRIPTOR_KERNEL32 1004cf14     kernel32:KERNEL32.dll
 0002:00009f28       __IMPORT_DESCRIPTOR_USER32 1004cf28     user32:USER32.dll
 0002:00009f3c       __IMPORT_DESCRIPTOR_GDI32  1004cf3c     gdi32:GDI32.dll
 0002:00009f50       __IMPORT_DESCRIPTOR_WINSPOOL 1004cf50     winspool:WINSPOOL.DRV
 0002:00009f64       __IMPORT_DESCRIPTOR_SHLWAPI 1004cf64     shlwapi:SHLWAPI.dll
 0002:00009f78       __IMPORT_DESCRIPTOR_OLEAUT32 1004cf78     oleaut32:OLEAUT32.dll
 0002:00009f8c       __NULL_IMPORT_DESCRIPTOR   1004cf8c     kernel32:KERNEL32.dll
 0003:00000000       ?_afxNewHandler@@3P6AHI@ZA 1004f000     nafxcw:afxmem.obj
 0003:00000004       ??_R0?AV_AFX_THREAD_STATE@@@8 1004f004     nafxcw:afxstate.obj
 0003:00000024       ??_R0?AVCNoTrackObject@@@8 1004f024     nafxcw:afxstate.obj
 0003:00000044       ??_R0?AVAFX_MODULE_THREAD_STATE@@@8 1004f044     nafxcw:afxstate.obj
 0003:0000006c       ??_R0?AVAFX_MODULE_STATE@@@8 1004f06c     nafxcw:afxstate.obj
 0003:0000008c       ??_R0?AVCDllIsolationWrapperBase@@@8 1004f08c     nafxcw:afxstate.obj
 0003:000000b4       ??_R0?AVCComCtlWrapper@@@8 1004f0b4     nafxcw:afxstate.obj
 0003:000000d4       ??_R0?AVCCommDlgWrapper@@@8 1004f0d4     nafxcw:afxstate.obj
 0003:000000f4       ??_R0PAVCMemoryException@@@8 1004f0f4     nafxcw:afxstate.obj
 0003:00000114       ??_R0?AV_AFX_BASE_MODULE_STATE@@@8 1004f114     nafxcw:afxstate.obj
 0003:0000013c       ??_R0?AVCOleException@@@8  1004f13c     nafxcw:olemisc.obj
 0003:00000158       ??_R0?AVCException@@@8     1004f158     nafxcw:olemisc.obj
 0003:00000174       ??_R0?AVCObject@@@8        1004f174     nafxcw:olemisc.obj
 0003:0000018c       ??_R0PAVCOleException@@@8  1004f18c     nafxcw:olemisc.obj
 0003:000001a8       ??_R0PAVCException@@@8     1004f1a8     nafxcw:olemisc.obj
 0003:000001c4       ??_R0PAVCObject@@@8        1004f1c4     nafxcw:olemisc.obj
 0003:000001dc       ??_R0PAX@8                 1004f1dc     nafxcw:olemisc.obj
 0003:000001ec       ??_R0PAVCSimpleException@@@8 1004f1ec     nafxcw:except.obj
 0003:0000020c       ??_R0PAVCInvalidArgException@@@8 1004f20c     nafxcw:except.obj
 0003:00000230       ??_R0?AVCMemoryException@@@8 1004f230     nafxcw:except.obj
 0003:00000250       ??_R0?AVCSimpleException@@@8 1004f250     nafxcw:except.obj
 0003:00000270       ??_R0?AVCNotSupportedException@@@8 1004f270     nafxcw:except.obj
 0003:00000298       ??_R0?AVCInvalidArgException@@@8 1004f298     nafxcw:except.obj
 0003:000002c0       ?_simpleMemoryException@@3VCMemoryException@@A 1004f2c0     nafxcw:except.obj
 0003:00000358       ?_simpleNotSupportedException@@3VCNotSupportedException@@A 1004f358     nafxcw:except.obj
 0003:000003f0       ?_simpleInvalidArgException@@3VCInvalidArgException@@A 1004f3f0     nafxcw:except.obj
 0003:00000488       ??_R0?AVCAfxStringMgr@@@8  1004f488     nafxcw:strcore.obj
 0003:000004a4       ??_R0?AUIAtlStringMgr@ATL@@@8 1004f4a4     nafxcw:strcore.obj
 0003:000004c4       ??_R0?AUCThreadData@@@8    1004f4c4     nafxcw:afxtls.obj
 0003:000004e0       ??_R0?AVCCmdTarget@@@8     1004f4e0     nafxcw:thrdcore.obj
 0003:000004fc       ??_R0?AVCHandleMap@@@8     1004f4fc     nafxcw:winhand.obj
 0003:00000518       ??_R0?AVCMapPtrToPtr@@@8   1004f518     nafxcw:map_pp.obj
 0003:00000534       ??_R0?AUIUnknown@@@8       1004f534     nafxcw:oleunk.obj
 0003:0000054c       ??_R0PAVCArchiveException@@@8 1004f54c     nafxcw:arccore.obj
 0003:0000056c       ??_R0?AVCArchiveException@@@8 1004f56c     nafxcw:arcex.obj
 0003:0000058c       ?_dispatchEntryCount@CCmdTarget@@0IA 1004f58c     nafxcw:cmdtarg.obj
 0003:00000590       ?_dwStockPropMask@CCmdTarget@@0KA 1004f590     nafxcw:cmdtarg.obj
 0003:00000594       ?_eventsinkEntryCount@CCmdTarget@@0IA 1004f594     nafxcw:cmdtarg.obj
 0003:00000598       ??_R0?AVCCmdUI@@@8         1004f598     nafxcw:cmdtarg.obj
 0003:000005b0       ?dids@?1??AtlIAccessibleGetIDsOfNamesHelper@ATL@@YGJABU_GUID@@PAPA_WIKPAJ@Z@4PAJA 1004f5b0     nafxcw:wincore.obj
 0003:00000600       ?names@?1??AtlIAccessibleGetIDsOfNamesHelper@ATL@@YGJABU_GUID@@PAPA_WIKPAJ@Z@4PAPA_WA 1004f600     nafxcw:wincore.obj
 0003:0000064c       ??_R0?AVXAccessible@CWnd@@@8 1004f64c     nafxcw:wincore.obj
 0003:0000066c       ??_R0?AVXAccessibleServer@CWnd@@@8 1004f66c     nafxcw:wincore.obj
 0003:00000694       ??_R0?AVCWnd@@@8           1004f694     nafxcw:wincore.obj
 0003:000006a8       ??_R0?AVCTestCmdUI@@@8     1004f6a8     nafxcw:wincore.obj
 0003:000006c4       ??_R0?AV_AFX_HTMLHELP_STATE@@@8 1004f6c4     nafxcw:wincore.obj
 0003:000006e8       ??_R0PAVCUserException@@@8 1004f6e8     nafxcw:wincore.obj
 0003:00000708       ??_R0?AV?$IAccessibleProxyImpl@VCAccessibleProxy@ATL@@@ATL@@@8 1004f708     nafxcw:wincore.obj
 0003:0000074c       ??_R0?AUIAccessible@@@8    1004f74c     nafxcw:wincore.obj
 0003:00000768       ??_R0?AUIDispatch@@@8      1004f768     nafxcw:wincore.obj
 0003:00000780       ??_R0?AUIAccessibleProxy@@@8 1004f780     nafxcw:wincore.obj
 0003:000007a0       ??_R0?AV?$CMFCComObject@VCAccessibleProxy@ATL@@@@@8 1004f7a0     nafxcw:wincore.obj
 0003:000007d8       ??_R0?AVCAccessibleProxy@ATL@@@8 1004f7d8     nafxcw:wincore.obj
 0003:00000800       ??_R0?AV?$CComObjectRootEx@VCComSingleThreadModel@ATL@@@ATL@@@8 1004f800     nafxcw:wincore.obj
 0003:00000844       ??_R0?AVCComObjectRootBase@ATL@@@8 1004f844     nafxcw:wincore.obj
 0003:0000086c       ??_R0?AUIOleWindow@@@8     1004f86c     nafxcw:wincore.obj
 0003:00000888       ??_R0?AVCResourceException@@@8 1004f888     nafxcw:wingdi.obj
 0003:000008ac       ??_R0?AVCUserException@@@8 1004f8ac     nafxcw:wingdi.obj
 0003:000008cc       ??_R0?AVCGdiObject@@@8     1004f8cc     nafxcw:wingdi.obj
 0003:000008e8       ??_R0?AVCDC@@@8            1004f8e8     nafxcw:wingdi.obj
 0003:000008fc       ?classCByteArray@CByteArray@@2UCRuntimeClass@@A 1004f8fc     nafxcw:array_b.obj
 0003:00000918       ??_R0?AVCByteArray@@@8     1004f918     nafxcw:array_b.obj
 0003:00000934       ??_R0?AVCMenu@@@8          1004f934     nafxcw:winmenu.obj
 0003:00000948       ?bStaticInit@CDocManager@@2HA 1004f948     nafxcw:appcore.obj
 0003:00000950       ??_R0?AV_Locimp@locale@std@@@8 1004f950     libcpmt:locale0.obj
 0003:000009b8       ?_Sync@ios_base@std@@0_NA  1004f9b8     libcpmt:ios.obj
 0003:000009d8       ?_PJP_CPP_Copyright@@3PADA 1004f9d8     libcpmt:iosptrs.obj
 0003:00000a38       __aexit_rtn                1004fa38     LIBCMT:crt0dat.obj
 0003:00000a40       ??_R0?AVtype_info@@@8      1004fa40     LIBCMT:typinfo.obj
 0003:00000a60       ___lconv_static_decimal    1004fa60     LIBCMT:lconv.obj
 0003:00000a64       ___lconv_c                 1004fa64     LIBCMT:lconv.obj
 0003:00000a94       ___lconv                   1004fa94     LIBCMT:lconv.obj
 0003:00000a98       ___security_cookie         1004fa98     LIBCMT:gs_cookie.obj
 0003:00000a9c       ___security_cookie_complement 1004fa9c     LIBCMT:gs_cookie.obj
 0003:00000c10       __fltused                  1004fc10     LIBCMT:fpinit.obj
 0003:00000c14       __ldused                   1004fc14     LIBCMT:fpinit.obj
 0003:00000c24       __pctype                   1004fc24     LIBCMT:ctype.obj
 0003:00000c28       __pwctype                  1004fc28     LIBCMT:ctype.obj
 0003:00000c34       ??_R0?AVbad_exception@std@@@8 1004fc34     LIBCMT:frame.obj
 0003:00000c54       ___abort_behavior          1004fc54     LIBCMT:abort.obj
 0003:00000c58       ___flsindex                1004fc58     LIBCMT:tidtable.obj
 0003:00000c5c       ___getvalueindex           1004fc5c     LIBCMT:tidtable.obj
 0003:00000e38       __cfltcvt_tab              1004fe38     LIBCMT:cmiscdat.obj
 0003:00000e60       __XcptActTab               1004fe60     LIBCMT:winxfltr.obj
 0003:00000ed8       __First_FPE_Indx           1004fed8     LIBCMT:winxfltr.obj
 0003:00000edc       __Num_FPE                  1004fedc     LIBCMT:winxfltr.obj
 0003:00000ee0       __XcptActTabSize           1004fee0     LIBCMT:winxfltr.obj
 0003:00000ee4       __XcptActTabCount          1004fee4     LIBCMT:winxfltr.obj
 0003:00000ee8       __iob                      1004fee8     LIBCMT:_file.obj
 0003:00001168       ___nullstring              10050168     LIBCMT:output.obj
 0003:0000116c       ___wnullstring             1005016c     LIBCMT:output.obj
 0003:00001180       ___badioinfo               10050180     LIBCMT:ioinit.obj
 0003:000011c0       __amblksiz                 100501c0     LIBCMT:heapinit.obj
 0003:000011d8       ___initialmbcinfo          100501d8     LIBCMT:mbctype.obj
 0003:000013f8       __mbctype                  100503f8     LIBCMT:mbctype.obj
 0003:00001500       __mbcasemap                10050500     LIBCMT:mbctype.obj
 0003:00001600       ___ptmbcinfo               10050600     LIBCMT:mbctype.obj
 0003:000016f8       ___globallocalestatus      100506f8     LIBCMT:glstatus.obj
 0003:00001700       ___clocalestr              10050700     LIBCMT:nlsdata2.obj
 0003:00001708       ___initiallocinfo          10050708     LIBCMT:nlsdata2.obj
 0003:000017e0       ___ptlocinfo               100507e0     LIBCMT:nlsdata2.obj
 0003:000017e4       ___lc_clike                100507e4     LIBCMT:nlsdata2.obj
 0003:000017e8       ___initiallocalestructinfo 100507e8     LIBCMT:nlsdata2.obj
 0003:000017f0       __timezone                 100507f0     LIBCMT:timeset.obj
 0003:000017f4       __daylight                 100507f4     LIBCMT:timeset.obj
 0003:000017f8       __dstbias                  100507f8     LIBCMT:timeset.obj
 0003:00001880       __tzname                   10050880     LIBCMT:timeset.obj
 0003:000018a0       __lpdays                   100508a0     LIBCMT:days.obj
 0003:000018d4       __days                     100508d4     LIBCMT:days.obj
 0003:00001910       ___lc_time_c               10050910     LIBCMT:strftime.obj
 0003:000019c8       ___lc_time_curr            100509c8     LIBCMT:strftime.obj
 0003:000019cc       ___mb_cur_max              100509cc     LIBCMT:nlsdata1.obj
 0003:000019d0       ___decimal_point           100509d0     LIBCMT:nlsdata1.obj
 0003:000019d4       ___decimal_point_length    100509d4     LIBCMT:nlsdata1.obj
 0003:000019e8       __lookuptrailbytes         100509e8     LIBCMT:read.obj
 0003:00001ae8       __p_overlay                10050ae8     LIBCMT:dospawn.obj
 0003:00001aec       __NLG_Destination          10050aec     LIBCMT:exsup.obj
 0003:00001b00       __coninpfh                 10050b00     LIBCMT:initcon.obj
 0003:00001b04       __confh                    10050b04     LIBCMT:initcon.obj
 0003:00001b40       __pow10pos                 10050b40     LIBCMT:constpow.obj
 0003:00001ca0       __pow10neg                 10050ca0     LIBCMT:constpow.obj
 0003:00001e18       ?g_pfnGetThreadACP@ATL@@3P6GIXZA 10050e18     atls:atltrace.obj
 0003:00001e1c       ??_R0?AV?$codecvt@DDH@std@@@8 10050e1c     CommonFrameMain.obj
 0003:00001e3c       ??_R0?AVCommonFrameMain@@@8 10050e3c     CommonFrameMain.obj
 0003:00001e5c       ??_R0?AVWriter@Json@@@8    10050e5c     CommonFrameMain.obj
 0003:00001e78       ??_R0?AVFastWriter@Json@@@8 10050e78     CommonFrameMain.obj
 0003:00001e98       ??_R0?AV?$ctype@D@std@@@8  10050e98     CommonFrameMain.obj
 0003:00001eb4       ??_R0?AUctype_base@std@@@8 10050eb4     CommonFrameMain.obj
 0003:00001ed4       ??_R0?AVcodecvt_base@std@@@8 10050ed4     CommonFrameMain.obj
 0003:00001ef4       ??_R0?AVfacet@locale@std@@@8 10050ef4     CommonFrameMain.obj
 0003:00001f14       ??_R0?AV?$basic_ofstream@DU?$char_traits@D@std@@@std@@@8 10050f14     CommonFrameMain.obj
 0003:00001f50       ??_R0?AV?$basic_ifstream@DU?$char_traits@D@std@@@std@@@8 10050f50     CommonFrameMain.obj
 0003:00001f8c       ??_R0?AV?$basic_filebuf@DU?$char_traits@D@std@@@std@@@8 10050f8c     CommonFrameMain.obj
 0003:00001fc8       ??_R0?AV?$basic_ostream@DU?$char_traits@D@std@@@std@@@8 10050fc8     CommonFrameMain.obj
 0003:00002004       ??_R0?AV?$basic_istream@DU?$char_traits@D@std@@@std@@@8 10051004     CommonFrameMain.obj
 0003:00002040       ??_R0?AV?$basic_streambuf@DU?$char_traits@D@std@@@std@@@8 10051040     CommonFrameMain.obj
 0003:0000207c       ??_R0?AV?$basic_ios@DU?$char_traits@D@std@@@std@@@8 1005107c     CommonFrameMain.obj
 0003:000020b4       ??_R0?AV?$_Iosb@H@std@@@8  100510b4     CommonFrameMain.obj
 0003:000020d0       ??_R0?AVios_base@std@@@8   100510d0     CommonFrameMain.obj
 0003:00002104       ?itc_query_str@@3V?$basic_string@DU?$char_traits@D@std@@V?$allocator@D@2@@std@@A 10051104     CommonFrameMain.obj
 0003:00002120       ??_R0?AVruntime_error@std@@@8 10051120     CommonFrameMain.obj
 0003:00002140       ??_R0?AVexception@std@@@8  10051140     CommonFrameMain.obj
 0003:0000215c       ??_R0?AVout_of_range@std@@@8 1005115c     CommonFrameMain.obj
 0003:0000217c       ??_R0?AVlogic_error@std@@@8 1005117c     CommonFrameMain.obj
 0003:0000219c       ??_R0?AVfailure@ios_base@std@@@8 1005119c     CommonFrameMain.obj
 0003:000021c0       ??_R0?AVlength_error@std@@@8 100511c0     CommonFrameMain.obj
 0003:000021e0       ??_R0?AVbad_cast@std@@@8   100511e0     CommonFrameMain.obj
 0003:000021fc       ??_R0?AVbad_alloc@std@@@8  100511fc     CommonFrameMain.obj
 0003:00002218       ??_R0?AVDefaultValueAllocator@Json@@@8 10051218     json_value.obj
 0003:00002244       ??_R0?AVValueAllocator@Json@@@8 10051244     json_value.obj
 0003:00002270       ??_R0?AV?$num_put@DV?$ostreambuf_iterator@DU?$char_traits@D@std@@@std@@@std@@@8 10051270     json_writer.obj
 0003:000022c4       ??_R0?AV?$numpunct@D@std@@@8 100512c4     json_writer.obj
 0003:000022e8       ??_R0?AV?$basic_ostringstream@DU?$char_traits@D@std@@V?$allocator@D@2@@std@@@8 100512e8     json_writer.obj
 0003:00002340       ??_R0?AV?$basic_stringbuf@DU?$char_traits@D@std@@V?$allocator@D@2@@std@@@8 10051340     json_writer.obj
 0003:00002390       __imp__LresultFromObject@12 10051390     oleacc:OLEACC.dll
 0003:00002394       __imp__CreateStdAccessibleObject@16 10051394     oleacc:OLEACC.dll
 0003:00002398       \177OLEACC_NULL_THUNK_DATA_DLA 10051398     oleacc:OLEACC.dll
 0003:000023a0       __afxForceEXCLUDE          100513a0     nafxcw:nolib.obj
 0003:000023a4       ?__mixedModuleStartup@@3HA 100513a4     nafxcw:dllmodul.obj
 0003:000023a8       __afxForceUSRDLL           100513a8     nafxcw:dllmodul.obj
 0003:000023ac       ?_afxTermDllState@@3DA     100513ac     nafxcw:dllmodul.obj
 0003:000023b0       ?pfnCreateActCtxW@@3P6GPAXPBUtagACTCTXW@@@ZA 100513b0     nafxcw:afxstate.obj
 0003:000023b4       ?pfnReleaseActCtx@@3P6GXPAX@ZA 100513b4     nafxcw:afxstate.obj
 0003:000023b8       ?pfnActivateActCtx@@3P6GHPAXPAK@ZA 100513b8     nafxcw:afxstate.obj
 0003:000023bc       ?pfnDeactivateActCtx@@3P6GHKK@ZA 100513bc     nafxcw:afxstate.obj
 0003:000023c4       ?_afxBaseModuleState@@3V?$CProcessLocal@V_AFX_BASE_MODULE_STATE@@@@A 100513c4     nafxcw:afxstate.obj
 0003:000023c8       ?_afxThreadState@@3V?$CThreadLocal@V_AFX_THREAD_STATE@@@@A 100513c8     nafxcw:afxstate.obj
 0003:000023cc       ?afxStringManager@@3VCAfxStringMgr@@A 100513cc     nafxcw:strcore.obj
 0003:000023e4       ?_afxThreadData@@3PAVCThreadSlotData@@A 100513e4     nafxcw:afxtls.obj
 0003:000023e8       ?__afxThreadData@@3PAEA    100513e8     nafxcw:afxtls.obj
 0003:0000241c       ?_afxTlsRef@@3JA           1005141c     nafxcw:afxtls.obj
 0003:00002420       ?_afxCriticalInit@@3HA     10051420     nafxcw:afxcrit.obj
 0003:00002428       ?_afxResourceLock@@3PAU_RTL_CRITICAL_SECTION@@A 10051428     nafxcw:afxcrit.obj
 0003:000025c0       ?_afxLockInitLock@@3U_RTL_CRITICAL_SECTION@@A 100515c0     nafxcw:afxcrit.obj
 0003:000025d8       ?_afxLockInit@@3PAHA       100515d8     nafxcw:afxcrit.obj
 0003:00002620       ?afxData@@3UAUX_DATA@@A    10051620     nafxcw:auxdata.obj
 0003:00002678       ?_afxGotScrollLines@@3HA   10051678     nafxcw:wincore.obj
 0003:00002680       ?_afxMsgCache@@3PAUAFX_MSG_CACHE@@A 10051680     nafxcw:wincore.obj
 0003:00003e80       _g_pfnGetSystemMetrics     10052e80     nafxcw:wincore.obj
 0003:00003e84       _g_pfnMonitorFromWindow    10052e84     nafxcw:wincore.obj
 0003:00003e88       _g_pfnMonitorFromRect      10052e88     nafxcw:wincore.obj
 0003:00003e8c       _g_pfnMonitorFromPoint     10052e8c     nafxcw:wincore.obj
 0003:00003e90       _g_pfnGetMonitorInfo       10052e90     nafxcw:wincore.obj
 0003:00003e94       _g_pfnEnumDisplayMonitors  10052e94     nafxcw:wincore.obj
 0003:00003e98       _g_pfnEnumDisplayDevices   10052e98     nafxcw:wincore.obj
 0003:00003e9c       _g_fMultiMonInitDone       10052e9c     nafxcw:wincore.obj
 0003:00003ea0       _g_fMultimonPlatformNT     10052ea0     nafxcw:wincore.obj
 0003:00003ea4       ?m_pfnNotifyWinEvent@CWnd@@1P6GXKPAUHWND__@@JJ@ZA 10052ea4     nafxcw:wincore.obj
 0003:00003ea8       ?m_nMsgDragList@CWnd@@1IB  10052ea8     nafxcw:wincore.obj
 0003:00003eb0       ?wndTop@CWnd@@2V1@B        10052eb0     nafxcw:wincore.obj
 0003:00003f08       ?wndBottom@CWnd@@2V1@B     10052f08     nafxcw:wincore.obj
 0003:00003f60       ?wndTopMost@CWnd@@2V1@B    10052f60     nafxcw:wincore.obj
 0003:00003fb8       ?wndNoTopMost@CWnd@@2V1@B  10052fb8     nafxcw:wincore.obj
 0003:00004010       ?_afxHtmlHelpState@@3V?$CProcessLocal@V_AFX_HTMLHELP_STATE@@@@A 10053010     nafxcw:wincore.obj
 0003:00004018       ?_simpleResourceException@@3VCResourceException@@A 10053018     nafxcw:wingdi.obj
 0003:000040b0       ?_simpleUserException@@3VCUserException@@A 100530b0     nafxcw:wingdi.obj
 0003:00004148       ?_init_CByteArray@@3UAFX_CLASSINIT@@A 10053148     nafxcw:array_b.obj
 0003:0000414c       ?pStaticDocManager@CDocManager@@2PAV1@A 1005314c     nafxcw:appcore.obj
 0003:00004150       ?pStaticList@CDocManager@@2PAVCPtrList@@A 10053150     nafxcw:appcore.obj
 0003:00004154       ?s_pfnCreateActCtx@CActivationContext@@1P6GPAXPBUtagACTCTXA@@@ZA 10053154     nafxcw:appcore.obj
 0003:00004158       ?s_pfnReleaseActCtx@CActivationContext@@1P6GXPAX@ZA 10053158     nafxcw:appcore.obj
 0003:0000415c       ?s_pfnActivateActCtx@CActivationContext@@1P6GHPAXPAK@ZA 1005315c     nafxcw:appcore.obj
 0003:00004160       ?s_pfnDeactivateActCtx@CActivationContext@@1P6GHKK@ZA 10053160     nafxcw:appcore.obj
 0003:00004164       ?s_bPFNInitialized@CActivationContext@@1_NA 10053164     nafxcw:appcore.obj
 0003:00004168       ?g_fLoadingResourcesForMFCDLL@@3HA 10053168     nafxcw:appcore.obj
 0003:0000416c       ?_afxDBCS@@3HB             1005316c     nafxcw:afxdbcs.obj
 0003:00004170       ?_afxWingdixTerm@@3DA      10053170     nafxcw:wingdix.obj
 0003:00004174       ?_afxMsgLBSELCHANGE@@3IA   10053174     nafxcw:dlgcomm.obj
 0003:00004178       ?_afxMsgSHAREVI@@3IA       10053178     nafxcw:dlgcomm.obj
 0003:0000417c       ?_afxMsgFILEOK@@3IA        1005317c     nafxcw:dlgcomm.obj
 0003:00004180       ?_afxMsgCOLOROK@@3IA       10053180     nafxcw:dlgcomm.obj
 0003:00004184       ?_afxMsgHELP@@3IA          10053184     nafxcw:dlgcomm.obj
 0003:00004188       ?_afxMsgSETRGB@@3IA        10053188     nafxcw:dlgcomm.obj
 0003:00004194       ?_Clocptr@_Locimp@locale@std@@0PAV123@A 10053194     libcpmt:locale0.obj
 0003:00004198       ?_Id_cnt@id@locale@std@@0HA 10053198     libcpmt:locale0.obj
 0003:0000419c       ?id@?$ctype@D@std@@2V0locale@2@A 1005319c     libcpmt:locale0.obj
 0003:000041a0       ?id@?$codecvt@GDH@std@@2V0locale@2@A 100531a0     libcpmt:locale0.obj
 0003:000041a4       ?id@?$ctype@_W@std@@2V0locale@2@A 100531a4     libcpmt:locale0.obj
 0003:000041a8       ?id@?$codecvt@_WDH@std@@2V0locale@2@A 100531a8     libcpmt:locale0.obj
 0003:000041b0       ?id@?$ctype@G@std@@2V0locale@2@A 100531b0     libcpmt:locale0.obj
 0003:000041b8       ?_Fpz@std@@3_JA            100531b8     libcpmt:ios.obj
 0003:000041c0       ?_Index@ios_base@std@@0HA  100531c0     libcpmt:ios.obj
 0003:0000425c       ?_Ptr_cin@std@@3PAV?$basic_istream@DU?$char_traits@D@std@@@1@A 1005325c     libcpmt:iosptrs.obj
 0003:00004260       ?_Ptr_cout@std@@3PAV?$basic_ostream@DU?$char_traits@D@std@@@1@A 10053260     libcpmt:iosptrs.obj
 0003:00004264       ?_Ptr_cerr@std@@3PAV?$basic_ostream@DU?$char_traits@D@std@@@1@A 10053264     libcpmt:iosptrs.obj
 0003:00004268       ?_Ptr_clog@std@@3PAV?$basic_ostream@DU?$char_traits@D@std@@@1@A 10053268     libcpmt:iosptrs.obj
 0003:0000426c       ?_Ptr_wcin@std@@3PAV?$basic_istream@_WU?$char_traits@_W@std@@@1@A 1005326c     libcpmt:iosptrs.obj
 0003:00004270       ?_Ptr_wcout@std@@3PAV?$basic_ostream@_WU?$char_traits@_W@std@@@1@A 10053270     libcpmt:iosptrs.obj
 0003:00004274       ?_Ptr_wcerr@std@@3PAV?$basic_ostream@_WU?$char_traits@_W@std@@@1@A 10053274     libcpmt:iosptrs.obj
 0003:00004278       ?_Ptr_wclog@std@@3PAV?$basic_ostream@_WU?$char_traits@_W@std@@@1@A 10053278     libcpmt:iosptrs.obj
 0003:000043a0       __umaskval                 100533a0     LIBCMT:crt0dat.obj
 0003:000043a4       __osplatform               100533a4     LIBCMT:crt0dat.obj
 0003:000043a8       __osver                    100533a8     LIBCMT:crt0dat.obj
 0003:000043ac       __winver                   100533ac     LIBCMT:crt0dat.obj
 0003:000043b0       __winmajor                 100533b0     LIBCMT:crt0dat.obj
 0003:000043b4       __winminor                 100533b4     LIBCMT:crt0dat.obj
 0003:000043b8       ___argc                    100533b8     LIBCMT:crt0dat.obj
 0003:000043bc       ___argv                    100533bc     LIBCMT:crt0dat.obj
 0003:000043c0       ___wargv                   100533c0     LIBCMT:crt0dat.obj
 0003:000043c4       __environ                  100533c4     LIBCMT:crt0dat.obj
 0003:000043c8       ___initenv                 100533c8     LIBCMT:crt0dat.obj
 0003:000043cc       __wenviron                 100533cc     LIBCMT:crt0dat.obj
 0003:000043d0       ___winitenv                100533d0     LIBCMT:crt0dat.obj
 0003:000043d4       __pgmptr                   100533d4     LIBCMT:crt0dat.obj
 0003:000043d8       __wpgmptr                  100533d8     LIBCMT:crt0dat.obj
 0003:000043dc       __exitflag                 100533dc     LIBCMT:crt0dat.obj
 0003:000043e0       __C_Termination_Done       100533e0     LIBCMT:crt0dat.obj
 0003:000043e4       __C_Exit_Done              100533e4     LIBCMT:crt0dat.obj
 0003:000043ec       ___pInvalidArgHandler      100533ec     LIBCMT:invarg.obj
 0003:000043f0       ___lconv_static_null       100533f0     LIBCMT:lconv.obj
 0003:000043f8       __aenvptr                  100533f8     LIBCMT:dllcrt0.obj
 0003:000043fc       __wenvptr                  100533fc     LIBCMT:dllcrt0.obj
 0003:00004400       ___error_mode              10053400     LIBCMT:dllcrt0.obj
 0003:00004404       ___app_type                10053404     LIBCMT:dllcrt0.obj
 0003:00004408       ___fastflag                10053408     LIBCMT:fpinit.obj
 0003:0000440c       __adjust_fdiv              1005340c     LIBCMT:fpinit.obj
 0003:00004410       ___locale_changed          10053410     LIBCMT:setlocal.obj
 0003:00004418       __maxwait                  10053418     LIBCMT:crtheap.obj
 0003:0000441c       _gpFlsAlloc                1005341c     LIBCMT:tidtable.obj
 0003:00004420       _gpFlsGetValue             10053420     LIBCMT:tidtable.obj
 0003:00004424       _gpFlsSetValue             10053424     LIBCMT:tidtable.obj
 0003:00004428       _gpFlsFree                 10053428     LIBCMT:tidtable.obj
 0003:00004898       ?__pInconsistency@@3P6AXXZA 10053898     LIBCMT:hooks.obj
 0003:000048bc       ___pPurecall               100538bc     LIBCMT:inithelp.obj
 0003:000048c4       ?_pnhHeap@@3P6AHI@ZA       100538c4     LIBCMT:handler.obj
 0003:000048c8       __cflush                   100538c8     LIBCMT:_file.obj
 0003:000048cc       __stdbuf                   100538cc     LIBCMT:_sftbuf.obj
 0003:00004c04       __crtheap                  10053c04     LIBCMT:heapinit.obj
 0003:00004c08       ___sbh_pHeaderDefer        10053c08     LIBCMT:sbheap.obj
 0003:00004c0c       __newmode                  10053c0c     LIBCMT:_newmode.obj
 0003:00004c14       ___mbulinfo                10053c14     LIBCMT:mbctype.obj
 0003:00004c20       ___mbcodepage              10053c20     LIBCMT:mbctype.obj
 0003:00004c24       ___ismbcodepage            10053c24     LIBCMT:mbctype.obj
 0003:00004c28       ___mblcid                  10053c28     LIBCMT:mbctype.obj
 0003:00004c2c       ___lc_handle               10053c2c     LIBCMT:nlsdata2.obj
 0003:00004c44       ___lc_codepage             10053c44     LIBCMT:nlsdata2.obj
 0003:00004c48       ___lc_collate_cp           10053c48     LIBCMT:nlsdata2.obj
 0003:00004e4c       ?pArgList@UnDecorator@@0PAVReplicator@@A 10053e4c     LIBCMT:undname.obj
 0003:00004e50       ?pZNameList@UnDecorator@@0PAVReplicator@@A 10053e50     LIBCMT:undname.obj
 0003:00004e54       ?pTemplateArgList@UnDecorator@@0PAVReplicator@@A 10053e54     LIBCMT:undname.obj
 0003:00004e58       ?gName@UnDecorator@@0PBDB  10053e58     LIBCMT:undname.obj
 0003:00004e5c       ?name@UnDecorator@@0PBDB   10053e5c     LIBCMT:undname.obj
 0003:00004e60       ?outputString@UnDecorator@@0PADA 10053e60     LIBCMT:undname.obj
 0003:00004e64       ?maxStringLength@UnDecorator@@0HA 10053e64     LIBCMT:undname.obj
 0003:00004e68       ?disableFlags@UnDecorator@@0KA 10053e68     LIBCMT:undname.obj
 0003:00004e6c       ?m_pGetParameter@UnDecorator@@0P6APADJ@ZA 10053e6c     LIBCMT:undname.obj
 0003:00004e70       ?fExplicitTemplateParams@UnDecorator@@0_NA 10053e70     LIBCMT:undname.obj
 0003:00004e71       ?fGetTemplateArgumentList@UnDecorator@@0_NA 10053e71     LIBCMT:undname.obj
 0003:00004e74       __commode                  10053e74     LIBCMT:ncommode.obj
 0003:00004e78       __outputformat             10053e78     LIBCMT:outputformat.obj
 0003:00004e80       __fmode                    10053e80     LIBCMT:txtmode.obj
 0003:00004e88       ?_AtlBaseModule@ATL@@3VCAtlBaseModule@1@A 10053e88     atls:atlbase.obj
 0003:00004ec4       ?_AtlWinModule@ATL@@3VCAtlWinModule@1@A 10053ec4     atls:atlbase.obj
 0003:00004ef0       __hmod__OLEACC_dll         10053ef0     oleacc:OLEACC.dll
 0003:00004ef4       ___puiHead                 10053ef4     DelayImp:delayhlp.obj
 0003:00004ef8       ___pfnDliFailureHook2      10053ef8     DelayImp:delayhk1.obj
 0003:00004efc       ___pfnDliNotifyHook2       10053efc     DelayImp:delayhk2.obj
 0003:00004f00       ?self@CommonFrameMain@@2PAV1@A 10053f00     CommonFrameMain.obj
 0003:00004f08       ?null@Value@Json@@2V12@B   10053f08     json_value.obj
 0003:00004f1c       ?_Psave@?$_Facetptr@V?$ctype@D@std@@@std@@2PBVfacet@locale@2@B 10053f1c     CommonFrameMain.obj
 0003:00004f20       ?_Psave@?$_Facetptr@V?$codecvt@DDH@std@@@std@@2PBVfacet@locale@2@B 10053f20     CommonFrameMain.obj
 0003:00004f24       ?m_bInitFailed@CAtlBaseModule@ATL@@2_NA 10053f24     FrameConfigFileOperate.obj
 0003:00004f2c       ?_Psave@?$_Facetptr@V?$num_put@DV?$ostreambuf_iterator@DU?$char_traits@D@std@@@std@@@std@@@std@@2PBVfacet@locale@2@B 10053f2c     json_writer.obj
 0003:00004f30       ?_Psave@?$_Facetptr@V?$numpunct@D@std@@@std@@2PBVfacet@locale@2@B 10053f30     json_writer.obj
 0003:00004f3c       ?_Stinit@?1??_Init@?$basic_filebuf@DU?$char_traits@D@std@@@std@@IAEXPAU_iobuf@@W4_Initfl@23@@Z@4HA 10053f3c     CommonFrameMain.obj
 0003:00004f84       ?id@?$codecvt@DDH@std@@2V0locale@2@A 10053f84     CommonFrameMain.obj
 0003:00004f88       ?id@?$num_put@DV?$ostreambuf_iterator@DU?$char_traits@D@std@@@std@@@std@@2V0locale@2@A 10053f88     json_writer.obj
 0003:00004f8c       ?id@?$numpunct@D@std@@2V0locale@2@A 10053f8c     json_writer.obj
 0003:00004f90       ___use_sse2_mathfcns       10053f90     <common>
 0003:00004f94       ___sse2_available          10053f94     <common>
 0003:00004f98       __debugger_hook_dummy      10053f98     <common>
 0003:00004f9c       ___sbh_cntHeaderList       10053f9c     <common>
 0003:00004fa0       ___sbh_pHeaderList         10053fa0     <common>
 0003:00004fa4       ___sbh_threshold           10053fa4     <common>
 0003:00004fa8       ___sbh_pHeaderScan         10053fa8     <common>
 0003:00004fac       ___sbh_sizeHeaderList      10053fac     <common>
 0003:00004fb0       ___sbh_indGroupDefer       10053fb0     <common>
 0003:00004fb4       ___active_heap             10053fb4     <common>
 0003:00004fb8       __nhandle                  10053fb8     <common>
 0003:00004fc0       ___pioinfo                 10053fc0     <common>
 0003:000050c0       ___piob                    100540c0     <common>
 0003:000050e0       __bufin                    100540e0     <common>
 0003:000060e0       __nstream                  100550e0     <common>
 0003:000060e4       __acmdln                   100550e4     <common>
 0003:000060e8       ___env_initialized         100550e8     <common>
 0003:000060ec       ___onexitend               100550ec     <common>
 0003:000060f0       ___onexitbegin             100550f0     <common>
 0003:000060f4       ___mbctype_initialized     100550f4     <common>
 0003:000060f8       ___dyn_tls_init_callback   100550f8     <common>

 entry point at        0001:00028892

 Static symbols

 0001:0000a829       __catch$?write@?$basic_ostream@DU?$char_traits@D@std@@@std@@QAEAAV12@PBDH@Z$0 1000b829 f i  CIL library: CIL module
 0001:0000bdf7       __catch$??0?$_Tree@V?$_Tset_traits@V?$basic_string@DU?$char_traits@D@std@@V?$allocator@D@2@@std@@U?$less@V?$basic_string@DU?$char_traits@D@std@@V?$allocator@D@2@@std@@@2@V?$allocator@V?$basic_string@DU?$char_traits@D@std@@V?$allocator@D@2@@std@@@2@$0A@@std@@@std@@QAE@ABV01@@Z$0 1000cdf7 f i  CIL library: CIL module
 0001:0000da85       __catch$?_Osfx@?$basic_ostream@DU?$char_traits@D@std@@@std@@QAEXXZ$0 1000ea85 f i  CIL library: CIL module
 0001:0000ddee       __catch$?_Buynode@?$_Tree@V?$_Tmap_traits@V?$basic_string@DU?$char_traits@D@std@@V?$allocator@D@2@@std@@HU?$less@V?$basic_string@DU?$char_traits@D@std@@V?$allocator@D@2@@std@@@2@V?$allocator@U?$pair@$$CBV?$basic_string@DU?$char_traits@D@std@@V?$allocator@D@2@@std@@H@std@@@2@$0A@@std@@@std@@IAEPAU_Node@?$_Tree_nod@V?$_Tmap_traits@V?$basic_string@DU?$char_traits@D@std@@V?$allocator@D@2@@std@@HU?$less@V?$basic_string@DU?$char_traits@D@std@@V?$allocator@D@2@@std@@@2@V?$allocator@U?$pair@$$CBV?$basic_string@DU?$char_traits@D@std@@V?$allocator@D@2@@std@@H@std@@@2@$0A@@std@@@2@PAU342@00ABU?$pair@$$CBV?$basic_string@DU?$char_traits@D@std@@V?$allocator@D@2@@std@@H@2@D@Z$0 1000edee f i  CIL library: CIL module
 0001:0000ddee       __catch$?_Buynode@?$_Tree@V?$_Tmap_traits@V?$basic_string@DU?$char_traits@D@std@@V?$allocator@D@2@@std@@PAUHINSTANCE__@@U?$less@V?$basic_string@DU?$char_traits@D@std@@V?$allocator@D@2@@std@@@2@V?$allocator@U?$pair@$$CBV?$basic_string@DU?$char_traits@D@std@@V?$allocator@D@2@@std@@PAUHINSTANCE__@@@std@@@2@$0A@@std@@@std@@IAEPAU_Node@?$_Tree_nod@V?$_Tmap_traits@V?$basic_string@DU?$char_traits@D@std@@V?$allocator@D@2@@std@@PAUHINSTANCE__@@U?$less@V?$basic_string@DU?$char_traits@D@std@@V?$allocator@D@2@@std@@@2@V?$allocator@U?$pair@$$CBV?$basic_string@DU?$char_traits@D@std@@V?$allocator@D@2@@std@@PAUHINSTANCE__@@@std@@@2@$0A@@std@@@2@PAU342@00ABU?$pair@$$CBV?$basic_string@DU?$char_traits@D@std@@V?$allocator@D@2@@std@@PAUHINSTANCE__@@@2@D@Z$0 1000edee f i  CIL library: CIL module
 0001:0000df6b       __catch$?_Buynode@?$list@V?$basic_string@DU?$char_traits@D@std@@V?$allocator@D@2@@std@@V?$allocator@V?$basic_string@DU?$char_traits@D@std@@V?$allocator@D@2@@std@@@2@@std@@IAEPAU_Node@?$_List_nod@V?$basic_string@DU?$char_traits@D@std@@V?$allocator@D@2@@std@@V?$allocator@V?$basic_string@DU?$char_traits@D@std@@V?$allocator@D@2@@std@@@2@@2@PAU342@0ABV?$basic_string@DU?$char_traits@D@std@@V?$allocator@D@2@@2@@Z$0 1000ef6b f i  CIL library: CIL module
 0001:0000e19b       __catch$?_Copy@?$_Tree@V?$_Tset_traits@V?$basic_string@DU?$char_traits@D@std@@V?$allocator@D@2@@std@@U?$less@V?$basic_string@DU?$char_traits@D@std@@V?$allocator@D@2@@std@@@2@V?$allocator@V?$basic_string@DU?$char_traits@D@std@@V?$allocator@D@2@@std@@@2@$0A@@std@@@std@@IAEPAU_Node@?$_Tree_nod@V?$_Tset_traits@V?$basic_string@DU?$char_traits@D@std@@V?$allocator@D@2@@std@@U?$less@V?$basic_string@DU?$char_traits@D@std@@V?$allocator@D@2@@std@@@2@V?$allocator@V?$basic_string@DU?$char_traits@D@std@@V?$allocator@D@2@@std@@@2@$0A@@std@@@2@PAU342@0@Z$0 1000f19b f i  CIL library: CIL module
 0001:0000e296       __catch$?_Buynode@?$_Tree@V?$_Tset_traits@V?$basic_string@DU?$char_traits@D@std@@V?$allocator@D@2@@std@@U?$less@V?$basic_string@DU?$char_traits@D@std@@V?$allocator@D@2@@std@@@2@V?$allocator@V?$basic_string@DU?$char_traits@D@std@@V?$allocator@D@2@@std@@@2@$0A@@std@@@std@@IAEPAU_Node@?$_Tree_nod@V?$_Tset_traits@V?$basic_string@DU?$char_traits@D@std@@V?$allocator@D@2@@std@@U?$less@V?$basic_string@DU?$char_traits@D@std@@V?$allocator@D@2@@std@@@2@V?$allocator@V?$basic_string@DU?$char_traits@D@std@@V?$allocator@D@2@@std@@@2@$0A@@std@@@2@PAU342@00ABV?$basic_string@DU?$char_traits@D@std@@V?$allocator@D@2@@2@D@Z$0 1000f296 f i  CIL library: CIL module
 0001:0000e3ba       __catch$?_Copy@?$basic_string@DU?$char_traits@D@std@@V?$allocator@D@2@@std@@IAEXII@Z$0 1000f3ba f i  CIL library: CIL module
 0001:0000e44b       __catch$?_Copy@?$basic_string@DU?$char_traits@D@std@@V?$allocator@D@2@@std@@IAEXII@Z$1 1000f44b f i  CIL library: CIL module
 0001:0000efa0       __catch$??$?6U?$char_traits@D@std@@@std@@YAAAV?$basic_ostream@DU?$char_traits@D@std@@@0@AAV10@PBD@Z$0 1000ffa0 f i  CIL library: CIL module
 0001:0000f721       __catch$??$_Construct@V?$istreambuf_iterator@DU?$char_traits@D@std@@@std@@@?$basic_string@DU?$char_traits@D@std@@V?$allocator@D@2@@std@@QAEXV?$istreambuf_iterator@DU?$char_traits@D@std@@@1@0Uinput_iterator_tag@1@@Z$0 10010721 f i  CIL library: CIL module
 0001:00010c50       ?containsNewLine@Json@@YA_NPBD0@Z 10011c50 f    CIL library: CIL module
 0001:00010c70       ?codePointToUTF8@Json@@YA?AV?$basic_string@DU?$char_traits@D@std@@V?$allocator@D@2@@std@@I@Z 10011c70 f    CIL library: CIL module
 0001:000137f1       __catch$?_Insert_n@?$deque@VErrorInfo@Reader@Json@@V?$allocator@VErrorInfo@Reader@Json@@@std@@@std@@IAEXV?$_Deque_iterator@VErrorInfo@Reader@Json@@V?$allocator@VErrorInfo@Reader@Json@@@std@@$00@2@IABVErrorInfo@Reader@Json@@@Z$0 100147f1 f i  CIL library: CIL module
 0001:00013bf4       __catch$?_Insert_n@?$deque@VErrorInfo@Reader@Json@@V?$allocator@VErrorInfo@Reader@Json@@@std@@@std@@IAEXV?$_Deque_iterator@VErrorInfo@Reader@Json@@V?$allocator@VErrorInfo@Reader@Json@@@std@@$00@2@IABVErrorInfo@Reader@Json@@@Z$2 10014bf4 f i  CIL library: CIL module
 0001:00014300       ?valueAllocator@Json@@YAAAPAVValueAllocator@1@XZ 10015300 f    CIL library: CIL module
 0001:00015757       __catch$??0?$_Tree@V?$_Tmap_traits@VCZString@Value@Json@@V23@U?$less@VCZString@Value@Json@@@std@@V?$allocator@U?$pair@$$CBVCZString@Value@Json@@V23@@std@@@5@$0A@@std@@@std@@QAE@ABV01@@Z$0 10016757 f i  CIL library: CIL module
 0001:00015e55       __catch$??0?$vector@V?$basic_string@DU?$char_traits@D@std@@V?$allocator@D@2@@std@@V?$allocator@V?$basic_string@DU?$char_traits@D@std@@V?$allocator@D@2@@std@@@2@@std@@QAE@ABV01@@Z$0 10016e55 f i  CIL library: CIL module
 0001:00015fa8       __catch$?reserve@?$vector@V?$basic_string@DU?$char_traits@D@std@@V?$allocator@D@2@@std@@V?$allocator@V?$basic_string@DU?$char_traits@D@std@@V?$allocator@D@2@@std@@@2@@std@@QAEXI@Z$0 10016fa8 f i  CIL library: CIL module
 0001:00016a5b       __catch$?_Copy@?$_Tree@V?$_Tmap_traits@VCZString@Value@Json@@V23@U?$less@VCZString@Value@Json@@@std@@V?$allocator@U?$pair@$$CBVCZString@Value@Json@@V23@@std@@@5@$0A@@std@@@std@@IAEPAU_Node@?$_Tree_nod@V?$_Tmap_traits@VCZString@Value@Json@@V23@U?$less@VCZString@Value@Json@@@std@@V?$allocator@U?$pair@$$CBVCZString@Value@Json@@V23@@std@@@5@$0A@@std@@@2@PAU342@0@Z$0 10017a5b f i  CIL library: CIL module
 0001:00016b39       __catch$?_Buynode@?$_Tree@V?$_Tmap_traits@VCZString@Value@Json@@V23@U?$less@VCZString@Value@Json@@@std@@V?$allocator@U?$pair@$$CBVCZString@Value@Json@@V23@@std@@@5@$0A@@std@@@std@@IAEPAU_Node@?$_Tree_nod@V?$_Tmap_traits@VCZString@Value@Json@@V23@U?$less@VCZString@Value@Json@@@std@@V?$allocator@U?$pair@$$CBVCZString@Value@Json@@V23@@std@@@5@$0A@@std@@@2@PAU342@00ABU?$pair@$$CBVCZString@Value@Json@@V23@@2@D@Z$0 10017b39 f i  CIL library: CIL module
 0001:00016d66       __catch$?_Insert_n@?$vector@V?$basic_string@DU?$char_traits@D@std@@V?$allocator@D@2@@std@@V?$allocator@V?$basic_string@DU?$char_traits@D@std@@V?$allocator@D@2@@std@@@2@@std@@IAEXV?$_Vector_iterator@V?$basic_string@DU?$char_traits@D@std@@V?$allocator@D@2@@std@@V?$allocator@V?$basic_string@DU?$char_traits@D@std@@V?$allocator@D@2@@std@@@2@@2@IABV?$basic_string@DU?$char_traits@D@std@@V?$allocator@D@2@@2@@Z$0 10017d66 f i  CIL library: CIL module
 0001:00016dfd       __catch$?_Insert_n@?$vector@V?$basic_string@DU?$char_traits@D@std@@V?$allocator@D@2@@std@@V?$allocator@V?$basic_string@DU?$char_traits@D@std@@V?$allocator@D@2@@std@@@2@@std@@IAEXV?$_Vector_iterator@V?$basic_string@DU?$char_traits@D@std@@V?$allocator@D@2@@std@@V?$allocator@V?$basic_string@DU?$char_traits@D@std@@V?$allocator@D@2@@std@@@2@@2@IABV?$basic_string@DU?$char_traits@D@std@@V?$allocator@D@2@@2@@Z$2 10017dfd f i  CIL library: CIL module
 0001:00017073       __catch$??$_Uninit_fill_n@PAV?$basic_string@DU?$char_traits@D@std@@V?$allocator@D@2@@std@@IV12@V?$allocator@V?$basic_string@DU?$char_traits@D@std@@V?$allocator@D@2@@std@@@2@@std@@YAXPAV?$basic_string@DU?$char_traits@D@std@@V?$allocator@D@2@@0@IABV10@AAV?$allocator@V?$basic_string@DU?$char_traits@D@std@@V?$allocator@D@2@@std@@@0@U_Nonscalar_ptr_iterator_tag@0@U_Range_checked_iterator_tag@0@@Z$0 10018073 f i  CIL library: CIL module
 0001:00017121       __catch$??$_Uninit_copy@PBV?$basic_string@DU?$char_traits@D@std@@V?$allocator@D@2@@std@@PAV12@V?$allocator@V?$basic_string@DU?$char_traits@D@std@@V?$allocator@D@2@@std@@@2@@std@@YAPAV?$basic_string@DU?$char_traits@D@std@@V?$allocator@D@2@@0@PBV10@0PAV10@AAV?$allocator@V?$basic_string@DU?$char_traits@D@std@@V?$allocator@D@2@@std@@@0@U_Nonscalar_ptr_iterator_tag@0@U_Range_checked_iterator_tag@0@@Z$0 10018121 f i  CIL library: CIL module
 0001:00017244       __catch$??$_Uninit_move@PAV?$basic_string@DU?$char_traits@D@std@@V?$allocator@D@2@@std@@PAV12@V?$allocator@V?$basic_string@DU?$char_traits@D@std@@V?$allocator@D@2@@std@@@2@@std@@YAPAV?$basic_string@DU?$char_traits@D@std@@V?$allocator@D@2@@0@PAV10@00AAV?$allocator@V?$basic_string@DU?$char_traits@D@std@@V?$allocator@D@2@@std@@@0@U_Swap_move_tag@0@U_Range_checked_iterator_tag@0@@Z$0 10018244 f i  CIL library: CIL module
 0001:00017330       ?uintToString@Json@@YAXIAAPAD@Z 10018330 f    CIL library: CIL module
 0001:0001806c       __catch$??6?$basic_ostream@DU?$char_traits@D@std@@@std@@QAEAAV01@H@Z$0 1001906c f i  CIL library: CIL module
 0001:0001a726       __catch$?_Init@?$numpunct@D@std@@IAEXABV_Locinfo@2@@Z$0 1001b726 f i  CIL library: CIL module
 0001:0001bbc2       __catch$?_Construct_n@?$vector@V?$basic_string@DU?$char_traits@D@std@@V?$allocator@D@2@@std@@V?$allocator@V?$basic_string@DU?$char_traits@D@std@@V?$allocator@D@2@@std@@@2@@std@@QAEXIABV?$basic_string@DU?$char_traits@D@std@@V?$allocator@D@2@@2@@Z$0 1001cbc2 f i  CIL library: CIL module
 0001:0001c556       __catch$??0AFX_MODULE_STATE@@QAE@H@Z$0 1001d556 f   nafxcw:afxstate.obj
 0001:0001cc63       __catch$?GetData@CProcessLocalObject@@QAEPAVCNoTrackObject@@P6GPAV2@XZ@Z$0 1001dc63 f   nafxcw:afxtls.obj
 0001:0001cf9c       __catch$?SetValue@CThreadSlotData@@QAEXHPAX@Z$0 1001df9c f   nafxcw:afxtls.obj
 0001:0001d41c       __catch$?AfxTermThread@@YGXPAUHINSTANCE__@@@Z$0 1001e41c f   nafxcw:thrdcore.obj
 0001:0001d42a       __catch$?AfxTermThread@@YGXPAUHINSTANCE__@@@Z$2 1001e42a f   nafxcw:thrdcore.obj
 0001:0001d438       __catch$?AfxTermThread@@YGXPAUHINSTANCE__@@@Z$4 1001e438 f   nafxcw:thrdcore.obj
 0001:0001d61d       __catch$?FromHandle@CHandleMap@@QAEPAVCObject@@PAX@Z$0 1001e61d f   nafxcw:winhand.obj
 0001:0001e3ef       __catch$??1AUX_DATA@@QAE@XZ$0 1001f3ef f   nafxcw:auxdata.obj
 0001:0001ed79       __catch$?GetErrorMessage@CArchiveException@@UBEHPADIPAI@Z$0 1001fd79 f   nafxcw:arcex.obj
 0001:00021d7b       __catch$?AfxCallWndProc@@YGJPAVCWnd@@PAUHWND__@@IIJ@Z$0 10022d7b f   nafxcw:wincore.obj
 0001:00022d76       __catch$?_AfxActivationWndProc@@YGJPAUHWND__@@IIJ@Z$0 10023d76 f   nafxcw:wincore.obj
 0001:00023938       __catch$?CreateInstance@?$CMFCComObject@VCAccessibleProxy@ATL@@@@SGJPAPAV1@@Z$0 10024938 f i nafxcw:wincore.obj
 0001:000239b9       __catch$??1CWaitCursor@@QAE@XZ$0 100249b9 f i nafxcw:wincore.obj
 0001:00023cc7       __catch$?AfxRegisterClass@@YGHPAUtagWNDCLASSA@@@Z$0 10024cc7 f   nafxcw:wincore.obj
 0001:00024a70       __catch$??1CGdiObject@@UAE@XZ$0 10025a70 f i nafxcw:wingdi.obj
 0001:000251ea       _tidy_global               100261ea f   libcpmt:locale0.obj
 0001:00025afa       ?swfun@std@@YAXAAVios_base@1@H@Z 10026afa f   libcpmt:iomanip.obj
 0001:00025b9d       __ReleaseCPLocHash         10026b9d f   libcpmt:xmbtowc.obj
 0001:00025bdb       __InitCPLocHash            10026bdb f   libcpmt:xmbtowc.obj
 0001:00025db3       __initterm                 10026db3 f   LIBCMT:crt0dat.obj
 0001:00025ef0       _doexit                    10026ef0 f   LIBCMT:crt0dat.obj
 0001:000266f5       __onexit_nolock            100276f5 f   LIBCMT:onexit.obj
 0001:00026981       _flsall                    10027981 f   LIBCMT:fflush.obj
 0001:00027120       __callthreadstartex        10028120 f   LIBCMT:threadex.obj
 0001:00027161       __threadstartex@4          10028161 f   LIBCMT:threadex.obj
 0001:00027ec2       _vscan_fn                  10028ec2 f   LIBCMT:sscanf.obj
 0001:0002879c       ___DllMainCRTStartup       1002979c f   LIBCMT:dllcrt0.obj
 0001:00028a0a       ?CatchGuardHandler@@YA?AW4_EXCEPTION_DISPOSITION@@PAUEHExceptionRecord@@PAUCatchGuardRN@@PAX2@Z 10029a0a f   LIBCMT:trnsctrl.obj
 0001:00028b0f       ?TranslatorGuardHandler@@YA?AW4_EXCEPTION_DISPOSITION@@PAUEHExceptionRecord@@PAUTranslatorGuardRN@@PAX2@Z 10029b0f f   LIBCMT:trnsctrl.obj
 0001:0002b0db       ?x_ismbbtype_l@@YAHPAUlocaleinfo_struct@@IHH@Z 1002c0db f   LIBCMT:ismbbyte.obj
 0001:0002b3dd       __copytlocinfo_nolock      1002c3dd f   LIBCMT:setlocal.obj
 0001:0002b401       __updatetlocinfoEx_nolock  1002c401 f   LIBCMT:setlocal.obj
 0001:0002b4b5       _sync_legacy_variables_lk  1002c4b5 f   LIBCMT:setlocal.obj
 0001:0002b770       __setlocale_get_all        1002c770 f   LIBCMT:setlocal.obj
 0001:0002bab5       __setlocale_set_cat        1002cab5 f   LIBCMT:setlocal.obj
 0001:0002bdab       __setlocale_nolock         1002cdab f   LIBCMT:setlocal.obj
 0001:0002c104       ?__crtLCMapStringA_stat@@YAHPAUlocaleinfo_struct@@KKPBDHPADHHH@Z 1002d104 f   LIBCMT:a_map.obj
 0001:0002d5ad       ?ExFilterRethrow@@YAHPAU_EXCEPTION_POINTERS@@@Z 1002e5ad f   LIBCMT:frame.obj
 0001:0002d67e       ?IsInExceptionSpec@@YAEPAUEHExceptionRecord@@PBU_s_ESTypeList@@@Z 1002e67e f   LIBCMT:frame.obj
 0001:0002d6f7       ?CallUnexpected@@YAXPBU_s_ESTypeList@@@Z 1002e6f7 f   LIBCMT:frame.obj
 0001:0002d728       __catch$?CallUnexpected@@YAXPBU_s_ESTypeList@@@Z$0 1002e728 f   LIBCMT:frame.obj
 0001:0002d740       ?CallCatchBlock@@YAPAXPAUEHExceptionRecord@@PAUEHRegistrationNode@@PAU_CONTEXT@@PBU_s_FuncInfo@@PAXHK@Z 1002e740 f   LIBCMT:frame.obj
 0001:0002daec       ?CatchIt@@YAXPAUEHExceptionRecord@@PAUEHRegistrationNode@@PAU_CONTEXT@@PAXPBU_s_FuncInfo@@PBU_s_HandlerType@@PBU_s_CatchableType@@PBU_s_TryBlockMapEntry@@H1E@Z 1002eaec f   LIBCMT:frame.obj
 0001:0002db58       ?FindHandlerForForeignException@@YAXPAUEHExceptionRecord@@PAUEHRegistrationNode@@PAU_CONTEXT@@PAXPBU_s_FuncInfo@@HH1@Z 1002eb58 f   LIBCMT:frame.obj
 0001:0002dc4a       ?FindHandler@@YAXPAUEHExceptionRecord@@PAUEHRegistrationNode@@PAU_CONTEXT@@PAXPBU_s_FuncInfo@@EH1@Z 1002ec4a f   LIBCMT:frame.obj
 0001:0002e1ad       _xtoa_s@20                 1002f1ad f   LIBCMT:xtoas.obj
 0001:0002e2b0       __use_encode_pointer       1002f2b0 f   LIBCMT:tidtable.obj
 0001:0002f051       _siglookup                 10030051 f   LIBCMT:winsig.obj
 0001:0002f3ba       ___crtInitCritSecNoSpinCount@8 100303ba f   LIBCMT:initcrit.obj
 0001:00032855       _write_char                10033855 f   LIBCMT:outputs.obj
 0001:00032855       _write_char                10033855 f   LIBCMT:outputs.obj
 0001:00032888       _write_multi_char          10033888 f   LIBCMT:outputs.obj
 0001:00032888       _write_multi_char          10033888 f   LIBCMT:outputs.obj
 0001:000328ac       _write_string              100338ac f   LIBCMT:outputs.obj
 0001:000328ac       _write_string              100338ac f   LIBCMT:outputs.obj
 0001:000332a6       ?CPtoLCID@@YAHH@Z          100342a6 f   LIBCMT:mbctype.obj
 0001:000332d5       ?setSBCS@@YAXPAUthreadmbcinfostruct@@@Z 100342d5 f   LIBCMT:mbctype.obj
 0001:0003332a       ?setSBUpLow@@YAXPAUthreadmbcinfostruct@@@Z 1003432a f   LIBCMT:mbctype.obj
 0001:00033558       ?getSystemCP@@YAHH@Z       10034558 f   LIBCMT:mbctype.obj
 0001:00033e04       __unwind_handler4          10034e04 f   LIBCMT:exsup4.obj
 0001:00033ec7       ___check_float_string      10034ec7 f   LIBCMT:input.obj
 0001:00033f1b       __inc                      10034f1b f   LIBCMT:input.obj
 0001:00033f31       __whiteout                 10034f31 f   LIBCMT:input.obj
 0001:00034d78       _parse_cmdline             10035d78 f   LIBCMT:stdargv.obj
 0001:000353f9       _fastzero_I                100363f9 f   LIBCMT:p4_memset.obj
 0001:000356a4       __shift                    100366a4 f   LIBCMT:cvt.obj
 0001:000356dd       __cftoe2_l                 100366dd f   LIBCMT:cvt.obj
 0001:00035ca7       __cftof2_l                 10036ca7 f   LIBCMT:cvt.obj
 0001:00036082       ?strtoxl@@YAKPAUlocaleinfo_struct@@PBDPAPBDHH@Z 10037082 f   LIBCMT:strtol.obj
 0001:00036392       __get_lc_time              10037392 f   LIBCMT:inittime.obj
 0001:00036f03       _TranslateName             10037f03 f   LIBCMT:getqloc.obj
 0001:00036f63       _ProcessCodePage           10037f63 f   LIBCMT:getqloc.obj
 0001:00036fda       _TestDefaultCountry        10037fda f   LIBCMT:getqloc.obj
 0001:00036ff8       _LcidFromHexString         10037ff8 f   LIBCMT:getqloc.obj
 0001:0003702a       _GetPrimaryLen             1003802a f   LIBCMT:getqloc.obj
 0001:00037045       _CountryEnumProc@4         10038045 f   LIBCMT:getqloc.obj
 0001:000370db       _TestDefaultLanguage       100380db f   LIBCMT:getqloc.obj
 0001:0003714d       _LangCountryEnumProc@4     1003814d f   LIBCMT:getqloc.obj
 0001:0003731d       _LanguageEnumProc@4        1003831d f   LIBCMT:getqloc.obj
 0001:000373dc       _GetLcidFromLangCountry    100383dc f   LIBCMT:getqloc.obj
 0001:00037441       _GetLcidFromLanguage       10038441 f   LIBCMT:getqloc.obj
 0001:00037660       ?__crtGetStringTypeA_stat@@YAHPAUlocaleinfo_struct@@KPBDHPAGHHH@Z 10038660 f   LIBCMT:a_str.obj
 0001:00037b0f       _fastcopy_I                10038b0f f   LIBCMT:p4_memcpy.obj
 0001:000381c1       ?__crtGetLocaleInfoW_stat@@YAHPAUlocaleinfo_struct@@KKPA_WHH@Z 100391c1 f   LIBCMT:w_loc.obj
 0001:00038337       ?__crtGetLocaleInfoA_stat@@YAHPAUlocaleinfo_struct@@KKPADHH@Z 10039337 f   LIBCMT:a_loc.obj
 0001:00039537       __tsopen_nolock            1003a537 f   LIBCMT:open.obj
 0001:0003a148       __unwind_handler           1003b148 f   LIBCMT:exsup.obj
 0001:0003a2e1       _has_osfxsr_set            1003b2e1 f   LIBCMT:cpu_disp.obj
 0001:0003aafd       __tsopen_nolock            1003bafd f   LIBCMT:wopen.obj
 0001:0003b806       ?__crtGetStringTypeW_stat@@YAHPAUlocaleinfo_struct@@KPB_WHPAGHH@Z 1003c806 f   LIBCMT:w_str.obj
 0001:0003d472       __hw_cw                    1003e472 f   LIBCMT:ieee87.obj
 0001:0003d500       ___hw_cw_sse2              1003e500 f   LIBCMT:ieee87.obj
 0001:0003dbfc       ?__crtLCMapStringW_stat@@YAHPAUlocaleinfo_struct@@KKPB_WHPA_WHH@Z 1003ebfc f   LIBCMT:w_map.obj
 0001:0003e450       __unwindfunclet$??1AFX_MODULE_STATE@@UAE@XZ$0 1003f450 f   nafxcw:afxstate.obj
 0001:0003e45b       __unwindfunclet$??1AFX_MODULE_STATE@@UAE@XZ$1 1003f45b f   nafxcw:afxstate.obj
 0001:0003e466       __ehhandler$??1AFX_MODULE_STATE@@UAE@XZ 1003f466 f   nafxcw:afxstate.obj
 0001:0003e481       __unwindfunclet$??0AFX_MODULE_STATE@@QAE@H@Z$2 1003f481 f   nafxcw:afxstate.obj
 0001:0003e48c       __unwindfunclet$??0AFX_MODULE_STATE@@QAE@H@Z$3 1003f48c f   nafxcw:afxstate.obj
 0001:0003e497       __unwindfunclet$??0AFX_MODULE_STATE@@QAE@H@Z$4 1003f497 f   nafxcw:afxstate.obj
 0001:0003e4a0       __unwindfunclet$??0AFX_MODULE_STATE@@QAE@H@Z$5 1003f4a0 f   nafxcw:afxstate.obj
 0001:0003e4a9       __ehhandler$??0AFX_MODULE_STATE@@QAE@H@Z 1003f4a9 f   nafxcw:afxstate.obj
 0001:0003e4c4       __unwindfunclet$?CreateObject@?$CProcessLocal@V_AFX_BASE_MODULE_STATE@@@@SGPAVCNoTrackObject@@XZ$0 1003f4c4 f   nafxcw:afxstate.obj
 0001:0003e4cd       __ehhandler$?CreateObject@?$CProcessLocal@V_AFX_BASE_MODULE_STATE@@@@SGPAVCNoTrackObject@@XZ 1003f4cd f   nafxcw:afxstate.obj
 0001:0003e4e8       __ehhandler$?GetData@CProcessLocalObject@@QAEPAVCNoTrackObject@@P6GPAV2@XZ@Z 1003f4e8 f   nafxcw:afxtls.obj
 0001:0003e503       __ehhandler$?SetValue@CThreadSlotData@@QAEXHPAX@Z 1003f503 f   nafxcw:afxtls.obj
 0001:0003e51e       __unwindfunclet$?GetData@CThreadLocalObject@@QAEPAVCNoTrackObject@@P6GPAV2@XZ@Z$0 1003f51e f   nafxcw:afxtls.obj
 0001:0003e52e       __ehhandler$?GetData@CThreadLocalObject@@QAEPAVCNoTrackObject@@P6GPAV2@XZ@Z 1003f52e f   nafxcw:afxtls.obj
 0001:0003e549       __ehhandler$?AfxTermThread@@YGXPAUHINSTANCE__@@@Z 1003f549 f   nafxcw:thrdcore.obj
 0001:0003e564       __ehhandler$?FromHandle@CHandleMap@@QAEPAVCObject@@PAX@Z 1003f564 f   nafxcw:winhand.obj
 0001:0003e57f       __unwindfunclet$??0CHandleMap@@QAE@PAUCRuntimeClass@@P6GXPAVCObject@@@Z2IH@Z$0 1003f57f f   nafxcw:winhand.obj
 0001:0003e57f       __unwindfunclet$??1CHandleMap@@UAE@XZ$0 1003f57f f   nafxcw:winhand.obj
 0001:0003e58a       __unwindfunclet$??0CHandleMap@@QAE@PAUCRuntimeClass@@P6GXPAVCObject@@@Z2IH@Z$1 1003f58a f   nafxcw:winhand.obj
 0001:0003e58a       __unwindfunclet$??1CHandleMap@@UAE@XZ$1 1003f58a f   nafxcw:winhand.obj
 0001:0003e595       __unwindfunclet$??0CHandleMap@@QAE@PAUCRuntimeClass@@P6GXPAVCObject@@@Z2IH@Z$2 1003f595 f   nafxcw:winhand.obj
 0001:0003e595       __unwindfunclet$??1CHandleMap@@UAE@XZ$2 1003f595 f   nafxcw:winhand.obj
 0001:0003e5a0       __ehhandler$??1CHandleMap@@UAE@XZ 1003f5a0 f   nafxcw:winhand.obj
 0001:0003e5a0       __ehhandler$??0CHandleMap@@QAE@PAUCRuntimeClass@@P6GXPAVCObject@@@Z2IH@Z 1003f5a0 f   nafxcw:winhand.obj
 0001:0003e5bb       __unwindfunclet$??0?$CStringT@DV?$StrTraitMFC@DV?$ChTraitsCRT@D@ATL@@@@@ATL@@QAE@PBDPAUIAtlStringMgr@1@@Z$0 1003f5bb f   nafxcw:appterm.obj
 0001:0003e5c3       __ehhandler$??0?$CStringT@DV?$StrTraitMFC@DV?$ChTraitsCRT@D@ATL@@@@@ATL@@QAE@PBDPAUIAtlStringMgr@1@@Z 1003f5c3 f   nafxcw:appterm.obj
 0001:0003e5de       __unwindfunclet$?AfxUnregisterWndClasses@@YGXXZ$0 1003f5de f   nafxcw:appterm.obj
 0001:0003e5e6       __unwindfunclet$?AfxUnregisterWndClasses@@YGXXZ$1 1003f5e6 f   nafxcw:appterm.obj
 0001:0003e5ee       __ehhandler$?AfxUnregisterWndClasses@@YGXXZ 1003f5ee f   nafxcw:appterm.obj
 0001:0003e609       __unwindfunclet$??1AUX_DATA@@QAE@XZ$2 1003f609 f   nafxcw:auxdata.obj
 0001:0003e611       __ehhandler$??1AUX_DATA@@QAE@XZ 1003f611 f   nafxcw:auxdata.obj
 0001:0003e639       __unwindfunclet$??0CComCtlWrapper@@QAE@XZ$0 1003f639 f   nafxcw:appui1.obj
 0001:0003e639       __unwindfunclet$??0CCommDlgWrapper@@QAE@XZ$0 1003f639 f   nafxcw:appui1.obj
 0001:0003e639       __unwindfunclet$?AfxFormatStrings@@YGXAAV?$CStringT@DV?$StrTraitMFC@DV?$ChTraitsCRT@D@ATL@@@@@ATL@@IPBQBDH@Z$0 1003f639 f   nafxcw:appui1.obj
 0001:0003e639       __unwindfunclet$?AfxMessageBox@@YGHIII@Z$0 1003f639 f   nafxcw:appui1.obj
 0001:0003e641       __ehhandler$?AfxMessageBox@@YGHIII@Z 1003f641 f   nafxcw:appui1.obj
 0001:0003e641       __ehhandler$??0CComCtlWrapper@@QAE@XZ 1003f641 f   nafxcw:appui1.obj
 0001:0003e641       __ehhandler$?AfxFormatStrings@@YGXAAV?$CStringT@DV?$StrTraitMFC@DV?$ChTraitsCRT@D@ATL@@@@@ATL@@IPBQBDH@Z 1003f641 f   nafxcw:appui1.obj
 0001:0003e641       __ehhandler$??0CCommDlgWrapper@@QAE@XZ 1003f641 f   nafxcw:appui1.obj
 0001:0003e65c       __unwindfunclet$?GetErrorMessage@CArchiveException@@UBEHPADIPAI@Z$2 1003f65c f   nafxcw:arcex.obj
 0001:0003e664       __unwindfunclet$?GetErrorMessage@CArchiveException@@UBEHPADIPAI@Z$3 1003f664 f   nafxcw:arcex.obj
 0001:0003e66c       __ehhandler$?GetErrorMessage@CArchiveException@@UBEHPADIPAI@Z 1003f66c f   nafxcw:arcex.obj
 0001:0003e687       __unwindfunclet$??0CArchiveException@@QAE@HPBD@Z$0 1003f687 f   nafxcw:arcex.obj
 0001:0003e692       __ehhandler$??0CArchiveException@@QAE@HPBD@Z 1003f692 f   nafxcw:arcex.obj
 0001:0003e6ad       __unwindfunclet$?AfxThrowArchiveException@@YGXHPBD@Z$0 1003f6ad f   nafxcw:arcex.obj
 0001:0003e6b6       __ehhandler$?AfxThrowArchiveException@@YGXHPBD@Z 1003f6b6 f   nafxcw:arcex.obj
 0001:0003e6d1       __unwindfunclet$?AddRef@XAccessible@CWnd@@UAGKXZ$0 1003f6d1 f   nafxcw:wincore.obj
 0001:0003e6d1       __unwindfunclet$?get_accName@XAccessible@CWnd@@UAGJUtagVARIANT@@PAPA_W@Z$0 1003f6d1 f   nafxcw:wincore.obj
 0001:0003e6d1       __unwindfunclet$?SetProxy@XAccessibleServer@CWnd@@UAGJPAUIAccessibleProxy@@@Z$0 1003f6d1 f   nafxcw:wincore.obj
 0001:0003e6d1       __unwindfunclet$?get_accChild@XAccessible@CWnd@@UAGJUtagVARIANT@@PAPAUIDispatch@@@Z$0 1003f6d1 f   nafxcw:wincore.obj
 0001:0003e6d1       __unwindfunclet$?QueryInterface@XAccessibleServer@CWnd@@UAGJABU_GUID@@PAPAX@Z$0 1003f6d1 f   nafxcw:wincore.obj
 0001:0003e6d1       __unwindfunclet$?get_accChildCount@XAccessible@CWnd@@UAGJPAJ@Z$0 1003f6d1 f   nafxcw:wincore.obj
 0001:0003e6d1       __unwindfunclet$?Release@XAccessibleServer@CWnd@@UAGKXZ$0 1003f6d1 f   nafxcw:wincore.obj
 0001:0003e6d1       __unwindfunclet$?get_accParent@XAccessible@CWnd@@UAGJPAPAUIDispatch@@@Z$0 1003f6d1 f   nafxcw:wincore.obj
 0001:0003e6d1       __unwindfunclet$?AddRef@XAccessibleServer@CWnd@@UAGKXZ$0 1003f6d1 f   nafxcw:wincore.obj
 0001:0003e6d1       __unwindfunclet$?Invoke@XAccessible@CWnd@@UAGJJABU_GUID@@KGPAUtagDISPPARAMS@@PAUtagVARIANT@@PAUtagEXCEPINFO@@PAI@Z$0 1003f6d1 f   nafxcw:wincore.obj
 0001:0003e6d1       __unwindfunclet$?put_accValue@XAccessible@CWnd@@UAGJUtagVARIANT@@PA_W@Z$0 1003f6d1 f   nafxcw:wincore.obj
 0001:0003e6d1       __unwindfunclet$?get_accValue@XAccessible@CWnd@@UAGJUtagVARIANT@@PAPA_W@Z$0 1003f6d1 f   nafxcw:wincore.obj
 0001:0003e6d1       __unwindfunclet$?put_accName@XAccessible@CWnd@@UAGJUtagVARIANT@@PA_W@Z$0 1003f6d1 f   nafxcw:wincore.obj
 0001:0003e6d1       __unwindfunclet$?get_accDescription@XAccessible@CWnd@@UAGJUtagVARIANT@@PAPA_W@Z$0 1003f6d1 f   nafxcw:wincore.obj
 0001:0003e6d1       __unwindfunclet$?accDoDefaultAction@XAccessible@CWnd@@UAGJUtagVARIANT@@@Z$0 1003f6d1 f   nafxcw:wincore.obj
 0001:0003e6d1       __unwindfunclet$?Release@XAccessible@CWnd@@UAGKXZ$0 1003f6d1 f   nafxcw:wincore.obj
 0001:0003e6d1       __unwindfunclet$?accHitTest@XAccessible@CWnd@@UAGJJJPAUtagVARIANT@@@Z$0 1003f6d1 f   nafxcw:wincore.obj
 0001:0003e6d1       __unwindfunclet$?get_accRole@XAccessible@CWnd@@UAGJUtagVARIANT@@PAU3@@Z$0 1003f6d1 f   nafxcw:wincore.obj
 0001:0003e6d1       __unwindfunclet$?accNavigate@XAccessible@CWnd@@UAGJJUtagVARIANT@@PAU3@@Z$0 1003f6d1 f   nafxcw:wincore.obj
 0001:0003e6d1       __unwindfunclet$?InternalRelease@CCmdTarget@@QAEKXZ$0 1003f6d1 f   nafxcw:wincore.obj
 0001:0003e6d1       __unwindfunclet$?accLocation@XAccessible@CWnd@@UAGJPAJ000UtagVARIANT@@@Z$0 1003f6d1 f   nafxcw:wincore.obj
 0001:0003e6d1       __unwindfunclet$?get_accState@XAccessible@CWnd@@UAGJUtagVARIANT@@PAU3@@Z$0 1003f6d1 f   nafxcw:wincore.obj
 0001:0003e6d1       __unwindfunclet$?accSelect@XAccessible@CWnd@@UAGJJUtagVARIANT@@@Z$0 1003f6d1 f   nafxcw:wincore.obj
 0001:0003e6d1       __unwindfunclet$?get_accHelp@XAccessible@CWnd@@UAGJUtagVARIANT@@PAPA_W@Z$0 1003f6d1 f   nafxcw:wincore.obj
 0001:0003e6d1       __unwindfunclet$?get_accHelpTopic@XAccessible@CWnd@@UAGJPAPA_WUtagVARIANT@@PAJ@Z$0 1003f6d1 f   nafxcw:wincore.obj
 0001:0003e6d1       __unwindfunclet$?get_accKeyboardShortcut@XAccessible@CWnd@@UAGJUtagVARIANT@@PAPA_W@Z$0 1003f6d1 f   nafxcw:wincore.obj
 0001:0003e6d1       __unwindfunclet$?get_accSelection@XAccessible@CWnd@@UAGJPAUtagVARIANT@@@Z$0 1003f6d1 f   nafxcw:wincore.obj
 0001:0003e6d1       __unwindfunclet$?QueryInterface@XAccessible@CWnd@@UAGJABU_GUID@@PAPAX@Z$0 1003f6d1 f   nafxcw:wincore.obj
 0001:0003e6d1       __unwindfunclet$?get_accFocus@XAccessible@CWnd@@UAGJPAUtagVARIANT@@@Z$0 1003f6d1 f   nafxcw:wincore.obj
 0001:0003e6d1       __unwindfunclet$?get_accDefaultAction@XAccessible@CWnd@@UAGJUtagVARIANT@@PAPA_W@Z$0 1003f6d1 f   nafxcw:wincore.obj
 0001:0003e6d9       __ehhandler$?get_accFocus@XAccessible@CWnd@@UAGJPAUtagVARIANT@@@Z 1003f6d9 f   nafxcw:wincore.obj
 0001:0003e6d9       __ehhandler$?get_accSelection@XAccessible@CWnd@@UAGJPAUtagVARIANT@@@Z 1003f6d9 f   nafxcw:wincore.obj
 0001:0003e6d9       __ehhandler$?get_accHelpTopic@XAccessible@CWnd@@UAGJPAPA_WUtagVARIANT@@PAJ@Z 1003f6d9 f   nafxcw:wincore.obj
 0001:0003e6d9       __ehhandler$?AddRef@XAccessible@CWnd@@UAGKXZ 1003f6d9 f   nafxcw:wincore.obj
 0001:0003e6d9       __ehhandler$?get_accHelp@XAccessible@CWnd@@UAGJUtagVARIANT@@PAPA_W@Z 1003f6d9 f   nafxcw:wincore.obj
 0001:0003e6d9       __ehhandler$?get_accDefaultAction@XAccessible@CWnd@@UAGJUtagVARIANT@@PAPA_W@Z 1003f6d9 f   nafxcw:wincore.obj
 0001:0003e6d9       __ehhandler$?get_accState@XAccessible@CWnd@@UAGJUtagVARIANT@@PAU3@@Z 1003f6d9 f   nafxcw:wincore.obj
 0001:0003e6d9       __ehhandler$?accSelect@XAccessible@CWnd@@UAGJJUtagVARIANT@@@Z 1003f6d9 f   nafxcw:wincore.obj
 0001:0003e6d9       __ehhandler$?get_accRole@XAccessible@CWnd@@UAGJUtagVARIANT@@PAU3@@Z 1003f6d9 f   nafxcw:wincore.obj
 0001:0003e6d9       __ehhandler$?accLocation@XAccessible@CWnd@@UAGJPAJ000UtagVARIANT@@@Z 1003f6d9 f   nafxcw:wincore.obj
 0001:0003e6d9       __ehhandler$?InternalRelease@CCmdTarget@@QAEKXZ 1003f6d9 f   nafxcw:wincore.obj
 0001:0003e6d9       __ehhandler$?accNavigate@XAccessible@CWnd@@UAGJJUtagVARIANT@@PAU3@@Z 1003f6d9 f   nafxcw:wincore.obj
 0001:0003e6d9       __ehhandler$?accHitTest@XAccessible@CWnd@@UAGJJJPAUtagVARIANT@@@Z 1003f6d9 f   nafxcw:wincore.obj
 0001:0003e6d9       __ehhandler$?Release@XAccessible@CWnd@@UAGKXZ 1003f6d9 f   nafxcw:wincore.obj
 0001:0003e6d9       __ehhandler$?get_accDescription@XAccessible@CWnd@@UAGJUtagVARIANT@@PAPA_W@Z 1003f6d9 f   nafxcw:wincore.obj
 0001:0003e6d9       __ehhandler$?accDoDefaultAction@XAccessible@CWnd@@UAGJUtagVARIANT@@@Z 1003f6d9 f   nafxcw:wincore.obj
 0001:0003e6d9       __ehhandler$?get_accValue@XAccessible@CWnd@@UAGJUtagVARIANT@@PAPA_W@Z 1003f6d9 f   nafxcw:wincore.obj
 0001:0003e6d9       __ehhandler$?put_accName@XAccessible@CWnd@@UAGJUtagVARIANT@@PA_W@Z 1003f6d9 f   nafxcw:wincore.obj
 0001:0003e6d9       __ehhandler$?get_accChild@XAccessible@CWnd@@UAGJUtagVARIANT@@PAPAUIDispatch@@@Z 1003f6d9 f   nafxcw:wincore.obj
 0001:0003e6d9       __ehhandler$?QueryInterface@XAccessible@CWnd@@UAGJABU_GUID@@PAPAX@Z 1003f6d9 f   nafxcw:wincore.obj
 0001:0003e6d9       __ehhandler$?put_accValue@XAccessible@CWnd@@UAGJUtagVARIANT@@PA_W@Z 1003f6d9 f   nafxcw:wincore.obj
 0001:0003e6d9       __ehhandler$?Invoke@XAccessible@CWnd@@UAGJJABU_GUID@@KGPAUtagDISPPARAMS@@PAUtagVARIANT@@PAUtagEXCEPINFO@@PAI@Z 1003f6d9 f   nafxcw:wincore.obj
 0001:0003e6d9       __ehhandler$?AddRef@XAccessibleServer@CWnd@@UAGKXZ 1003f6d9 f   nafxcw:wincore.obj
 0001:0003e6d9       __ehhandler$?get_accParent@XAccessible@CWnd@@UAGJPAPAUIDispatch@@@Z 1003f6d9 f   nafxcw:wincore.obj
 0001:0003e6d9       __ehhandler$?Release@XAccessibleServer@CWnd@@UAGKXZ 1003f6d9 f   nafxcw:wincore.obj
 0001:0003e6d9       __ehhandler$?get_accName@XAccessible@CWnd@@UAGJUtagVARIANT@@PAPA_W@Z 1003f6d9 f   nafxcw:wincore.obj
 0001:0003e6d9       __ehhandler$?get_accChildCount@XAccessible@CWnd@@UAGJPAJ@Z 1003f6d9 f   nafxcw:wincore.obj
 0001:0003e6d9       __ehhandler$?QueryInterface@XAccessibleServer@CWnd@@UAGJABU_GUID@@PAPAX@Z 1003f6d9 f   nafxcw:wincore.obj
 0001:0003e6d9       __ehhandler$?SetProxy@XAccessibleServer@CWnd@@UAGJPAUIAccessibleProxy@@@Z 1003f6d9 f   nafxcw:wincore.obj
 0001:0003e6d9       __ehhandler$?get_accKeyboardShortcut@XAccessible@CWnd@@UAGJUtagVARIANT@@PAPA_W@Z 1003f6d9 f   nafxcw:wincore.obj
 0001:0003e6f4       __unwindfunclet$?AfxThrowOleException@@YGXJ@Z$0 1003f6f4 f   nafxcw:wincore.obj
 0001:0003e6f4       __unwindfunclet$?CreateObject@CWnd@@SGPAVCObject@@XZ$0 1003f6f4 f   nafxcw:wincore.obj
 0001:0003e6fd       __ehhandler$?CreateObject@CWnd@@SGPAVCObject@@XZ 1003f6fd f   nafxcw:wincore.obj
 0001:0003e6fd       __ehhandler$?AfxThrowOleException@@YGXJ@Z 1003f6fd f   nafxcw:wincore.obj
 0001:0003e718       __unwindfunclet$?Construct@?$ConstructDestruct@VCWnd@@@@SGXPAVCObject@@@Z$0 1003f718 f   nafxcw:wincore.obj
 0001:0003e724       __ehhandler$?Construct@?$ConstructDestruct@VCWnd@@@@SGXPAVCObject@@@Z 1003f724 f   nafxcw:wincore.obj
 0001:0003e73f       __ehhandler$?AfxCallWndProc@@YGJPAVCWnd@@PAUHWND__@@IIJ@Z 1003f73f f   nafxcw:wincore.obj
 0001:0003e75a       __unwindfunclet$??1CWnd@@UAE@XZ$0 1003f75a f   nafxcw:wincore.obj
 0001:0003e762       __ehhandler$??1CWnd@@UAE@XZ 1003f762 f   nafxcw:wincore.obj
 0001:0003e77d       __unwindfunclet$?ReflectLastMsg@CWnd@@KGHPAUHWND__@@PAJ@Z$0 1003f77d f   nafxcw:wincore.obj
 0001:0003e785       __ehhandler$?ReflectLastMsg@CWnd@@KGHPAUHWND__@@PAJ@Z 1003f785 f   nafxcw:wincore.obj
 0001:0003e7a0       __ehhandler$?_AfxActivationWndProc@@YGJPAUHWND__@@IIJ@Z 1003f7a0 f   nafxcw:wincore.obj
 0001:0003e7bb       __unwindfunclet$?_AfxCbtFilterHook@@YGJHIJ@Z$2 1003f7bb f   nafxcw:wincore.obj
 0001:0003e7c3       __ehhandler$?_AfxCbtFilterHook@@YGJHIJ@Z 1003f7c3 f   nafxcw:wincore.obj
 0001:0003e7eb       __unwindfunclet$?OnWndMsg@CWnd@@MAEHIIJPAJ@Z$9 1003f7eb f   nafxcw:wincore.obj
 0001:0003e7f3       __unwindfunclet$?OnWndMsg@CWnd@@MAEHIIJPAJ@Z$10 1003f7f3 f   nafxcw:wincore.obj
 0001:0003e7fb       __unwindfunclet$?OnWndMsg@CWnd@@MAEHIIJPAJ@Z$11 1003f7fb f   nafxcw:wincore.obj
 0001:0003e803       __unwindfunclet$?OnWndMsg@CWnd@@MAEHIIJPAJ@Z$12 1003f803 f   nafxcw:wincore.obj
 0001:0003e80b       __ehhandler$?OnWndMsg@CWnd@@MAEHIIJPAJ@Z 1003f80b f   nafxcw:wincore.obj
 0001:0003e826       __unwindfunclet$?CreateInstance@?$CMFCComObject@VCAccessibleProxy@ATL@@@@SGJPAPAV1@@Z$2 1003f826 f   nafxcw:wincore.obj
 0001:0003e830       __ehhandler$?CreateInstance@?$CMFCComObject@VCAccessibleProxy@ATL@@@@SGJPAPAV1@@Z 1003f830 f   nafxcw:wincore.obj
 0001:0003e84b       __unwindfunclet$??1CWaitCursor@@QAE@XZ$2 1003f84b f   nafxcw:wincore.obj
 0001:0003e853       __ehhandler$??1CWaitCursor@@QAE@XZ 1003f853 f   nafxcw:wincore.obj
 0001:0003e87b       __unwindfunclet$?WinHelpA@CWnd@@UAEXKI@Z$0 1003f87b f   nafxcw:wincore.obj
 0001:0003e87b       __unwindfunclet$?HtmlHelpA@CWnd@@UAEXKI@Z$0 1003f87b f   nafxcw:wincore.obj
 0001:0003e883       __ehhandler$?HtmlHelpA@CWnd@@UAEXKI@Z 1003f883 f   nafxcw:wincore.obj
 0001:0003e883       __ehhandler$?WinHelpA@CWnd@@UAEXKI@Z 1003f883 f   nafxcw:wincore.obj
 0001:0003e89e       __unwindfunclet$?CreateAccessibleProxy@CWnd@@UAEJIJPAJ@Z$0 1003f89e f   nafxcw:wincore.obj
 0001:0003e8a6       __ehhandler$?CreateAccessibleProxy@CWnd@@UAEJIJPAJ@Z 1003f8a6 f   nafxcw:wincore.obj
 0001:0003e8c1       __ehhandler$?AfxRegisterClass@@YGHPAUtagWNDCLASSA@@@Z 1003f8c1 f   nafxcw:wincore.obj
 0001:0003e8dc       __unwindfunclet$??1CGdiObject@@UAE@XZ$2 1003f8dc f   nafxcw:wingdi.obj
 0001:0003e8e4       __ehhandler$??1CGdiObject@@UAE@XZ 1003f8e4 f   nafxcw:wingdi.obj
 0001:0003e90c       __unwindfunclet$?afxMapHWND@@YGPAVCHandleMap@@H@Z$0 1003f90c f   nafxcw:winmenu.obj
 0001:0003e90c       __unwindfunclet$?afxMapHDC@@YGPAVCHandleMap@@H@Z$0 1003f90c f   nafxcw:winmenu.obj
 0001:0003e90c       __unwindfunclet$?afxMapHGDIOBJ@@YGPAVCHandleMap@@H@Z$0 1003f90c f   nafxcw:winmenu.obj
 0001:0003e90c       __unwindfunclet$?afxMapHMENU@@YGPAVCHandleMap@@H@Z$0 1003f90c f   nafxcw:winmenu.obj
 0001:0003e916       __ehhandler$?afxMapHWND@@YGPAVCHandleMap@@H@Z 1003f916 f   nafxcw:winmenu.obj
 0001:0003e916       __ehhandler$?afxMapHGDIOBJ@@YGPAVCHandleMap@@H@Z 1003f916 f   nafxcw:winmenu.obj
 0001:0003e916       __ehhandler$?afxMapHMENU@@YGPAVCHandleMap@@H@Z 1003f916 f   nafxcw:winmenu.obj
 0001:0003e916       __ehhandler$?afxMapHDC@@YGPAVCHandleMap@@H@Z 1003f916 f   nafxcw:winmenu.obj
 0001:0003e931       __unwindfunclet$?_Locimp_dtor@_Locimp@locale@std@@CAXPAV123@@Z$0 1003f931 f   libcpmt:locale0.obj
 0001:0003e939       __ehhandler$?_Locimp_dtor@_Locimp@locale@std@@CAXPAV123@@Z 1003f939 f   libcpmt:locale0.obj
 0001:0003e954       __unwindfunclet$??0_Locimp@locale@std@@AAE@_N@Z$0 1003f954 f   libcpmt:locale0.obj
 0001:0003e95c       __ehhandler$??0_Locimp@locale@std@@AAE@_N@Z 1003f95c f   libcpmt:locale0.obj
 0001:0003e977       __unwindfunclet$??1_Locimp@locale@std@@MAE@XZ$0 1003f977 f   libcpmt:locale0.obj
 0001:0003e97f       __unwindfunclet$??1_Locimp@locale@std@@MAE@XZ$1 1003f97f f   libcpmt:locale0.obj
 0001:0003e98a       __ehhandler$??1_Locimp@locale@std@@MAE@XZ 1003f98a f   libcpmt:locale0.obj
 0001:0003e9a5       __unwindfunclet$?_Init@locale@std@@CAPAV_Locimp@12@XZ$0 1003f9a5 f   libcpmt:locale0.obj
 0001:0003e9ad       __unwindfunclet$?_Init@locale@std@@CAPAV_Locimp@12@XZ$1 1003f9ad f   libcpmt:locale0.obj
 0001:0003e9b7       __ehhandler$?_Init@locale@std@@CAPAV_Locimp@12@XZ 1003f9b7 f   libcpmt:locale0.obj
 0001:0003e9d2       __unwindfunclet$?_Xran@_String_base@std@@SAXXZ$0 1003f9d2 f   libcpmt:string.obj
 0001:0003e9d2       __unwindfunclet$?_Xlen@_String_base@std@@SAXXZ$0 1003f9d2 f   libcpmt:string.obj
 0001:0003e9da       __ehhandler$?_Xran@_String_base@std@@SAXXZ 1003f9da f   libcpmt:string.obj
 0001:0003e9da       __ehhandler$?_Xlen@_String_base@std@@SAXXZ 1003f9da f   libcpmt:string.obj
 0001:0003e9f5       __ehhandler$?CallUnexpected@@YAXPBU_s_ESTypeList@@@Z 1003f9f5 f   LIBCMT:frame.obj
 0001:0003ea10       __ehhandler$?_Init@?$numpunct@D@std@@IAEXABV_Locinfo@2@@Z 1003fa10 f    CIL library: CIL module
 0001:0003ea30       __unwindfunclet$?_Erase@?$_Tree@V?$_Tmap_traits@VCZString@Value@Json@@V23@U?$less@VCZString@Value@Json@@@std@@V?$allocator@U?$pair@$$CBVCZString@Value@Json@@V23@@std@@@5@$0A@@std@@@std@@IAEXPAU_Node@?$_Tree_nod@V?$_Tmap_traits@VCZString@Value@Json@@V23@U?$less@VCZString@Value@Json@@@std@@V?$allocator@U?$pair@$$CBVCZString@Value@Json@@V23@@std@@@5@$0A@@std@@@2@@Z$1 1003fa30 f    CIL library: CIL module
 0001:0003ea38       __ehhandler$?_Erase@?$_Tree@V?$_Tmap_traits@VCZString@Value@Json@@V23@U?$less@VCZString@Value@Json@@@std@@V?$allocator@U?$pair@$$CBVCZString@Value@Json@@V23@@std@@@5@$0A@@std@@@std@@IAEXPAU_Node@?$_Tree_nod@V?$_Tmap_traits@VCZString@Value@Json@@V23@U?$less@VCZString@Value@Json@@@std@@V?$allocator@U?$pair@$$CBVCZString@Value@Json@@V23@@std@@@5@$0A@@std@@@2@@Z 1003fa38 f    CIL library: CIL module
 0001:0003ea60       __unwindfunclet$??1_Locinfo@std@@QAE@XZ$0 1003fa60 f    CIL library: CIL module
 0001:0003ea68       __unwindfunclet$??1_Locinfo@std@@QAE@XZ$1 1003fa68 f    CIL library: CIL module
 0001:0003ea73       __unwindfunclet$??1_Locinfo@std@@QAE@XZ$2 1003fa73 f    CIL library: CIL module
 0001:0003ea7e       __unwindfunclet$??1_Locinfo@std@@QAE@XZ$3 1003fa7e f    CIL library: CIL module
 0001:0003ea89       __unwindfunclet$??1_Locinfo@std@@QAE@XZ$4 1003fa89 f    CIL library: CIL module
 0001:0003ea94       __ehhandler$??1_Locinfo@std@@QAE@XZ 1003fa94 f    CIL library: CIL module
 0001:0003eab0       __ehhandler$?_Copy@?$basic_string@DU?$char_traits@D@std@@V?$allocator@D@2@@std@@IAEXII@Z 1003fab0 f    CIL library: CIL module
 0001:0003ead0       __unwindfunclet$??0?$basic_streambuf@DU?$char_traits@D@std@@@std@@IAE@XZ$0 1003fad0 f    CIL library: CIL module
 0001:0003eadb       __ehhandler$??0?$basic_streambuf@DU?$char_traits@D@std@@@std@@IAE@XZ 1003fadb f    CIL library: CIL module
 0001:0003eb00       __unwindfunclet$?uflow@?$basic_filebuf@DU?$char_traits@D@std@@@std@@MAEHXZ$0 1003fb00 f    CIL library: CIL module
 0001:0003eb08       __ehhandler$?uflow@?$basic_filebuf@DU?$char_traits@D@std@@@std@@MAEHXZ 1003fb08 f    CIL library: CIL module
 0001:0003eb30       __unwindfunclet$?overflow@?$basic_filebuf@DU?$char_traits@D@std@@@std@@MAEHH@Z$0 1003fb30 f    CIL library: CIL module
 0001:0003eb38       __ehhandler$?overflow@?$basic_filebuf@DU?$char_traits@D@std@@@std@@MAEHH@Z 1003fb38 f    CIL library: CIL module
 0001:0003eb60       __unwindfunclet$??0logic_error@std@@QAE@ABV01@@Z$0 1003fb60 f    CIL library: CIL module
 0001:0003eb60       __unwindfunclet$??0runtime_error@std@@QAE@ABV01@@Z$0 1003fb60 f    CIL library: CIL module
 0001:0003eb68       __ehhandler$??0runtime_error@std@@QAE@ABV01@@Z 1003fb68 f    CIL library: CIL module
 0001:0003eb68       __ehhandler$??0logic_error@std@@QAE@ABV01@@Z 1003fb68 f    CIL library: CIL module
 0001:0003eb90       __unwindfunclet$??0runtime_error@std@@QAE@ABV?$basic_string@DU?$char_traits@D@std@@V?$allocator@D@2@@1@@Z$0 1003fb90 f    CIL library: CIL module
 0001:0003eb98       __ehhandler$??0runtime_error@std@@QAE@ABV?$basic_string@DU?$char_traits@D@std@@V?$allocator@D@2@@1@@Z 1003fb98 f    CIL library: CIL module
 0001:0003ebc0       __unwindfunclet$??0logic_error@std@@QAE@ABV?$basic_string@DU?$char_traits@D@std@@V?$allocator@D@2@@1@@Z$0 1003fbc0 f    CIL library: CIL module
 0001:0003ebc8       __ehhandler$??0logic_error@std@@QAE@ABV?$basic_string@DU?$char_traits@D@std@@V?$allocator@D@2@@1@@Z 1003fbc8 f    CIL library: CIL module
 0001:0003ebf0       __unwindfunclet$??0?$basic_stringbuf@DU?$char_traits@D@std@@V?$allocator@D@2@@std@@QAE@H@Z$0 1003fbf0 f    CIL library: CIL module
 0001:0003ebf8       __ehhandler$??0?$basic_stringbuf@DU?$char_traits@D@std@@V?$allocator@D@2@@std@@QAE@H@Z 1003fbf8 f    CIL library: CIL module
 0001:0003ec20       __unwindfunclet$??1?$basic_ostringstream@DU?$char_traits@D@std@@V?$allocator@D@2@@std@@UAE@XZ$0 1003fc20 f    CIL library: CIL module
 0001:0003ec2b       __ehhandler$??1?$basic_ostringstream@DU?$char_traits@D@std@@V?$allocator@D@2@@std@@UAE@XZ 1003fc2b f    CIL library: CIL module
 0001:0003ec50       __unwindfunclet$?codePointToUTF8@Json@@YA?AV?$basic_string@DU?$char_traits@D@std@@V?$allocator@D@2@@std@@I@Z$0 1003fc50 f    CIL library: CIL module
 0001:0003ec69       __ehhandler$?codePointToUTF8@Json@@YA?AV?$basic_string@DU?$char_traits@D@std@@V?$allocator@D@2@@std@@I@Z 1003fc69 f    CIL library: CIL module
 0001:0003ec90       __ehhandler$??$_Construct@V?$istreambuf_iterator@DU?$char_traits@D@std@@@std@@@?$basic_string@DU?$char_traits@D@std@@V?$allocator@D@2@@std@@QAEXV?$istreambuf_iterator@DU?$char_traits@D@std@@@1@0Uinput_iterator_tag@1@@Z 1003fc90 f    CIL library: CIL module
 0001:0003ecb0       __unwindfunclet$?_Buynode@?$_Tree@V?$_Tset_traits@V?$basic_string@DU?$char_traits@D@std@@V?$allocator@D@2@@std@@U?$less@V?$basic_string@DU?$char_traits@D@std@@V?$allocator@D@2@@std@@@2@V?$allocator@V?$basic_string@DU?$char_traits@D@std@@V?$allocator@D@2@@std@@@2@$0A@@std@@@std@@IAEPAU_Node@?$_Tree_nod@V?$_Tset_traits@V?$basic_string@DU?$char_traits@D@std@@V?$allocator@D@2@@std@@U?$less@V?$basic_string@DU?$char_traits@D@std@@V?$allocator@D@2@@std@@@2@V?$allocator@V?$basic_string@DU?$char_traits@D@std@@V?$allocator@D@2@@std@@@2@$0A@@std@@@2@PAU342@00ABV?$basic_string@DU?$char_traits@D@std@@V?$allocator@D@2@@2@D@Z$2 1003fcb0 f    CIL library: CIL module
 0001:0003ecc1       __ehhandler$?_Buynode@?$_Tree@V?$_Tset_traits@V?$basic_string@DU?$char_traits@D@std@@V?$allocator@D@2@@std@@U?$less@V?$basic_string@DU?$char_traits@D@std@@V?$allocator@D@2@@std@@@2@V?$allocator@V?$basic_string@DU?$char_traits@D@std@@V?$allocator@D@2@@std@@@2@$0A@@std@@@std@@IAEPAU_Node@?$_Tree_nod@V?$_Tset_traits@V?$basic_string@DU?$char_traits@D@std@@V?$allocator@D@2@@std@@U?$less@V?$basic_string@DU?$char_traits@D@std@@V?$allocator@D@2@@std@@@2@V?$allocator@V?$basic_string@DU?$char_traits@D@std@@V?$allocator@D@2@@std@@@2@$0A@@std@@@2@PAU342@00ABV?$basic_string@DU?$char_traits@D@std@@V?$allocator@D@2@@2@D@Z 1003fcc1 f    CIL library: CIL module
 0001:0003ece0       __ehhandler$?_Copy@?$_Tree@V?$_Tset_traits@V?$basic_string@DU?$char_traits@D@std@@V?$allocator@D@2@@std@@U?$less@V?$basic_string@DU?$char_traits@D@std@@V?$allocator@D@2@@std@@@2@V?$allocator@V?$basic_string@DU?$char_traits@D@std@@V?$allocator@D@2@@std@@@2@$0A@@std@@@std@@IAEPAU_Node@?$_Tree_nod@V?$_Tset_traits@V?$basic_string@DU?$char_traits@D@std@@V?$allocator@D@2@@std@@U?$less@V?$basic_string@DU?$char_traits@D@std@@V?$allocator@D@2@@std@@@2@V?$allocator@V?$basic_string@DU?$char_traits@D@std@@V?$allocator@D@2@@std@@@2@$0A@@std@@@2@PAU342@0@Z 1003fce0 f    CIL library: CIL module
 0001:0003ed00       __ehhandler$?_Buynode@?$list@V?$basic_string@DU?$char_traits@D@std@@V?$allocator@D@2@@std@@V?$allocator@V?$basic_string@DU?$char_traits@D@std@@V?$allocator@D@2@@std@@@2@@std@@IAEPAU_Node@?$_List_nod@V?$basic_string@DU?$char_traits@D@std@@V?$allocator@D@2@@std@@V?$allocator@V?$basic_string@DU?$char_traits@D@std@@V?$allocator@D@2@@std@@@2@@2@PAU342@0ABV?$basic_string@DU?$char_traits@D@std@@V?$allocator@D@2@@2@@Z 1003fd00 f    CIL library: CIL module
 0001:0003ed20       __unwindfunclet$?_Buynode@?$_Tree@V?$_Tmap_traits@V?$basic_string@DU?$char_traits@D@std@@V?$allocator@D@2@@std@@PAUHINSTANCE__@@U?$less@V?$basic_string@DU?$char_traits@D@std@@V?$allocator@D@2@@std@@@2@V?$allocator@U?$pair@$$CBV?$basic_string@DU?$char_traits@D@std@@V?$allocator@D@2@@std@@PAUHINSTANCE__@@@std@@@2@$0A@@std@@@std@@IAEPAU_Node@?$_Tree_nod@V?$_Tmap_traits@V?$basic_string@DU?$char_traits@D@std@@V?$allocator@D@2@@std@@PAUHINSTANCE__@@U?$less@V?$basic_string@DU?$char_traits@D@std@@V?$allocator@D@2@@std@@@2@V?$allocator@U?$pair@$$CBV?$basic_string@DU?$char_traits@D@std@@V?$allocator@D@2@@std@@PAUHINSTANCE__@@@std@@@2@$0A@@std@@@2@PAU342@00ABU?$pair@$$CBV?$basic_string@DU?$char_traits@D@std@@V?$allocator@D@2@@std@@PAUHINSTANCE__@@@2@D@Z$2 1003fd20 f    CIL library: CIL module
 0001:0003ed20       __unwindfunclet$?_Buynode@?$_Tree@V?$_Tmap_traits@V?$basic_string@DU?$char_traits@D@std@@V?$allocator@D@2@@std@@HU?$less@V?$basic_string@DU?$char_traits@D@std@@V?$allocator@D@2@@std@@@2@V?$allocator@U?$pair@$$CBV?$basic_string@DU?$char_traits@D@std@@V?$allocator@D@2@@std@@H@std@@@2@$0A@@std@@@std@@IAEPAU_Node@?$_Tree_nod@V?$_Tmap_traits@V?$basic_string@DU?$char_traits@D@std@@V?$allocator@D@2@@std@@HU?$less@V?$basic_string@DU?$char_traits@D@std@@V?$allocator@D@2@@std@@@2@V?$allocator@U?$pair@$$CBV?$basic_string@DU?$char_traits@D@std@@V?$allocator@D@2@@std@@H@std@@@2@$0A@@std@@@2@PAU342@00ABU?$pair@$$CBV?$basic_string@DU?$char_traits@D@std@@V?$allocator@D@2@@std@@H@2@D@Z$2 1003fd20 f    CIL library: CIL module
 0001:0003ed31       __ehhandler$?_Buynode@?$_Tree@V?$_Tmap_traits@V?$basic_string@DU?$char_traits@D@std@@V?$allocator@D@2@@std@@HU?$less@V?$basic_string@DU?$char_traits@D@std@@V?$allocator@D@2@@std@@@2@V?$allocator@U?$pair@$$CBV?$basic_string@DU?$char_traits@D@std@@V?$allocator@D@2@@std@@H@std@@@2@$0A@@std@@@std@@IAEPAU_Node@?$_Tree_nod@V?$_Tmap_traits@V?$basic_string@DU?$char_traits@D@std@@V?$allocator@D@2@@std@@HU?$less@V?$basic_string@DU?$char_traits@D@std@@V?$allocator@D@2@@std@@@2@V?$allocator@U?$pair@$$CBV?$basic_string@DU?$char_traits@D@std@@V?$allocator@D@2@@std@@H@std@@@2@$0A@@std@@@2@PAU342@00ABU?$pair@$$CBV?$basic_string@DU?$char_traits@D@std@@V?$allocator@D@2@@std@@H@2@D@Z 1003fd31 f    CIL library: CIL module
 0001:0003ed31       __ehhandler$?_Buynode@?$_Tree@V?$_Tmap_traits@V?$basic_string@DU?$char_traits@D@std@@V?$allocator@D@2@@std@@PAUHINSTANCE__@@U?$less@V?$basic_string@DU?$char_traits@D@std@@V?$allocator@D@2@@std@@@2@V?$allocator@U?$pair@$$CBV?$basic_string@DU?$char_traits@D@std@@V?$allocator@D@2@@std@@PAUHINSTANCE__@@@std@@@2@$0A@@std@@@std@@IAEPAU_Node@?$_Tree_nod@V?$_Tmap_traits@V?$basic_string@DU?$char_traits@D@std@@V?$allocator@D@2@@std@@PAUHINSTANCE__@@U?$less@V?$basic_string@DU?$char_traits@D@std@@V?$allocator@D@2@@std@@@2@V?$allocator@U?$pair@$$CBV?$basic_string@DU?$char_traits@D@std@@V?$allocator@D@2@@std@@PAUHINSTANCE__@@@std@@@2@$0A@@std@@@2@PAU342@00ABU?$pair@$$CBV?$basic_string@DU?$char_traits@D@std@@V?$allocator@D@2@@std@@PAUHINSTANCE__@@@2@D@Z 1003fd31 f    CIL library: CIL module
 0001:0003ed50       __unwindfunclet$?_Endwrite@?$basic_filebuf@DU?$char_traits@D@std@@@std@@IAE_NXZ$0 1003fd50 f    CIL library: CIL module
 0001:0003ed58       __ehhandler$?_Endwrite@?$basic_filebuf@DU?$char_traits@D@std@@@std@@IAE_NXZ 1003fd58 f    CIL library: CIL module
 0001:0003ed80       __unwindfunclet$??1?$basic_filebuf@DU?$char_traits@D@std@@@std@@UAE@XZ$0 1003fd80 f    CIL library: CIL module
 0001:0003ed88       __ehhandler$??1?$basic_filebuf@DU?$char_traits@D@std@@@std@@UAE@XZ 1003fd88 f    CIL library: CIL module
 0001:0003edb0       __unwindfunclet$??1?$basic_ofstream@DU?$char_traits@D@std@@@std@@UAE@XZ$0 1003fdb0 f    CIL library: CIL module
 0001:0003edbb       __ehhandler$??1?$basic_ofstream@DU?$char_traits@D@std@@@std@@UAE@XZ 1003fdbb f    CIL library: CIL module
 0001:0003ede0       __unwindfunclet$?InitUpdateCore@@YAXABIABQAUHWND__@@0PBD222ABH@Z$0 1003fde0 f    CIL library: CIL module
 0001:0003ede8       __ehhandler$?InitUpdateCore@@YAXABIABQAUHWND__@@0PBD222ABH@Z 1003fde8 f    CIL library: CIL module
 0001:0003ee10       __unwindfunclet$?IF_Destroy@@YG_NXZ$0 1003fe10 f    CIL library: CIL module
 0001:0003ee18       __unwindfunclet$?IF_Destroy@@YG_NXZ$1 1003fe18 f    CIL library: CIL module
 0001:0003ee20       __unwindfunclet$?IF_Destroy@@YG_NXZ$2 1003fe20 f    CIL library: CIL module
 0001:0003ee28       __ehhandler$?IF_Destroy@@YG_NXZ 1003fe28 f    CIL library: CIL module
 0001:0003ee50       __unwindfunclet$?IF_InitEnvironment4@@YG_NABIABQAUHWND__@@0PBD222ABHAAH4@Z$0 1003fe50 f    CIL library: CIL module
 0001:0003ee58       __unwindfunclet$?IF_InitEnvironment4@@YG_NABIABQAUHWND__@@0PBD222ABHAAH4@Z$1 1003fe58 f    CIL library: CIL module
 0001:0003ee60       __unwindfunclet$?IF_InitEnvironment4@@YG_NABIABQAUHWND__@@0PBD222ABHAAH4@Z$2 1003fe60 f    CIL library: CIL module
 0001:0003ee68       __unwindfunclet$?IF_InitEnvironment4@@YG_NABIABQAUHWND__@@0PBD222ABHAAH4@Z$3 1003fe68 f    CIL library: CIL module
 0001:0003ee70       __ehhandler$?IF_InitEnvironment4@@YG_NABIABQAUHWND__@@0PBD222ABHAAH4@Z 1003fe70 f    CIL library: CIL module
 0001:0003eea0       __unwindfunclet$?IF_InitEnvironment3@@YG_NABIABQAUHWND__@@PBD222ABHPAXP6GXHH4@Z@Z$0 1003fea0 f    CIL library: CIL module
 0001:0003eea8       __unwindfunclet$?IF_InitEnvironment3@@YG_NABIABQAUHWND__@@PBD222ABHPAXP6GXHH4@Z@Z$1 1003fea8 f    CIL library: CIL module
 0001:0003eeb0       __unwindfunclet$?IF_InitEnvironment3@@YG_NABIABQAUHWND__@@PBD222ABHPAXP6GXHH4@Z@Z$2 1003feb0 f    CIL library: CIL module
 0001:0003eeb8       __ehhandler$?IF_InitEnvironment3@@YG_NABIABQAUHWND__@@PBD222ABHPAXP6GXHH4@Z@Z 1003feb8 f    CIL library: CIL module
 0001:0003eef0       __unwindfunclet$?IF_InitEnvironment2@@YG_NABIABQAUHWND__@@PBD222ABHP6GXHH@Z@Z$0 1003fef0 f    CIL library: CIL module
 0001:0003eef8       __unwindfunclet$?IF_InitEnvironment2@@YG_NABIABQAUHWND__@@PBD222ABHP6GXHH@Z@Z$1 1003fef8 f    CIL library: CIL module
 0001:0003ef00       __unwindfunclet$?IF_InitEnvironment2@@YG_NABIABQAUHWND__@@PBD222ABHP6GXHH@Z@Z$2 1003ff00 f    CIL library: CIL module
 0001:0003ef08       __ehhandler$?IF_InitEnvironment2@@YG_NABIABQAUHWND__@@PBD222ABHP6GXHH@Z@Z 1003ff08 f    CIL library: CIL module
 0001:0003ef30       __unwindfunclet$?recvFromBus@CommonFrameMain@@QAEHHPADHH@Z$0 1003ff30 f    CIL library: CIL module
 0001:0003ef38       __ehhandler$?recvFromBus@CommonFrameMain@@QAEHHPADHH@Z 1003ff38 f    CIL library: CIL module
 0001:0003ef60       __unwindfunclet$??0_Locinfo@std@@QAE@PBD@Z$0 1003ff60 f    CIL library: CIL module
 0001:0003ef68       __unwindfunclet$??0_Locinfo@std@@QAE@PBD@Z$1 1003ff68 f    CIL library: CIL module
 0001:0003ef73       __unwindfunclet$??0_Locinfo@std@@QAE@PBD@Z$2 1003ff73 f    CIL library: CIL module
 0001:0003ef7e       __unwindfunclet$??0_Locinfo@std@@QAE@PBD@Z$3 1003ff7e f    CIL library: CIL module
 0001:0003ef89       __unwindfunclet$??0_Locinfo@std@@QAE@PBD@Z$4 1003ff89 f    CIL library: CIL module
 0001:0003ef94       __ehhandler$??0_Locinfo@std@@QAE@PBD@Z 1003ff94 f    CIL library: CIL module
 0001:0003efb0       __unwindfunclet$??0?$numpunct@D@std@@QAE@I@Z$0 1003ffb0 f    CIL library: CIL module
 0001:0003efbb       __unwindfunclet$??0?$numpunct@D@std@@QAE@I@Z$1 1003ffbb f    CIL library: CIL module
 0001:0003efc8       __ehhandler$??0?$numpunct@D@std@@QAE@I@Z 1003ffc8 f    CIL library: CIL module
 0001:0003f000       __unwindfunclet$??0?$num_put@DV?$ostreambuf_iterator@DU?$char_traits@D@std@@@std@@@std@@QAE@I@Z$0 10040000 f    CIL library: CIL module
 0001:0003f00b       __ehhandler$??0?$num_put@DV?$ostreambuf_iterator@DU?$char_traits@D@std@@@std@@@std@@QAE@I@Z 1004000b f    CIL library: CIL module
 0001:0003f040       __unwindfunclet$?_Getcat@?$numpunct@D@std@@SAIPAPBVfacet@locale@2@@Z$0 10040040 f    CIL library: CIL module
 0001:0003f040       __unwindfunclet$?_Getcat@?$num_put@DV?$ostreambuf_iterator@DU?$char_traits@D@std@@@std@@@std@@SAIPAPBVfacet@locale@2@@Z$0 10040040 f    CIL library: CIL module
 0001:0003f040       __unwindfunclet$?setComment@Value@Json@@QAEXPBDW4CommentPlacement@2@@Z$0 10040040 f    CIL library: CIL module
 0001:0003f040       __unwindfunclet$?_Getcat@?$ctype@D@std@@SAIPAPBVfacet@locale@2@@Z$0 10040040 f    CIL library: CIL module
 0001:0003f040       __unwindfunclet$?_Getcat@?$codecvt@DDH@std@@SAIPAPBVfacet@locale@2@@Z$0 10040040 f    CIL library: CIL module
 0001:0003f04b       __ehhandler$?_Getcat@?$codecvt@DDH@std@@SAIPAPBVfacet@locale@2@@Z 1004004b f    CIL library: CIL module
 0001:0003f04b       __ehhandler$?_Getcat@?$numpunct@D@std@@SAIPAPBVfacet@locale@2@@Z 1004004b f    CIL library: CIL module
 0001:0003f04b       __ehhandler$?_Getcat@?$ctype@D@std@@SAIPAPBVfacet@locale@2@@Z 1004004b f    CIL library: CIL module
 0001:0003f04b       __ehhandler$?setComment@Value@Json@@QAEXPBDW4CommentPlacement@2@@Z 1004004b f    CIL library: CIL module
 0001:0003f04b       __ehhandler$?_Getcat@?$num_put@DV?$ostreambuf_iterator@DU?$char_traits@D@std@@@std@@@std@@SAIPAPBVfacet@locale@2@@Z 1004004b f    CIL library: CIL module
 0001:0003f070       __unwindfunclet$??$use_facet@V?$codecvt@DDH@std@@@std@@YAABV?$codecvt@DDH@0@ABVlocale@0@@Z$0 10040070 f    CIL library: CIL module
 0001:0003f070       __unwindfunclet$??$use_facet@V?$ctype@D@std@@@std@@YAABV?$ctype@D@0@ABVlocale@0@@Z$0 10040070 f    CIL library: CIL module
 0001:0003f070       __unwindfunclet$??$use_facet@V?$numpunct@D@std@@@std@@YAABV?$numpunct@D@0@ABVlocale@0@@Z$0 10040070 f    CIL library: CIL module
 0001:0003f070       __unwindfunclet$??$use_facet@V?$num_put@DV?$ostreambuf_iterator@DU?$char_traits@D@std@@@std@@@std@@@std@@YAABV?$num_put@DV?$ostreambuf_iterator@DU?$char_traits@D@std@@@std@@@0@ABVlocale@0@@Z$0 10040070 f    CIL library: CIL module
 0001:0003f078       __ehhandler$??$use_facet@V?$numpunct@D@std@@@std@@YAABV?$numpunct@D@0@ABVlocale@0@@Z 10040078 f    CIL library: CIL module
 0001:0003f078       __ehhandler$??$use_facet@V?$num_put@DV?$ostreambuf_iterator@DU?$char_traits@D@std@@@std@@@std@@@std@@YAABV?$num_put@DV?$ostreambuf_iterator@DU?$char_traits@D@std@@@std@@@0@ABVlocale@0@@Z 10040078 f    CIL library: CIL module
 0001:0003f078       __ehhandler$??$use_facet@V?$codecvt@DDH@std@@@std@@YAABV?$codecvt@DDH@0@ABVlocale@0@@Z 10040078 f    CIL library: CIL module
 0001:0003f078       __ehhandler$??$use_facet@V?$ctype@D@std@@@std@@YAABV?$ctype@D@0@ABVlocale@0@@Z 10040078 f    CIL library: CIL module
 0001:0003f0a0       __unwindfunclet$?_Iput@?$num_put@DV?$ostreambuf_iterator@DU?$char_traits@D@std@@@std@@@std@@ABA?AV?$ostreambuf_iterator@DU?$char_traits@D@std@@@2@V32@AAVios_base@2@DPADI@Z$0 100400a0 f    CIL library: CIL module
 0001:0003f0a8       __unwindfunclet$?_Iput@?$num_put@DV?$ostreambuf_iterator@DU?$char_traits@D@std@@@std@@@std@@ABA?AV?$ostreambuf_iterator@DU?$char_traits@D@std@@@2@V32@AAVios_base@2@DPADI@Z$1 100400a8 f    CIL library: CIL module
 0001:0003f0b0       __ehhandler$?_Iput@?$num_put@DV?$ostreambuf_iterator@DU?$char_traits@D@std@@@std@@@std@@ABA?AV?$ostreambuf_iterator@DU?$char_traits@D@std@@@2@V32@AAVios_base@2@DPADI@Z 100400b0 f    CIL library: CIL module
 0001:0003f0e0       __unwindfunclet$?_Fput@?$num_put@DV?$ostreambuf_iterator@DU?$char_traits@D@std@@@std@@@std@@ABA?AV?$ostreambuf_iterator@DU?$char_traits@D@std@@@2@V32@AAVios_base@2@DPBDIIII@Z$0 100400e0 f    CIL library: CIL module
 0001:0003f0e8       __unwindfunclet$?_Fput@?$num_put@DV?$ostreambuf_iterator@DU?$char_traits@D@std@@@std@@@std@@ABA?AV?$ostreambuf_iterator@DU?$char_traits@D@std@@@2@V32@AAVios_base@2@DPBDIIII@Z$1 100400e8 f    CIL library: CIL module
 0001:0003f0f0       __unwindfunclet$?_Fput@?$num_put@DV?$ostreambuf_iterator@DU?$char_traits@D@std@@@std@@@std@@ABA?AV?$ostreambuf_iterator@DU?$char_traits@D@std@@@2@V32@AAVios_base@2@DPBDIIII@Z$2 100400f0 f    CIL library: CIL module
 0001:0003f0f8       __ehhandler$?_Fput@?$num_put@DV?$ostreambuf_iterator@DU?$char_traits@D@std@@@std@@@std@@ABA?AV?$ostreambuf_iterator@DU?$char_traits@D@std@@@2@V32@AAVios_base@2@DPBDIIII@Z 100400f8 f    CIL library: CIL module
 0001:0003f120       __unwindfunclet$?do_put@?$num_put@DV?$ostreambuf_iterator@DU?$char_traits@D@std@@@std@@@std@@MBE?AV?$ostreambuf_iterator@DU?$char_traits@D@std@@@2@V32@AAVios_base@2@D_N@Z$0 10040120 f    CIL library: CIL module
 0001:0003f128       __unwindfunclet$?do_put@?$num_put@DV?$ostreambuf_iterator@DU?$char_traits@D@std@@@std@@@std@@MBE?AV?$ostreambuf_iterator@DU?$char_traits@D@std@@@2@V32@AAVios_base@2@D_N@Z$1 10040128 f    CIL library: CIL module
 0001:0003f130       __unwindfunclet$?do_put@?$num_put@DV?$ostreambuf_iterator@DU?$char_traits@D@std@@@std@@@std@@MBE?AV?$ostreambuf_iterator@DU?$char_traits@D@std@@@2@V32@AAVios_base@2@D_N@Z$2 10040130 f    CIL library: CIL module
 0001:0003f138       __unwindfunclet$?do_put@?$num_put@DV?$ostreambuf_iterator@DU?$char_traits@D@std@@@std@@@std@@MBE?AV?$ostreambuf_iterator@DU?$char_traits@D@std@@@2@V32@AAVios_base@2@D_N@Z$3 10040138 f    CIL library: CIL module
 0001:0003f140       __ehhandler$?do_put@?$num_put@DV?$ostreambuf_iterator@DU?$char_traits@D@std@@@std@@@std@@MBE?AV?$ostreambuf_iterator@DU?$char_traits@D@std@@@2@V32@AAVios_base@2@D_N@Z 10040140 f    CIL library: CIL module
 0001:0003f170       __unwindfunclet$?str@?$basic_stringbuf@DU?$char_traits@D@std@@V?$allocator@D@2@@std@@QBE?AV?$basic_string@DU?$char_traits@D@std@@V?$allocator@D@2@@2@XZ$0 10040170 f    CIL library: CIL module
 0001:0003f178       __unwindfunclet$?str@?$basic_stringbuf@DU?$char_traits@D@std@@V?$allocator@D@2@@std@@QBE?AV?$basic_string@DU?$char_traits@D@std@@V?$allocator@D@2@@2@XZ$2 10040178 f    CIL library: CIL module
 0001:0003f180       __unwindfunclet$?str@?$basic_stringbuf@DU?$char_traits@D@std@@V?$allocator@D@2@@std@@QBE?AV?$basic_string@DU?$char_traits@D@std@@V?$allocator@D@2@@2@XZ$3 10040180 f    CIL library: CIL module
 0001:0003f188       __ehhandler$?str@?$basic_stringbuf@DU?$char_traits@D@std@@V?$allocator@D@2@@std@@QBE?AV?$basic_string@DU?$char_traits@D@std@@V?$allocator@D@2@@2@XZ 10040188 f    CIL library: CIL module
 0001:0003f1b0       __unwindfunclet$??$_Uninit_move@PAV?$basic_string@DU?$char_traits@D@std@@V?$allocator@D@2@@std@@PAV12@V?$allocator@V?$basic_string@DU?$char_traits@D@std@@V?$allocator@D@2@@std@@@2@@std@@YAPAV?$basic_string@DU?$char_traits@D@std@@V?$allocator@D@2@@0@PAV10@00AAV?$allocator@V?$basic_string@DU?$char_traits@D@std@@V?$allocator@D@2@@std@@@0@U_Swap_move_tag@0@U_Range_checked_iterator_tag@0@@Z$2 100401b0 f    CIL library: CIL module
 0001:0003f1b8       __unwindfunclet$??$_Uninit_move@PAV?$basic_string@DU?$char_traits@D@std@@V?$allocator@D@2@@std@@PAV12@V?$allocator@V?$basic_string@DU?$char_traits@D@std@@V?$allocator@D@2@@std@@@2@@std@@YAPAV?$basic_string@DU?$char_traits@D@std@@V?$allocator@D@2@@0@PAV10@00AAV?$allocator@V?$basic_string@DU?$char_traits@D@std@@V?$allocator@D@2@@std@@@0@U_Swap_move_tag@0@U_Range_checked_iterator_tag@0@@Z$3 100401b8 f    CIL library: CIL module
 0001:0003f1c9       __ehhandler$??$_Uninit_move@PAV?$basic_string@DU?$char_traits@D@std@@V?$allocator@D@2@@std@@PAV12@V?$allocator@V?$basic_string@DU?$char_traits@D@std@@V?$allocator@D@2@@std@@@2@@std@@YAPAV?$basic_string@DU?$char_traits@D@std@@V?$allocator@D@2@@0@PAV10@00AAV?$allocator@V?$basic_string@DU?$char_traits@D@std@@V?$allocator@D@2@@std@@@0@U_Swap_move_tag@0@U_Range_checked_iterator_tag@0@@Z 100401c9 f    CIL library: CIL module
 0001:0003f1f0       __unwindfunclet$??$_Uninit_copy@PBV?$basic_string@DU?$char_traits@D@std@@V?$allocator@D@2@@std@@PAV12@V?$allocator@V?$basic_string@DU?$char_traits@D@std@@V?$allocator@D@2@@std@@@2@@std@@YAPAV?$basic_string@DU?$char_traits@D@std@@V?$allocator@D@2@@0@PBV10@0PAV10@AAV?$allocator@V?$basic_string@DU?$char_traits@D@std@@V?$allocator@D@2@@std@@@0@U_Nonscalar_ptr_iterator_tag@0@U_Range_checked_iterator_tag@0@@Z$2 100401f0 f    CIL library: CIL module
 0001:0003f201       __ehhandler$??$_Uninit_copy@PBV?$basic_string@DU?$char_traits@D@std@@V?$allocator@D@2@@std@@PAV12@V?$allocator@V?$basic_string@DU?$char_traits@D@std@@V?$allocator@D@2@@std@@@2@@std@@YAPAV?$basic_string@DU?$char_traits@D@std@@V?$allocator@D@2@@0@PBV10@0PAV10@AAV?$allocator@V?$basic_string@DU?$char_traits@D@std@@V?$allocator@D@2@@std@@@0@U_Nonscalar_ptr_iterator_tag@0@U_Range_checked_iterator_tag@0@@Z 10040201 f    CIL library: CIL module
 0001:0003f220       __unwindfunclet$??$_Uninit_fill_n@PAV?$basic_string@DU?$char_traits@D@std@@V?$allocator@D@2@@std@@IV12@V?$allocator@V?$basic_string@DU?$char_traits@D@std@@V?$allocator@D@2@@std@@@2@@std@@YAXPAV?$basic_string@DU?$char_traits@D@std@@V?$allocator@D@2@@0@IABV10@AAV?$allocator@V?$basic_string@DU?$char_traits@D@std@@V?$allocator@D@2@@std@@@0@U_Nonscalar_ptr_iterator_tag@0@U_Range_checked_iterator_tag@0@@Z$2 10040220 f    CIL library: CIL module
 0001:0003f231       __ehhandler$??$_Uninit_fill_n@PAV?$basic_string@DU?$char_traits@D@std@@V?$allocator@D@2@@std@@IV12@V?$allocator@V?$basic_string@DU?$char_traits@D@std@@V?$allocator@D@2@@std@@@2@@std@@YAXPAV?$basic_string@DU?$char_traits@D@std@@V?$allocator@D@2@@0@IABV10@AAV?$allocator@V?$basic_string@DU?$char_traits@D@std@@V?$allocator@D@2@@std@@@0@U_Nonscalar_ptr_iterator_tag@0@U_Range_checked_iterator_tag@0@@Z 10040231 f    CIL library: CIL module
 0001:0003f250       __ehhandler$?reserve@?$vector@V?$basic_string@DU?$char_traits@D@std@@V?$allocator@D@2@@std@@V?$allocator@V?$basic_string@DU?$char_traits@D@std@@V?$allocator@D@2@@std@@@2@@std@@QAEXI@Z 10040250 f    CIL library: CIL module
 0001:0003f270       __ehhandler$??0?$vector@V?$basic_string@DU?$char_traits@D@std@@V?$allocator@D@2@@std@@V?$allocator@V?$basic_string@DU?$char_traits@D@std@@V?$allocator@D@2@@std@@@2@@std@@QAE@ABV01@@Z 10040270 f    CIL library: CIL module
 0001:0003f290       __unwindfunclet$??AValue@Json@@QBEABV01@I@Z$0 10040290 f    CIL library: CIL module
 0001:0003f290       __unwindfunclet$??AValue@Json@@QBEABV01@PBD@Z$0 10040290 f    CIL library: CIL module
 0001:0003f298       __ehhandler$??AValue@Json@@QBEABV01@PBD@Z 10040298 f    CIL library: CIL module
 0001:0003f298       __ehhandler$??AValue@Json@@QBEABV01@I@Z 10040298 f    CIL library: CIL module
 0001:0003f2c0       __unwindfunclet$?asDouble@Value@Json@@QBENXZ$0 100402c0 f    CIL library: CIL module
 0001:0003f2c8       __ehhandler$?asDouble@Value@Json@@QBENXZ 100402c8 f    CIL library: CIL module
 0001:0003f2f0       __unwindfunclet$?asUInt@Value@Json@@QBEIXZ$0 100402f0 f    CIL library: CIL module
 0001:0003f2fb       __unwindfunclet$?asUInt@Value@Json@@QBEIXZ$1 100402fb f    CIL library: CIL module
 0001:0003f306       __unwindfunclet$?asUInt@Value@Json@@QBEIXZ$2 10040306 f    CIL library: CIL module
 0001:0003f311       __ehhandler$?asUInt@Value@Json@@QBEIXZ 10040311 f    CIL library: CIL module
 0001:0003f340       __unwindfunclet$?asInt@Value@Json@@QBEHXZ$0 10040340 f    CIL library: CIL module
 0001:0003f34b       __unwindfunclet$?asInt@Value@Json@@QBEHXZ$1 1004034b f    CIL library: CIL module
 0001:0003f356       __unwindfunclet$?asInt@Value@Json@@QBEHXZ$2 10040356 f    CIL library: CIL module
 0001:0003f361       __ehhandler$?asInt@Value@Json@@QBEHXZ 10040361 f    CIL library: CIL module
 0001:0003f390       __unwindfunclet$?asString@Value@Json@@QBE?AV?$basic_string@DU?$char_traits@D@std@@V?$allocator@D@2@@std@@XZ$1 10040390 f    CIL library: CIL module
 0001:0003f398       __ehhandler$?asString@Value@Json@@QBE?AV?$basic_string@DU?$char_traits@D@std@@V?$allocator@D@2@@std@@XZ 10040398 f    CIL library: CIL module
 0001:0003f3c0       __unwindfunclet$?setComment@CommentInfo@Value@Json@@QAEXPBD@Z$0 100403c0 f    CIL library: CIL module
 0001:0003f3c8       __ehhandler$?setComment@CommentInfo@Value@Json@@QAEXPBD@Z 100403c8 f    CIL library: CIL module
 0001:0003f3f0       __unwindfunclet$??$_Construct@VErrorInfo@Reader@Json@@V123@@std@@YAXPAVErrorInfo@Reader@Json@@ABV123@@Z$0 100403f0 f    CIL library: CIL module
 0001:0003f3f0       __unwindfunclet$??$_Construct@V?$basic_string@DU?$char_traits@D@std@@V?$allocator@D@2@@std@@V12@@std@@YAXPAV?$basic_string@DU?$char_traits@D@std@@V?$allocator@D@2@@0@ABV10@@Z$0 100403f0 f    CIL library: CIL module
 0001:0003f401       __ehhandler$??$_Construct@V?$basic_string@DU?$char_traits@D@std@@V?$allocator@D@2@@std@@V12@@std@@YAXPAV?$basic_string@DU?$char_traits@D@std@@V?$allocator@D@2@@0@ABV10@@Z 10040401 f    CIL library: CIL module
 0001:0003f401       __ehhandler$??$_Construct@VErrorInfo@Reader@Json@@V123@@std@@YAXPAVErrorInfo@Reader@Json@@ABV123@@Z 10040401 f    CIL library: CIL module
 0001:0003f420       __unwindfunclet$?_Incsize@?$list@V?$basic_string@DU?$char_traits@D@std@@V?$allocator@D@2@@std@@V?$allocator@V?$basic_string@DU?$char_traits@D@std@@V?$allocator@D@2@@std@@@2@@std@@IAEXI@Z$0 10040420 f    CIL library: CIL module
 0001:0003f420       __unwindfunclet$?_Xlen@?$vector@V?$basic_string@DU?$char_traits@D@std@@V?$allocator@D@2@@std@@V?$allocator@V?$basic_string@DU?$char_traits@D@std@@V?$allocator@D@2@@std@@@2@@std@@KAXXZ$0 10040420 f    CIL library: CIL module
 0001:0003f420       __unwindfunclet$?_Xlen@?$deque@PAVValue@Json@@V?$allocator@PAVValue@Json@@@std@@@std@@KAXXZ$0 10040420 f    CIL library: CIL module
 0001:0003f420       __unwindfunclet$?_Xlen@?$deque@VErrorInfo@Reader@Json@@V?$allocator@VErrorInfo@Reader@Json@@@std@@@std@@KAXXZ$0 10040420 f    CIL library: CIL module
 0001:0003f428       __ehhandler$?_Incsize@?$list@V?$basic_string@DU?$char_traits@D@std@@V?$allocator@D@2@@std@@V?$allocator@V?$basic_string@DU?$char_traits@D@std@@V?$allocator@D@2@@std@@@2@@std@@IAEXI@Z 10040428 f    CIL library: CIL module
 0001:0003f428       __ehhandler$?_Xlen@?$deque@VErrorInfo@Reader@Json@@V?$allocator@VErrorInfo@Reader@Json@@@std@@@std@@KAXXZ 10040428 f    CIL library: CIL module
 0001:0003f428       __ehhandler$?_Xlen@?$vector@V?$basic_string@DU?$char_traits@D@std@@V?$allocator@D@2@@std@@V?$allocator@V?$basic_string@DU?$char_traits@D@std@@V?$allocator@D@2@@std@@@2@@std@@KAXXZ 10040428 f    CIL library: CIL module
 0001:0003f428       __ehhandler$?_Xlen@?$deque@PAVValue@Json@@V?$allocator@PAVValue@Json@@@std@@@std@@KAXXZ 10040428 f    CIL library: CIL module
 0001:0003f450       __unwindfunclet$?addError@Reader@Json@@AAE_NABV?$basic_string@DU?$char_traits@D@std@@V?$allocator@D@2@@std@@AAVToken@12@PBD@Z$0 10040450 f    CIL library: CIL module
 0001:0003f458       __ehhandler$?addError@Reader@Json@@AAE_NABV?$basic_string@DU?$char_traits@D@std@@V?$allocator@D@2@@std@@AAVToken@12@PBD@Z 10040458 f    CIL library: CIL module
 0001:0003f480       __unwindfunclet$?decodeUnicodeEscapeSequence@Reader@Json@@AAE_NAAVToken@12@AAPBDPBDAAI@Z$0 10040480 f    CIL library: CIL module
 0001:0003f488       __unwindfunclet$?decodeUnicodeEscapeSequence@Reader@Json@@AAE_NAAVToken@12@AAPBDPBDAAI@Z$1 10040488 f    CIL library: CIL module
 0001:0003f490       __ehhandler$?decodeUnicodeEscapeSequence@Reader@Json@@AAE_NAAVToken@12@AAPBDPBDAAI@Z 10040490 f    CIL library: CIL module
 0001:0003f4b0       __unwindfunclet$?decodeUnicodeCodePoint@Reader@Json@@AAE_NAAVToken@12@AAPBDPBDAAI@Z$0 100404b0 f    CIL library: CIL module
 0001:0003f4b8       __unwindfunclet$?decodeUnicodeCodePoint@Reader@Json@@AAE_NAAVToken@12@AAPBDPBDAAI@Z$1 100404b8 f    CIL library: CIL module
 0001:0003f4c0       __ehhandler$?decodeUnicodeCodePoint@Reader@Json@@AAE_NAAVToken@12@AAPBDPBDAAI@Z 100404c0 f    CIL library: CIL module
 0001:0003f4e0       __unwindfunclet$?decodeString@Reader@Json@@AAE_NAAVToken@12@AAV?$basic_string@DU?$char_traits@D@std@@V?$allocator@D@2@@std@@@Z$1 100404e0 f    CIL library: CIL module
 0001:0003f4e8       __unwindfunclet$?decodeString@Reader@Json@@AAE_NAAVToken@12@AAV?$basic_string@DU?$char_traits@D@std@@V?$allocator@D@2@@std@@@Z$0 100404e8 f    CIL library: CIL module
 0001:0003f4f0       __unwindfunclet$?decodeString@Reader@Json@@AAE_NAAVToken@12@AAV?$basic_string@DU?$char_traits@D@std@@V?$allocator@D@2@@std@@@Z$2 100404f0 f    CIL library: CIL module
 0001:0003f4f8       __ehhandler$?decodeString@Reader@Json@@AAE_NAAVToken@12@AAV?$basic_string@DU?$char_traits@D@std@@V?$allocator@D@2@@std@@@Z 100404f8 f    CIL library: CIL module
 0001:0003f520       __unwindfunclet$??0?$CStringT@DV?$StrTraitMFC@DV?$ChTraitsCRT@D@ATL@@@@@ATL@@QAE@PBD@Z$0 10040520 f    CIL library: CIL module
 0001:0003f528       __ehhandler$??0?$CStringT@DV?$StrTraitMFC@DV?$ChTraitsCRT@D@ATL@@@@@ATL@@QAE@PBD@Z 10040528 f    CIL library: CIL module
 0001:0003f550       __unwindfunclet$??0?$codecvt@DDH@std@@QAE@I@Z$0 10040550 f    CIL library: CIL module
 0001:0003f55b       __ehhandler$??0?$codecvt@DDH@std@@QAE@I@Z 1004055b f    CIL library: CIL module
 0001:0003f590       __unwindfunclet$??$?HDU?$char_traits@D@std@@V?$allocator@D@1@@std@@YA?AV?$basic_string@DU?$char_traits@D@std@@V?$allocator@D@2@@0@PBDABV10@@Z$0 10040590 f    CIL library: CIL module
 0001:0003f598       __ehhandler$??$?HDU?$char_traits@D@std@@V?$allocator@D@1@@std@@YA?AV?$basic_string@DU?$char_traits@D@std@@V?$allocator@D@2@@0@PBDABV10@@Z 10040598 f    CIL library: CIL module
 0001:0003f5c0       __unwindfunclet$??$?HDU?$char_traits@D@std@@V?$allocator@D@1@@std@@YA?AV?$basic_string@DU?$char_traits@D@std@@V?$allocator@D@2@@0@ABV10@0@Z$0 100405c0 f    CIL library: CIL module
 0001:0003f5c0       __unwindfunclet$??$?HDU?$char_traits@D@std@@V?$allocator@D@1@@std@@YA?AV?$basic_string@DU?$char_traits@D@std@@V?$allocator@D@2@@0@ABV10@PBD@Z$0 100405c0 f    CIL library: CIL module
 0001:0003f5c8       __ehhandler$??$?HDU?$char_traits@D@std@@V?$allocator@D@1@@std@@YA?AV?$basic_string@DU?$char_traits@D@std@@V?$allocator@D@2@@0@ABV10@PBD@Z 100405c8 f    CIL library: CIL module
 0001:0003f5c8       __ehhandler$??$?HDU?$char_traits@D@std@@V?$allocator@D@1@@std@@YA?AV?$basic_string@DU?$char_traits@D@std@@V?$allocator@D@2@@0@ABV10@0@Z 100405c8 f    CIL library: CIL module
 0001:0003f5f0       __unwindfunclet$?_Insert@?$_Tree@V?$_Tmap_traits@VCZString@Value@Json@@V23@U?$less@VCZString@Value@Json@@@std@@V?$allocator@U?$pair@$$CBVCZString@Value@Json@@V23@@std@@@5@$0A@@std@@@std@@IAE?AViterator@12@_NPAU_Node@?$_Tree_nod@V?$_Tmap_traits@VCZString@Value@Json@@V23@U?$less@VCZString@Value@Json@@@std@@V?$allocator@U?$pair@$$CBVCZString@Value@Json@@V23@@std@@@5@$0A@@std@@@2@ABU?$pair@$$CBVCZString@Value@Json@@V23@@2@@Z$0 100405f0 f    CIL library: CIL module
 0001:0003f5f0       __unwindfunclet$?_Insert@?$_Tree@V?$_Tmap_traits@V?$basic_string@DU?$char_traits@D@std@@V?$allocator@D@2@@std@@HU?$less@V?$basic_string@DU?$char_traits@D@std@@V?$allocator@D@2@@std@@@2@V?$allocator@U?$pair@$$CBV?$basic_string@DU?$char_traits@D@std@@V?$allocator@D@2@@std@@H@std@@@2@$0A@@std@@@std@@IAE?AViterator@12@_NPAU_Node@?$_Tree_nod@V?$_Tmap_traits@V?$basic_string@DU?$char_traits@D@std@@V?$allocator@D@2@@std@@HU?$less@V?$basic_string@DU?$char_traits@D@std@@V?$allocator@D@2@@std@@@2@V?$allocator@U?$pair@$$CBV?$basic_string@DU?$char_traits@D@std@@V?$allocator@D@2@@std@@H@std@@@2@$0A@@std@@@2@ABU?$pair@$$CBV?$basic_string@DU?$char_traits@D@std@@V?$allocator@D@2@@std@@H@2@@Z$0 100405f0 f    CIL library: CIL module
 0001:0003f5f0       __unwindfunclet$?_Insert@?$_Tree@V?$_Tmap_traits@V?$basic_string@DU?$char_traits@D@std@@V?$allocator@D@2@@std@@PAUHINSTANCE__@@U?$less@V?$basic_string@DU?$char_traits@D@std@@V?$allocator@D@2@@std@@@2@V?$allocator@U?$pair@$$CBV?$basic_string@DU?$char_traits@D@std@@V?$allocator@D@2@@std@@PAUHINSTANCE__@@@std@@@2@$0A@@std@@@std@@IAE?AViterator@12@_NPAU_Node@?$_Tree_nod@V?$_Tmap_traits@V?$basic_string@DU?$char_traits@D@std@@V?$allocator@D@2@@std@@PAUHINSTANCE__@@U?$less@V?$basic_string@DU?$char_traits@D@std@@V?$allocator@D@2@@std@@@2@V?$allocator@U?$pair@$$CBV?$basic_string@DU?$char_traits@D@std@@V?$allocator@D@2@@std@@PAUHINSTANCE__@@@std@@@2@$0A@@std@@@2@ABU?$pair@$$CBV?$basic_string@DU?$char_traits@D@std@@V?$allocator@D@2@@std@@PAUHINSTANCE__@@@2@@Z$0 100405f0 f    CIL library: CIL module
 0001:0003f5f0       __unwindfunclet$?_Insert@?$_Tree@V?$_Tset_traits@V?$basic_string@DU?$char_traits@D@std@@V?$allocator@D@2@@std@@U?$less@V?$basic_string@DU?$char_traits@D@std@@V?$allocator@D@2@@std@@@2@V?$allocator@V?$basic_string@DU?$char_traits@D@std@@V?$allocator@D@2@@std@@@2@$0A@@std@@@std@@IAE?AViterator@12@_NPAU_Node@?$_Tree_nod@V?$_Tset_traits@V?$basic_string@DU?$char_traits@D@std@@V?$allocator@D@2@@std@@U?$less@V?$basic_string@DU?$char_traits@D@std@@V?$allocator@D@2@@std@@@2@V?$allocator@V?$basic_string@DU?$char_traits@D@std@@V?$allocator@D@2@@std@@@2@$0A@@std@@@2@ABV?$basic_string@DU?$char_traits@D@std@@V?$allocator@D@2@@2@@Z$0 100405f0 f    CIL library: CIL module
 0001:0003f5f8       __ehhandler$?_Insert@?$_Tree@V?$_Tmap_traits@V?$basic_string@DU?$char_traits@D@std@@V?$allocator@D@2@@std@@PAUHINSTANCE__@@U?$less@V?$basic_string@DU?$char_traits@D@std@@V?$allocator@D@2@@std@@@2@V?$allocator@U?$pair@$$CBV?$basic_string@DU?$char_traits@D@std@@V?$allocator@D@2@@std@@PAUHINSTANCE__@@@std@@@2@$0A@@std@@@std@@IAE?AViterator@12@_NPAU_Node@?$_Tree_nod@V?$_Tmap_traits@V?$basic_string@DU?$char_traits@D@std@@V?$allocator@D@2@@std@@PAUHINSTANCE__@@U?$less@V?$basic_string@DU?$char_traits@D@std@@V?$allocator@D@2@@std@@@2@V?$allocator@U?$pair@$$CBV?$basic_string@DU?$char_traits@D@std@@V?$allocator@D@2@@std@@PAUHINSTANCE__@@@std@@@2@$0A@@std@@@2@ABU?$pair@$$CBV?$basic_string@DU?$char_traits@D@std@@V?$allocator@D@2@@std@@PAUHINSTANCE__@@@2@@Z 100405f8 f    CIL library: CIL module
 0001:0003f5f8       __ehhandler$?_Insert@?$_Tree@V?$_Tmap_traits@VCZString@Value@Json@@V23@U?$less@VCZString@Value@Json@@@std@@V?$allocator@U?$pair@$$CBVCZString@Value@Json@@V23@@std@@@5@$0A@@std@@@std@@IAE?AViterator@12@_NPAU_Node@?$_Tree_nod@V?$_Tmap_traits@VCZString@Value@Json@@V23@U?$less@VCZString@Value@Json@@@std@@V?$allocator@U?$pair@$$CBVCZString@Value@Json@@V23@@std@@@5@$0A@@std@@@2@ABU?$pair@$$CBVCZString@Value@Json@@V23@@2@@Z 100405f8 f    CIL library: CIL module
 0001:0003f5f8       __ehhandler$?_Insert@?$_Tree@V?$_Tset_traits@V?$basic_string@DU?$char_traits@D@std@@V?$allocator@D@2@@std@@U?$less@V?$basic_string@DU?$char_traits@D@std@@V?$allocator@D@2@@std@@@2@V?$allocator@V?$basic_string@DU?$char_traits@D@std@@V?$allocator@D@2@@std@@@2@$0A@@std@@@std@@IAE?AViterator@12@_NPAU_Node@?$_Tree_nod@V?$_Tset_traits@V?$basic_string@DU?$char_traits@D@std@@V?$allocator@D@2@@std@@U?$less@V?$basic_string@DU?$char_traits@D@std@@V?$allocator@D@2@@std@@@2@V?$allocator@V?$basic_string@DU?$char_traits@D@std@@V?$allocator@D@2@@std@@@2@$0A@@std@@@2@ABV?$basic_string@DU?$char_traits@D@std@@V?$allocator@D@2@@2@@Z 100405f8 f    CIL library: CIL module
 0001:0003f5f8       __ehhandler$?_Insert@?$_Tree@V?$_Tmap_traits@V?$basic_string@DU?$char_traits@D@std@@V?$allocator@D@2@@std@@HU?$less@V?$basic_string@DU?$char_traits@D@std@@V?$allocator@D@2@@std@@@2@V?$allocator@U?$pair@$$CBV?$basic_string@DU?$char_traits@D@std@@V?$allocator@D@2@@std@@H@std@@@2@$0A@@std@@@std@@IAE?AViterator@12@_NPAU_Node@?$_Tree_nod@V?$_Tmap_traits@V?$basic_string@DU?$char_traits@D@std@@V?$allocator@D@2@@std@@HU?$less@V?$basic_string@DU?$char_traits@D@std@@V?$allocator@D@2@@std@@@2@V?$allocator@U?$pair@$$CBV?$basic_string@DU?$char_traits@D@std@@V?$allocator@D@2@@std@@H@std@@@2@$0A@@std@@@2@ABU?$pair@$$CBV?$basic_string@DU?$char_traits@D@std@@V?$allocator@D@2@@std@@H@2@@Z 100405f8 f    CIL library: CIL module
 0001:0003f620       __unwindfunclet$?open@?$basic_filebuf@DU?$char_traits@D@std@@@std@@QAEPAV12@PBDHH@Z$0 10040620 f    CIL library: CIL module
 0001:0003f628       __ehhandler$?open@?$basic_filebuf@DU?$char_traits@D@std@@@std@@QAEPAV12@PBDHH@Z 10040628 f    CIL library: CIL module
 0001:0003f650       __unwindfunclet$??1?$basic_ifstream@DU?$char_traits@D@std@@@std@@UAE@XZ$0 10040650 f    CIL library: CIL module
 0001:0003f65b       __ehhandler$??1?$basic_ifstream@DU?$char_traits@D@std@@@std@@UAE@XZ 1004065b f    CIL library: CIL module
 0001:0003f680       __ehhandler$??0?$_Tree@V?$_Tset_traits@V?$basic_string@DU?$char_traits@D@std@@V?$allocator@D@2@@std@@U?$less@V?$basic_string@DU?$char_traits@D@std@@V?$allocator@D@2@@std@@@2@V?$allocator@V?$basic_string@DU?$char_traits@D@std@@V?$allocator@D@2@@std@@@2@$0A@@std@@@std@@QAE@ABV01@@Z 10040680 f    CIL library: CIL module
 0001:0003f6a0       __unwindfunclet$?erase@?$_Tree@V?$_Tmap_traits@V?$basic_string@DU?$char_traits@D@std@@V?$allocator@D@2@@std@@HU?$less@V?$basic_string@DU?$char_traits@D@std@@V?$allocator@D@2@@std@@@2@V?$allocator@U?$pair@$$CBV?$basic_string@DU?$char_traits@D@std@@V?$allocator@D@2@@std@@H@std@@@2@$0A@@std@@@std@@QAE?AViterator@12@V312@@Z$0 100406a0 f    CIL library: CIL module
 0001:0003f6a0       __unwindfunclet$?erase@?$_Tree@V?$_Tmap_traits@V?$basic_string@DU?$char_traits@D@std@@V?$allocator@D@2@@std@@PAUHINSTANCE__@@U?$less@V?$basic_string@DU?$char_traits@D@std@@V?$allocator@D@2@@std@@@2@V?$allocator@U?$pair@$$CBV?$basic_string@DU?$char_traits@D@std@@V?$allocator@D@2@@std@@PAUHINSTANCE__@@@std@@@2@$0A@@std@@@std@@QAE?AViterator@12@V312@@Z$0 100406a0 f    CIL library: CIL module
 0001:0003f6a0       __unwindfunclet$?erase@?$_Tree@V?$_Tmap_traits@VCZString@Value@Json@@V23@U?$less@VCZString@Value@Json@@@std@@V?$allocator@U?$pair@$$CBVCZString@Value@Json@@V23@@std@@@5@$0A@@std@@@std@@QAE?AViterator@12@V312@@Z$0 100406a0 f    CIL library: CIL module
 0001:0003f6a0       __unwindfunclet$?erase@?$_Tree@V?$_Tset_traits@V?$basic_string@DU?$char_traits@D@std@@V?$allocator@D@2@@std@@U?$less@V?$basic_string@DU?$char_traits@D@std@@V?$allocator@D@2@@std@@@2@V?$allocator@V?$basic_string@DU?$char_traits@D@std@@V?$allocator@D@2@@std@@@2@$0A@@std@@@std@@QAE?AViterator@12@V312@@Z$0 100406a0 f    CIL library: CIL module
 0001:0003f6a8       __ehhandler$?erase@?$_Tree@V?$_Tmap_traits@VCZString@Value@Json@@V23@U?$less@VCZString@Value@Json@@@std@@V?$allocator@U?$pair@$$CBVCZString@Value@Json@@V23@@std@@@5@$0A@@std@@@std@@QAE?AViterator@12@V312@@Z 100406a8 f    CIL library: CIL module
 0001:0003f6a8       __ehhandler$?erase@?$_Tree@V?$_Tmap_traits@V?$basic_string@DU?$char_traits@D@std@@V?$allocator@D@2@@std@@HU?$less@V?$basic_string@DU?$char_traits@D@std@@V?$allocator@D@2@@std@@@2@V?$allocator@U?$pair@$$CBV?$basic_string@DU?$char_traits@D@std@@V?$allocator@D@2@@std@@H@std@@@2@$0A@@std@@@std@@QAE?AViterator@12@V312@@Z 100406a8 f    CIL library: CIL module
 0001:0003f6a8       __ehhandler$?erase@?$_Tree@V?$_Tmap_traits@V?$basic_string@DU?$char_traits@D@std@@V?$allocator@D@2@@std@@PAUHINSTANCE__@@U?$less@V?$basic_string@DU?$char_traits@D@std@@V?$allocator@D@2@@std@@@2@V?$allocator@U?$pair@$$CBV?$basic_string@DU?$char_traits@D@std@@V?$allocator@D@2@@std@@PAUHINSTANCE__@@@std@@@2@$0A@@std@@@std@@QAE?AViterator@12@V312@@Z 100406a8 f    CIL library: CIL module
 0001:0003f6a8       __ehhandler$?erase@?$_Tree@V?$_Tset_traits@V?$basic_string@DU?$char_traits@D@std@@V?$allocator@D@2@@std@@U?$less@V?$basic_string@DU?$char_traits@D@std@@V?$allocator@D@2@@std@@@2@V?$allocator@V?$basic_string@DU?$char_traits@D@std@@V?$allocator@D@2@@std@@@2@$0A@@std@@@std@@QAE?AViterator@12@V312@@Z 100406a8 f    CIL library: CIL module
 0001:0003f6d0       __unwindfunclet$?clear@ios_base@std@@QAEXH_N@Z$0 100406d0 f    CIL library: CIL module
 0001:0003f6d8       __unwindfunclet$?clear@ios_base@std@@QAEXH_N@Z$1 100406d8 f    CIL library: CIL module
 0001:0003f6e0       __unwindfunclet$?clear@ios_base@std@@QAEXH_N@Z$2 100406e0 f    CIL library: CIL module
 0001:0003f6e8       __ehhandler$?clear@ios_base@std@@QAEXH_N@Z 100406e8 f    CIL library: CIL module
 0001:0003f710       __unwindfunclet$??0?$ctype@D@std@@QAE@PBF_NI@Z$0 10040710 f    CIL library: CIL module
 0001:0003f71b       __ehhandler$??0?$ctype@D@std@@QAE@PBF_NI@Z 1004071b f    CIL library: CIL module
 0001:0003f750       __ehhandler$?_Construct_n@?$vector@V?$basic_string@DU?$char_traits@D@std@@V?$allocator@D@2@@std@@V?$allocator@V?$basic_string@DU?$char_traits@D@std@@V?$allocator@D@2@@std@@@2@@std@@QAEXIABV?$basic_string@DU?$char_traits@D@std@@V?$allocator@D@2@@2@@Z 10040750 f    CIL library: CIL module
 0001:0003f770       __unwindfunclet$??0?$vector@V?$basic_string@DU?$char_traits@D@std@@V?$allocator@D@2@@std@@V?$allocator@V?$basic_string@DU?$char_traits@D@std@@V?$allocator@D@2@@std@@@2@@std@@QAE@I@Z$0 10040770 f    CIL library: CIL module
 0001:0003f778       __ehhandler$??0?$vector@V?$basic_string@DU?$char_traits@D@std@@V?$allocator@D@2@@std@@V?$allocator@V?$basic_string@DU?$char_traits@D@std@@V?$allocator@D@2@@std@@@2@@std@@QAE@I@Z 10040778 f    CIL library: CIL module
 0001:0003f7a0       __unwindfunclet$?splitdrive_nt@path@os@pystring@@YAXAAV?$basic_string@DU?$char_traits@D@std@@V?$allocator@D@2@@std@@0ABV45@@Z$0 100407a0 f    CIL library: CIL module
 0001:0003f7a8       __unwindfunclet$?splitdrive_nt@path@os@pystring@@YAXAAV?$basic_string@DU?$char_traits@D@std@@V?$allocator@D@2@@std@@0ABV45@@Z$1 100407a8 f    CIL library: CIL module
 0001:0003f7b0       __unwindfunclet$?splitdrive_nt@path@os@pystring@@YAXAAV?$basic_string@DU?$char_traits@D@std@@V?$allocator@D@2@@std@@0ABV45@@Z$2 100407b0 f    CIL library: CIL module
 0001:0003f7b8       __unwindfunclet$?splitdrive_nt@path@os@pystring@@YAXAAV?$basic_string@DU?$char_traits@D@std@@V?$allocator@D@2@@std@@0ABV45@@Z$3 100407b8 f    CIL library: CIL module
 0001:0003f7c0       __ehhandler$?splitdrive_nt@path@os@pystring@@YAXAAV?$basic_string@DU?$char_traits@D@std@@V?$allocator@D@2@@std@@0ABV45@@Z 100407c0 f    CIL library: CIL module
 0001:0003f7f0       __unwindfunclet$?_Insert_n@?$vector@V?$basic_string@DU?$char_traits@D@std@@V?$allocator@D@2@@std@@V?$allocator@V?$basic_string@DU?$char_traits@D@std@@V?$allocator@D@2@@std@@@2@@std@@IAEXV?$_Vector_iterator@V?$basic_string@DU?$char_traits@D@std@@V?$allocator@D@2@@std@@V?$allocator@V?$basic_string@DU?$char_traits@D@std@@V?$allocator@D@2@@std@@@2@@2@IABV?$basic_string@DU?$char_traits@D@std@@V?$allocator@D@2@@2@@Z$4 100407f0 f    CIL library: CIL module
 0001:0003f7f8       __ehhandler$?_Insert_n@?$vector@V?$basic_string@DU?$char_traits@D@std@@V?$allocator@D@2@@std@@V?$allocator@V?$basic_string@DU?$char_traits@D@std@@V?$allocator@D@2@@std@@@2@@std@@IAEXV?$_Vector_iterator@V?$basic_string@DU?$char_traits@D@std@@V?$allocator@D@2@@std@@V?$allocator@V?$basic_string@DU?$char_traits@D@std@@V?$allocator@D@2@@std@@@2@@2@IABV?$basic_string@DU?$char_traits@D@std@@V?$allocator@D@2@@2@@Z 100407f8 f    CIL library: CIL module
 0001:0003f820       __unwindfunclet$?getMemberNames@Value@Json@@QBE?AV?$vector@V?$basic_string@DU?$char_traits@D@std@@V?$allocator@D@2@@std@@V?$allocator@V?$basic_string@DU?$char_traits@D@std@@V?$allocator@D@2@@std@@@2@@std@@XZ$1 10040820 f    CIL library: CIL module
 0001:0003f828       __unwindfunclet$?getMemberNames@Value@Json@@QBE?AV?$vector@V?$basic_string@DU?$char_traits@D@std@@V?$allocator@D@2@@std@@V?$allocator@V?$basic_string@DU?$char_traits@D@std@@V?$allocator@D@2@@std@@@2@@std@@XZ$2 10040828 f    CIL library: CIL module
 0001:0003f830       __ehhandler$?getMemberNames@Value@Json@@QBE?AV?$vector@V?$basic_string@DU?$char_traits@D@std@@V?$allocator@D@2@@std@@V?$allocator@V?$basic_string@DU?$char_traits@D@std@@V?$allocator@D@2@@std@@@2@@std@@XZ 10040830 f    CIL library: CIL module
 0001:0003f850       __unwindfunclet$?_Insert_n@?$deque@VErrorInfo@Reader@Json@@V?$allocator@VErrorInfo@Reader@Json@@@std@@@std@@IAEXV?$_Deque_iterator@VErrorInfo@Reader@Json@@V?$allocator@VErrorInfo@Reader@Json@@@std@@$00@2@IABVErrorInfo@Reader@Json@@@Z$4 10040850 f    CIL library: CIL module
 0001:0003f858       __unwindfunclet$?_Insert_n@?$deque@VErrorInfo@Reader@Json@@V?$allocator@VErrorInfo@Reader@Json@@@std@@@std@@IAEXV?$_Deque_iterator@VErrorInfo@Reader@Json@@V?$allocator@VErrorInfo@Reader@Json@@@std@@$00@2@IABVErrorInfo@Reader@Json@@@Z$5 10040858 f    CIL library: CIL module
 0001:0003f860       __ehhandler$?_Insert_n@?$deque@VErrorInfo@Reader@Json@@V?$allocator@VErrorInfo@Reader@Json@@@std@@@std@@IAEXV?$_Deque_iterator@VErrorInfo@Reader@Json@@V?$allocator@VErrorInfo@Reader@Json@@@std@@$00@2@IABVErrorInfo@Reader@Json@@@Z 10040860 f    CIL library: CIL module
 0001:0003f890       __unwindfunclet$?resize@?$deque@VErrorInfo@Reader@Json@@V?$allocator@VErrorInfo@Reader@Json@@@std@@@std@@QAEXIVErrorInfo@Reader@Json@@@Z$0 10040890 f    CIL library: CIL module
 0001:0003f898       __ehhandler$?resize@?$deque@VErrorInfo@Reader@Json@@V?$allocator@VErrorInfo@Reader@Json@@@std@@@std@@QAEXIVErrorInfo@Reader@Json@@@Z 10040898 f    CIL library: CIL module
 0001:0003f8c0       __unwindfunclet$??1CommonFrameMain@@UAE@XZ$0 100408c0 f    CIL library: CIL module
 0001:0003f8cb       __unwindfunclet$??1CommonFrameMain@@UAE@XZ$1 100408cb f    CIL library: CIL module
 0001:0003f8d6       __unwindfunclet$??1CommonFrameMain@@UAE@XZ$2 100408d6 f    CIL library: CIL module
 0001:0003f8e4       __unwindfunclet$??1CommonFrameMain@@UAE@XZ$3 100408e4 f    CIL library: CIL module
 0001:0003f8f2       __unwindfunclet$??1CommonFrameMain@@UAE@XZ$4 100408f2 f    CIL library: CIL module
 0001:0003f900       __unwindfunclet$??1CommonFrameMain@@UAE@XZ$5 10040900 f    CIL library: CIL module
 0001:0003f90e       __unwindfunclet$??1CommonFrameMain@@UAE@XZ$6 1004090e f    CIL library: CIL module
 0001:0003f91b       __unwindfunclet$??1CommonFrameMain@@UAE@XZ$7 1004091b f    CIL library: CIL module
 0001:0003f928       __unwindfunclet$??1CommonFrameMain@@UAE@XZ$8 10040928 f    CIL library: CIL module
 0001:0003f936       __unwindfunclet$??1CommonFrameMain@@UAE@XZ$9 10040936 f    CIL library: CIL module
 0001:0003f944       __unwindfunclet$??1CommonFrameMain@@UAE@XZ$10 10040944 f    CIL library: CIL module
 0001:0003f952       __unwindfunclet$??1CommonFrameMain@@UAE@XZ$11 10040952 f    CIL library: CIL module
 0001:0003f960       __ehhandler$??1CommonFrameMain@@UAE@XZ 10040960 f    CIL library: CIL module
 0001:0003f980       __unwindfunclet$?split_nt@path@os@pystring@@YAXAAV?$basic_string@DU?$char_traits@D@std@@V?$allocator@D@2@@std@@0ABV45@@Z$0 10040980 f    CIL library: CIL module
 0001:0003f988       __unwindfunclet$?split_nt@path@os@pystring@@YAXAAV?$basic_string@DU?$char_traits@D@std@@V?$allocator@D@2@@std@@0ABV45@@Z$1 10040988 f    CIL library: CIL module
 0001:0003f990       __unwindfunclet$?split_nt@path@os@pystring@@YAXAAV?$basic_string@DU?$char_traits@D@std@@V?$allocator@D@2@@std@@0ABV45@@Z$2 10040990 f    CIL library: CIL module
 0001:0003f99b       __unwindfunclet$?split_nt@path@os@pystring@@YAXAAV?$basic_string@DU?$char_traits@D@std@@V?$allocator@D@2@@std@@0ABV45@@Z$3 1004099b f    CIL library: CIL module
 0001:0003f9a6       __unwindfunclet$?split_nt@path@os@pystring@@YAXAAV?$basic_string@DU?$char_traits@D@std@@V?$allocator@D@2@@std@@0ABV45@@Z$4 100409a6 f    CIL library: CIL module
 0001:0003f9ae       __unwindfunclet$?split_nt@path@os@pystring@@YAXAAV?$basic_string@DU?$char_traits@D@std@@V?$allocator@D@2@@std@@0ABV45@@Z$5 100409ae f    CIL library: CIL module
 0001:0003f9cd       __unwindfunclet$?split_nt@path@os@pystring@@YAXAAV?$basic_string@DU?$char_traits@D@std@@V?$allocator@D@2@@std@@0ABV45@@Z$6 100409cd f    CIL library: CIL module
 0001:0003f9ef       __unwindfunclet$?split_nt@path@os@pystring@@YAXAAV?$basic_string@DU?$char_traits@D@std@@V?$allocator@D@2@@std@@0ABV45@@Z$7 100409ef f    CIL library: CIL module
 0001:0003f9f7       __unwindfunclet$?split_nt@path@os@pystring@@YAXAAV?$basic_string@DU?$char_traits@D@std@@V?$allocator@D@2@@std@@0ABV45@@Z$8 100409f7 f    CIL library: CIL module
 0001:0003f9ff       __ehhandler$?split_nt@path@os@pystring@@YAXAAV?$basic_string@DU?$char_traits@D@std@@V?$allocator@D@2@@std@@0ABV45@@Z 100409ff f    CIL library: CIL module
 0001:0003fa30       __unwindfunclet$?isabs_nt@path@os@pystring@@YA_NABV?$basic_string@DU?$char_traits@D@std@@V?$allocator@D@2@@std@@@Z$0 10040a30 f    CIL library: CIL module
 0001:0003fa38       __unwindfunclet$?isabs_nt@path@os@pystring@@YA_NABV?$basic_string@DU?$char_traits@D@std@@V?$allocator@D@2@@std@@@Z$1 10040a38 f    CIL library: CIL module
 0001:0003fa40       __ehhandler$?isabs_nt@path@os@pystring@@YA_NABV?$basic_string@DU?$char_traits@D@std@@V?$allocator@D@2@@std@@@Z 10040a40 f    CIL library: CIL module
 0001:0003fa70       __unwindfunclet$?addComment@Reader@Json@@AAEXPBD0W4CommentPlacement@2@@Z$0 10040a70 f    CIL library: CIL module
 0001:0003fa78       __unwindfunclet$?addComment@Reader@Json@@AAEXPBD0W4CommentPlacement@2@@Z$1 10040a78 f    CIL library: CIL module
 0001:0003fa80       __ehhandler$?addComment@Reader@Json@@AAEXPBD0W4CommentPlacement@2@@Z 10040a80 f    CIL library: CIL module
 0001:0003faa0       __unwindfunclet$?widen@?$basic_ios@DU?$char_traits@D@std@@@std@@QBEDD@Z$0 10040aa0 f    CIL library: CIL module
 0001:0003faa8       __ehhandler$?widen@?$basic_ios@DU?$char_traits@D@std@@@std@@QBEDD@Z 10040aa8 f    CIL library: CIL module
 0001:0003fad0       __ehhandler$?_Osfx@?$basic_ostream@DU?$char_traits@D@std@@@std@@QAEXXZ 10040ad0 f    CIL library: CIL module
 0001:0003faf0       __unwindfunclet$??1sentry@?$basic_ostream@DU?$char_traits@D@std@@@std@@QAE@XZ$0 10040af0 f    CIL library: CIL module
 0001:0003faf0       __unwindfunclet$??0sentry@?$basic_ostream@DU?$char_traits@D@std@@@std@@QAE@AAV12@@Z$0 10040af0 f    CIL library: CIL module
 0001:0003faf8       __ehhandler$??1sentry@?$basic_ostream@DU?$char_traits@D@std@@@std@@QAE@XZ 10040af8 f    CIL library: CIL module
 0001:0003faf8       __ehhandler$??0sentry@?$basic_ostream@DU?$char_traits@D@std@@@std@@QAE@AAV12@@Z 10040af8 f    CIL library: CIL module
 0001:0003fb20       __unwindfunclet$?write@?$basic_ostream@DU?$char_traits@D@std@@@std@@QAEAAV12@PBDH@Z$2 10040b20 f    CIL library: CIL module
 0001:0003fb2a       __ehhandler$?write@?$basic_ostream@DU?$char_traits@D@std@@@std@@QAEAAV12@PBDH@Z 10040b2a f    CIL library: CIL module
 0001:0003fb50       __unwindfunclet$?dirname_nt@path@os@pystring@@YA?AV?$basic_string@DU?$char_traits@D@std@@V?$allocator@D@2@@std@@ABV45@@Z$0 10040b50 f    CIL library: CIL module
 0001:0003fb69       __unwindfunclet$?dirname_nt@path@os@pystring@@YA?AV?$basic_string@DU?$char_traits@D@std@@V?$allocator@D@2@@std@@ABV45@@Z$1 10040b69 f    CIL library: CIL module
 0001:0003fb71       __ehhandler$?dirname_nt@path@os@pystring@@YA?AV?$basic_string@DU?$char_traits@D@std@@V?$allocator@D@2@@std@@ABV45@@Z 10040b71 f    CIL library: CIL module
 0001:0003fba0       __unwindfunclet$?basename_nt@path@os@pystring@@YA?AV?$basic_string@DU?$char_traits@D@std@@V?$allocator@D@2@@std@@ABV45@@Z$0 10040ba0 f    CIL library: CIL module
 0001:0003fba8       __unwindfunclet$?basename_nt@path@os@pystring@@YA?AV?$basic_string@DU?$char_traits@D@std@@V?$allocator@D@2@@std@@ABV45@@Z$1 10040ba8 f    CIL library: CIL module
 0001:0003fbc1       __ehhandler$?basename_nt@path@os@pystring@@YA?AV?$basic_string@DU?$char_traits@D@std@@V?$allocator@D@2@@std@@ABV45@@Z 10040bc1 f    CIL library: CIL module
 0001:0003fbf0       __unwindfunclet$?join_nt@path@os@pystring@@YA?AV?$basic_string@DU?$char_traits@D@std@@V?$allocator@D@2@@std@@ABV?$vector@V?$basic_string@DU?$char_traits@D@std@@V?$allocator@D@2@@std@@V?$allocator@V?$basic_string@DU?$char_traits@D@std@@V?$allocator@D@2@@std@@@2@@5@@Z$1 10040bf0 f    CIL library: CIL module
 0001:0003fbf8       __unwindfunclet$?join_nt@path@os@pystring@@YA?AV?$basic_string@DU?$char_traits@D@std@@V?$allocator@D@2@@std@@ABV?$vector@V?$basic_string@DU?$char_traits@D@std@@V?$allocator@D@2@@std@@V?$allocator@V?$basic_string@DU?$char_traits@D@std@@V?$allocator@D@2@@std@@@2@@5@@Z$2 10040bf8 f    CIL library: CIL module
 0001:0003fc00       __unwindfunclet$?join_nt@path@os@pystring@@YA?AV?$basic_string@DU?$char_traits@D@std@@V?$allocator@D@2@@std@@ABV?$vector@V?$basic_string@DU?$char_traits@D@std@@V?$allocator@D@2@@std@@V?$allocator@V?$basic_string@DU?$char_traits@D@std@@V?$allocator@D@2@@std@@@2@@5@@Z$3 10040c00 f    CIL library: CIL module
 0001:0003fc1f       __unwindfunclet$?join_nt@path@os@pystring@@YA?AV?$basic_string@DU?$char_traits@D@std@@V?$allocator@D@2@@std@@ABV?$vector@V?$basic_string@DU?$char_traits@D@std@@V?$allocator@D@2@@std@@V?$allocator@V?$basic_string@DU?$char_traits@D@std@@V?$allocator@D@2@@std@@@2@@5@@Z$4 10040c1f f    CIL library: CIL module
 0001:0003fc41       __unwindfunclet$?join_nt@path@os@pystring@@YA?AV?$basic_string@DU?$char_traits@D@std@@V?$allocator@D@2@@std@@ABV?$vector@V?$basic_string@DU?$char_traits@D@std@@V?$allocator@D@2@@std@@V?$allocator@V?$basic_string@DU?$char_traits@D@std@@V?$allocator@D@2@@std@@@2@@5@@Z$5 10040c41 f    CIL library: CIL module
 0001:0003fc60       __unwindfunclet$?join_nt@path@os@pystring@@YA?AV?$basic_string@DU?$char_traits@D@std@@V?$allocator@D@2@@std@@ABV?$vector@V?$basic_string@DU?$char_traits@D@std@@V?$allocator@D@2@@std@@V?$allocator@V?$basic_string@DU?$char_traits@D@std@@V?$allocator@D@2@@std@@@2@@5@@Z$7 10040c60 f    CIL library: CIL module
 0001:0003fc82       __unwindfunclet$?join_nt@path@os@pystring@@YA?AV?$basic_string@DU?$char_traits@D@std@@V?$allocator@D@2@@std@@ABV?$vector@V?$basic_string@DU?$char_traits@D@std@@V?$allocator@D@2@@std@@V?$allocator@V?$basic_string@DU?$char_traits@D@std@@V?$allocator@D@2@@std@@@2@@5@@Z$9 10040c82 f    CIL library: CIL module
 0001:0003fca6       __unwindfunclet$?join_nt@path@os@pystring@@YA?AV?$basic_string@DU?$char_traits@D@std@@V?$allocator@D@2@@std@@ABV?$vector@V?$basic_string@DU?$char_traits@D@std@@V?$allocator@D@2@@std@@V?$allocator@V?$basic_string@DU?$char_traits@D@std@@V?$allocator@D@2@@std@@@2@@5@@Z$11 10040ca6 f    CIL library: CIL module
 0001:0003fcb1       __unwindfunclet$?join_nt@path@os@pystring@@YA?AV?$basic_string@DU?$char_traits@D@std@@V?$allocator@D@2@@std@@ABV?$vector@V?$basic_string@DU?$char_traits@D@std@@V?$allocator@D@2@@std@@V?$allocator@V?$basic_string@DU?$char_traits@D@std@@V?$allocator@D@2@@std@@@2@@5@@Z$13 10040cb1 f    CIL library: CIL module
 0001:0003fcd5       __unwindfunclet$?join_nt@path@os@pystring@@YA?AV?$basic_string@DU?$char_traits@D@std@@V?$allocator@D@2@@std@@ABV?$vector@V?$basic_string@DU?$char_traits@D@std@@V?$allocator@D@2@@std@@V?$allocator@V?$basic_string@DU?$char_traits@D@std@@V?$allocator@D@2@@std@@@2@@5@@Z$15 10040cd5 f    CIL library: CIL module
 0001:0003fce0       __ehhandler$?join_nt@path@os@pystring@@YA?AV?$basic_string@DU?$char_traits@D@std@@V?$allocator@D@2@@std@@ABV?$vector@V?$basic_string@DU?$char_traits@D@std@@V?$allocator@D@2@@std@@V?$allocator@V?$basic_string@DU?$char_traits@D@std@@V?$allocator@D@2@@std@@@2@@5@@Z 10040ce0 f    CIL library: CIL module
 0001:0003fd10       __unwindfunclet$??6?$basic_ostream@DU?$char_traits@D@std@@@std@@QAEAAV01@H@Z$2 10040d10 f    CIL library: CIL module
 0001:0003fd1a       __unwindfunclet$??6?$basic_ostream@DU?$char_traits@D@std@@@std@@QAEAAV01@H@Z$3 10040d1a f    CIL library: CIL module
 0001:0003fd22       __ehhandler$??6?$basic_ostream@DU?$char_traits@D@std@@@std@@QAEAAV01@H@Z 10040d22 f    CIL library: CIL module
 0001:0003fd40       __unwindfunclet$??1?$pair@$$CBVCZString@Value@Json@@V23@@std@@QAE@XZ$0 10040d40 f    CIL library: CIL module
 0001:0003fd48       __ehhandler$??1?$pair@$$CBVCZString@Value@Json@@V23@@std@@QAE@XZ 10040d48 f    CIL library: CIL module
 0001:0003fd70       __unwindfunclet$??$?6U?$char_traits@D@std@@@std@@YAAAV?$basic_ostream@DU?$char_traits@D@std@@@0@AAV10@PBD@Z$2 10040d70 f    CIL library: CIL module
 0001:0003fd7a       __unwindfunclet$??$?6U?$char_traits@D@std@@@std@@YAAAV?$basic_ostream@DU?$char_traits@D@std@@@0@AAV10@PBD@Z$9 10040d7a f    CIL library: CIL module
 0001:0003fd82       __ehhandler$??$?6U?$char_traits@D@std@@@std@@YAAAV?$basic_ostream@DU?$char_traits@D@std@@@0@AAV10@PBD@Z 10040d82 f    CIL library: CIL module
 0001:0003fda0       __ehhandler$??0?$basic_istream@DU?$char_traits@D@std@@@std@@QAE@PAV?$basic_streambuf@DU?$char_traits@D@std@@@1@_N@Z 10040da0 f    CIL library: CIL module
 0001:0003fda0       __ehhandler$??0?$basic_ostream@DU?$char_traits@D@std@@@std@@QAE@PAV?$basic_streambuf@DU?$char_traits@D@std@@@1@_N@Z 10040da0 f    CIL library: CIL module
 0001:0003fdc0       __unwindfunclet$??0?$basic_ifstream@DU?$char_traits@D@std@@@std@@QAE@PBDHH@Z$0 10040dc0 f    CIL library: CIL module
 0001:0003fddc       __unwindfunclet$??0?$basic_ifstream@DU?$char_traits@D@std@@@std@@QAE@PBDHH@Z$1 10040ddc f    CIL library: CIL module
 0001:0003fde7       __unwindfunclet$??0?$basic_ifstream@DU?$char_traits@D@std@@@std@@QAE@PBDHH@Z$2 10040de7 f    CIL library: CIL module
 0001:0003fdf2       __ehhandler$??0?$basic_ifstream@DU?$char_traits@D@std@@@std@@QAE@PBDHH@Z 10040df2 f    CIL library: CIL module
 0001:0003fe10       __unwindfunclet$??0?$basic_ofstream@DU?$char_traits@D@std@@@std@@QAE@XZ$0 10040e10 f    CIL library: CIL module
 0001:0003fe2c       __unwindfunclet$??0?$basic_ofstream@DU?$char_traits@D@std@@@std@@QAE@XZ$1 10040e2c f    CIL library: CIL module
 0001:0003fe37       __ehhandler$??0?$basic_ofstream@DU?$char_traits@D@std@@@std@@QAE@XZ 10040e37 f    CIL library: CIL module
 0001:0003fe60       __unwindfunclet$?join_nt@path@os@pystring@@YA?AV?$basic_string@DU?$char_traits@D@std@@V?$allocator@D@2@@std@@ABV45@0@Z$0 10040e60 f    CIL library: CIL module
 0001:0003fe68       __ehhandler$?join_nt@path@os@pystring@@YA?AV?$basic_string@DU?$char_traits@D@std@@V?$allocator@D@2@@std@@ABV45@0@Z 10040e68 f    CIL library: CIL module
 0001:0003fe90       __unwindfunclet$??0?$basic_ostringstream@DU?$char_traits@D@std@@V?$allocator@D@2@@std@@QAE@H@Z$0 10040e90 f    CIL library: CIL module
 0001:0003feac       __unwindfunclet$??0?$basic_ostringstream@DU?$char_traits@D@std@@V?$allocator@D@2@@std@@QAE@H@Z$1 10040eac f    CIL library: CIL module
 0001:0003feb7       __ehhandler$??0?$basic_ostringstream@DU?$char_traits@D@std@@V?$allocator@D@2@@std@@QAE@H@Z 10040eb7 f    CIL library: CIL module
 0001:0003fee0       __unwindfunclet$?valueToQuotedString@Json@@YA?AV?$basic_string@DU?$char_traits@D@std@@V?$allocator@D@2@@std@@PBD@Z$0 10040ee0 f    CIL library: CIL module
 0001:0003feeb       __unwindfunclet$?valueToQuotedString@Json@@YA?AV?$basic_string@DU?$char_traits@D@std@@V?$allocator@D@2@@std@@PBD@Z$1 10040eeb f    CIL library: CIL module
 0001:0003fef6       __unwindfunclet$?valueToQuotedString@Json@@YA?AV?$basic_string@DU?$char_traits@D@std@@V?$allocator@D@2@@std@@PBD@Z$3 10040ef6 f    CIL library: CIL module
 0001:0003fefe       __unwindfunclet$?valueToQuotedString@Json@@YA?AV?$basic_string@DU?$char_traits@D@std@@V?$allocator@D@2@@std@@PBD@Z$4 10040efe f    CIL library: CIL module
 0001:0003ff09       __unwindfunclet$?valueToQuotedString@Json@@YA?AV?$basic_string@DU?$char_traits@D@std@@V?$allocator@D@2@@std@@PBD@Z$5 10040f09 f    CIL library: CIL module
 0001:0003ff14       __ehhandler$?valueToQuotedString@Json@@YA?AV?$basic_string@DU?$char_traits@D@std@@V?$allocator@D@2@@std@@PBD@Z 10040f14 f    CIL library: CIL module
 0001:0003ff50       __unwindfunclet$??0_Node@?$_Tree_nod@V?$_Tmap_traits@VCZString@Value@Json@@V23@U?$less@VCZString@Value@Json@@@std@@V?$allocator@U?$pair@$$CBVCZString@Value@Json@@V23@@std@@@5@$0A@@std@@@std@@QAE@PAU012@00ABU?$pair@$$CBVCZString@Value@Json@@V23@@2@D@Z$1 10040f50 f    CIL library: CIL module
 0001:0003ff58       __ehhandler$??0_Node@?$_Tree_nod@V?$_Tmap_traits@VCZString@Value@Json@@V23@U?$less@VCZString@Value@Json@@@std@@V?$allocator@U?$pair@$$CBVCZString@Value@Json@@V23@@std@@@5@$0A@@std@@@std@@QAE@PAU012@00ABU?$pair@$$CBVCZString@Value@Json@@V23@@2@D@Z 10040f58 f    CIL library: CIL module
 0001:0003ff80       __unwindfunclet$?_Buynode@?$_Tree@V?$_Tmap_traits@VCZString@Value@Json@@V23@U?$less@VCZString@Value@Json@@@std@@V?$allocator@U?$pair@$$CBVCZString@Value@Json@@V23@@std@@@5@$0A@@std@@@std@@IAEPAU_Node@?$_Tree_nod@V?$_Tmap_traits@VCZString@Value@Json@@V23@U?$less@VCZString@Value@Json@@@std@@V?$allocator@U?$pair@$$CBVCZString@Value@Json@@V23@@std@@@5@$0A@@std@@@2@PAU342@00ABU?$pair@$$CBVCZString@Value@Json@@V23@@2@D@Z$2 10040f80 f    CIL library: CIL module
 0001:0003ff91       __ehhandler$?_Buynode@?$_Tree@V?$_Tmap_traits@VCZString@Value@Json@@V23@U?$less@VCZString@Value@Json@@@std@@V?$allocator@U?$pair@$$CBVCZString@Value@Json@@V23@@std@@@5@$0A@@std@@@std@@IAEPAU_Node@?$_Tree_nod@V?$_Tmap_traits@VCZString@Value@Json@@V23@U?$less@VCZString@Value@Json@@@std@@V?$allocator@U?$pair@$$CBVCZString@Value@Json@@V23@@std@@@5@$0A@@std@@@2@PAU342@00ABU?$pair@$$CBVCZString@Value@Json@@V23@@2@D@Z 10040f91 f    CIL library: CIL module
 0001:0003ffb0       __ehhandler$?_Copy@?$_Tree@V?$_Tmap_traits@VCZString@Value@Json@@V23@U?$less@VCZString@Value@Json@@@std@@V?$allocator@U?$pair@$$CBVCZString@Value@Json@@V23@@std@@@5@$0A@@std@@@std@@IAEPAU_Node@?$_Tree_nod@V?$_Tmap_traits@VCZString@Value@Json@@V23@U?$less@VCZString@Value@Json@@@std@@V?$allocator@U?$pair@$$CBVCZString@Value@Json@@V23@@std@@@5@$0A@@std@@@2@PAU342@0@Z 10040fb0 f    CIL library: CIL module
 0001:0003ffd0       __ehhandler$??0?$_Tree@V?$_Tmap_traits@VCZString@Value@Json@@V23@U?$less@VCZString@Value@Json@@@std@@V?$allocator@U?$pair@$$CBVCZString@Value@Json@@V23@@std@@@5@$0A@@std@@@std@@QAE@ABV01@@Z 10040fd0 f    CIL library: CIL module
 0001:0003fff0       __unwindfunclet$??0Value@Json@@QAE@ABV01@@Z$0 10040ff0 f    CIL library: CIL module
 0001:0003fffb       __unwindfunclet$??0Value@Json@@QAE@ABV01@@Z$1 10040ffb f    CIL library: CIL module
 0001:00040006       __ehhandler$??0Value@Json@@QAE@ABV01@@Z 10041006 f    CIL library: CIL module
 0001:00040030       __unwindfunclet$?IF_InitEnvironment@@YG_NABIABQAUHWND__@@0PBD222ABH@Z$0 10041030 f    CIL library: CIL module
 0001:0004003b       __unwindfunclet$?IF_InitEnvironment@@YG_NABIABQAUHWND__@@0PBD222ABH@Z$1 1004103b f    CIL library: CIL module
 0001:00040046       __unwindfunclet$?IF_InitEnvironment@@YG_NABIABQAUHWND__@@0PBD222ABH@Z$2 10041046 f    CIL library: CIL module
 0001:00040051       __unwindfunclet$?IF_InitEnvironment@@YG_NABIABQAUHWND__@@0PBD222ABH@Z$3 10041051 f    CIL library: CIL module
 0001:00040059       __unwindfunclet$?IF_InitEnvironment@@YG_NABIABQAUHWND__@@0PBD222ABH@Z$4 10041059 f    CIL library: CIL module
 0001:00040064       __unwindfunclet$?IF_InitEnvironment@@YG_NABIABQAUHWND__@@0PBD222ABH@Z$5 10041064 f    CIL library: CIL module
 0001:0004006f       __unwindfunclet$?IF_InitEnvironment@@YG_NABIABQAUHWND__@@0PBD222ABH@Z$6 1004106f f    CIL library: CIL module
 0001:0004007a       __unwindfunclet$?IF_InitEnvironment@@YG_NABIABQAUHWND__@@0PBD222ABH@Z$7 1004107a f    CIL library: CIL module
 0001:00040082       __unwindfunclet$?IF_InitEnvironment@@YG_NABIABQAUHWND__@@0PBD222ABH@Z$8 10041082 f    CIL library: CIL module
 0001:0004008d       __unwindfunclet$?IF_InitEnvironment@@YG_NABIABQAUHWND__@@0PBD222ABH@Z$9 1004108d f    CIL library: CIL module
 0001:00040095       __unwindfunclet$?IF_InitEnvironment@@YG_NABIABQAUHWND__@@0PBD222ABH@Z$10 10041095 f    CIL library: CIL module
 0001:000400a0       __unwindfunclet$?IF_InitEnvironment@@YG_NABIABQAUHWND__@@0PBD222ABH@Z$11 100410a0 f    CIL library: CIL module
 0001:000400ab       __ehhandler$?IF_InitEnvironment@@YG_NABIABQAUHWND__@@0PBD222ABH@Z 100410ab f    CIL library: CIL module
 0001:000400e0       __unwindfunclet$?unLoadLib@CommonFrameMain@@QAEXV?$basic_string@DU?$char_traits@D@std@@V?$allocator@D@2@@std@@@Z$0 100410e0 f    CIL library: CIL module
 0001:000400e8       __unwindfunclet$?unLoadLib@CommonFrameMain@@QAEXV?$basic_string@DU?$char_traits@D@std@@V?$allocator@D@2@@std@@@Z$1 100410e8 f    CIL library: CIL module
 0001:000400f0       __unwindfunclet$?unLoadLib@CommonFrameMain@@QAEXV?$basic_string@DU?$char_traits@D@std@@V?$allocator@D@2@@std@@@Z$2 100410f0 f    CIL library: CIL module
 0001:000400f8       __unwindfunclet$?unLoadLib@CommonFrameMain@@QAEXV?$basic_string@DU?$char_traits@D@std@@V?$allocator@D@2@@std@@@Z$3 100410f8 f    CIL library: CIL module
 0001:00040100       __ehhandler$?unLoadLib@CommonFrameMain@@QAEXV?$basic_string@DU?$char_traits@D@std@@V?$allocator@D@2@@std@@@Z 10041100 f    CIL library: CIL module
 0001:00040130       __unwindfunclet$?writeValue@FastWriter@Json@@AAEXABVValue@2@@Z$0 10041130 f    CIL library: CIL module
 0001:0004013b       __unwindfunclet$?writeValue@FastWriter@Json@@AAEXABVValue@2@@Z$1 1004113b f    CIL library: CIL module
 0001:00040143       __unwindfunclet$?writeValue@FastWriter@Json@@AAEXABVValue@2@@Z$2 10041143 f    CIL library: CIL module
 0001:0004014e       __unwindfunclet$?writeValue@FastWriter@Json@@AAEXABVValue@2@@Z$3 1004114e f    CIL library: CIL module
 0001:00040159       __unwindfunclet$?writeValue@FastWriter@Json@@AAEXABVValue@2@@Z$4 10041159 f    CIL library: CIL module
 0001:00040161       __unwindfunclet$?writeValue@FastWriter@Json@@AAEXABVValue@2@@Z$5 10041161 f    CIL library: CIL module
 0001:0004016c       __unwindfunclet$?writeValue@FastWriter@Json@@AAEXABVValue@2@@Z$6 1004116c f    CIL library: CIL module
 0001:00040177       __ehhandler$?writeValue@FastWriter@Json@@AAEXABVValue@2@@Z 10041177 f    CIL library: CIL module
 0001:000401a0       __unwindfunclet$??0?$pair@$$CBVCZString@Value@Json@@V23@@std@@QAE@ABVCZString@Value@Json@@ABV34@@Z$0 100411a0 f    CIL library: CIL module
 0001:000401a8       __ehhandler$??0?$pair@$$CBVCZString@Value@Json@@V23@@std@@QAE@ABVCZString@Value@Json@@ABV34@@Z 100411a8 f    CIL library: CIL module
 0001:000401d0       __unwindfunclet$?decodeString@Reader@Json@@AAE_NAAVToken@12@@Z$0 100411d0 f    CIL library: CIL module
 0001:000401d8       __unwindfunclet$?decodeString@Reader@Json@@AAE_NAAVToken@12@@Z$1 100411d8 f    CIL library: CIL module
 0001:000401e0       __ehhandler$?decodeString@Reader@Json@@AAE_NAAVToken@12@@Z 100411e0 f    CIL library: CIL module
 0001:00040210       __unwindfunclet$?decodeDouble@Reader@Json@@AAE_NAAVToken@12@@Z$1 10041210 f    CIL library: CIL module
 0001:00040218       __unwindfunclet$?decodeDouble@Reader@Json@@AAE_NAAVToken@12@@Z$2 10041218 f    CIL library: CIL module
 0001:00040220       __unwindfunclet$?decodeDouble@Reader@Json@@AAE_NAAVToken@12@@Z$3 10041220 f    CIL library: CIL module
 0001:00040228       __unwindfunclet$?decodeDouble@Reader@Json@@AAE_NAAVToken@12@@Z$4 10041228 f    CIL library: CIL module
 0001:00040230       __ehhandler$?decodeDouble@Reader@Json@@AAE_NAAVToken@12@@Z 10041230 f    CIL library: CIL module
 0001:00040260       __unwindfunclet$?decodeNumber@Reader@Json@@AAE_NAAVToken@12@@Z$3 10041260 f    CIL library: CIL module
 0001:00040268       __unwindfunclet$?decodeNumber@Reader@Json@@AAE_NAAVToken@12@@Z$0 10041268 f    CIL library: CIL module
 0001:00040270       __unwindfunclet$?decodeNumber@Reader@Json@@AAE_NAAVToken@12@@Z$1 10041270 f    CIL library: CIL module
 0001:00040278       __unwindfunclet$?decodeNumber@Reader@Json@@AAE_NAAVToken@12@@Z$2 10041278 f    CIL library: CIL module
 0001:00040280       __unwindfunclet$?decodeNumber@Reader@Json@@AAE_NAAVToken@12@@Z$4 10041280 f    CIL library: CIL module
 0001:00040288       __unwindfunclet$?decodeNumber@Reader@Json@@AAE_NAAVToken@12@@Z$5 10041288 f    CIL library: CIL module
 0001:00040290       __ehhandler$?decodeNumber@Reader@Json@@AAE_NAAVToken@12@@Z 10041290 f    CIL library: CIL module
 0001:000402b0       __unwindfunclet$?loadCommonBus@CommonFrameMain@@AAEXXZ$0 100412b0 f    CIL library: CIL module
 0001:000402b8       __unwindfunclet$?loadCommonBus@CommonFrameMain@@AAEXXZ$1 100412b8 f    CIL library: CIL module
 0001:000402c0       __ehhandler$?loadCommonBus@CommonFrameMain@@AAEXXZ 100412c0 f    CIL library: CIL module
 0001:000402f0       __unwindfunclet$?moveFile2loadLib@CommonFrameMain@@QAEXV?$basic_string@DU?$char_traits@D@std@@V?$allocator@D@2@@std@@@Z$0 100412f0 f    CIL library: CIL module
 0001:000402f8       __unwindfunclet$?moveFile2loadLib@CommonFrameMain@@QAEXV?$basic_string@DU?$char_traits@D@std@@V?$allocator@D@2@@std@@@Z$1 100412f8 f    CIL library: CIL module
 0001:00040300       __unwindfunclet$?moveFile2loadLib@CommonFrameMain@@QAEXV?$basic_string@DU?$char_traits@D@std@@V?$allocator@D@2@@std@@@Z$2 10041300 f    CIL library: CIL module
 0001:00040308       __ehhandler$?moveFile2loadLib@CommonFrameMain@@QAEXV?$basic_string@DU?$char_traits@D@std@@V?$allocator@D@2@@std@@@Z 10041308 f    CIL library: CIL module
 0001:00040330       __unwindfunclet$??AValue@Json@@QAEAAV01@I@Z$3 10041330 f    CIL library: CIL module
 0001:00040330       __unwindfunclet$?resolveReference@Value@Json@@AAEAAV12@PBD_N@Z$3 10041330 f    CIL library: CIL module
 0001:0004033b       __unwindfunclet$??AValue@Json@@QAEAAV01@I@Z$0 1004133b f    CIL library: CIL module
 0001:0004033b       __unwindfunclet$?resolveReference@Value@Json@@AAEAAV12@PBD_N@Z$0 1004133b f    CIL library: CIL module
 0001:00040343       __unwindfunclet$??AValue@Json@@QAEAAV01@I@Z$1 10041343 f    CIL library: CIL module
 0001:00040343       __unwindfunclet$?resolveReference@Value@Json@@AAEAAV12@PBD_N@Z$1 10041343 f    CIL library: CIL module
 0001:0004034b       __unwindfunclet$??AValue@Json@@QAEAAV01@I@Z$2 1004134b f    CIL library: CIL module
 0001:0004034b       __unwindfunclet$?resolveReference@Value@Json@@AAEAAV12@PBD_N@Z$2 1004134b f    CIL library: CIL module
 0001:00040353       __ehhandler$??AValue@Json@@QAEAAV01@I@Z 10041353 f    CIL library: CIL module
 0001:00040353       __ehhandler$?resolveReference@Value@Json@@AAEAAV12@PBD_N@Z 10041353 f    CIL library: CIL module
 0001:00040370       __unwindfunclet$?readArray@Reader@Json@@AAE_NAAVToken@12@@Z$2 10041370 f    CIL library: CIL module
 0001:0004037b       __unwindfunclet$?readArray@Reader@Json@@AAE_NAAVToken@12@@Z$0 1004137b f    CIL library: CIL module
 0001:00040383       __unwindfunclet$?readArray@Reader@Json@@AAE_NAAVToken@12@@Z$1 10041383 f    CIL library: CIL module
 0001:0004038b       __ehhandler$?readArray@Reader@Json@@AAE_NAAVToken@12@@Z 1004138b f    CIL library: CIL module
 0001:000403b0       __unwindfunclet$?getJsonData@FrameConfigFileOperate@@QAE_NAAVValue@Json@@PAD1@Z$0 100413b0 f    CIL library: CIL module
 0001:000403b8       __ehhandler$?getJsonData@FrameConfigFileOperate@@QAE_NAAVValue@Json@@PAD1@Z 100413b8 f    CIL library: CIL module
 0001:000403e0       __unwindfunclet$?readObject@Reader@Json@@AAE_NAAVToken@12@@Z$0 100413e0 f    CIL library: CIL module
 0001:000403e8       __unwindfunclet$?readObject@Reader@Json@@AAE_NAAVToken@12@@Z$5 100413e8 f    CIL library: CIL module
 0001:000403f6       __unwindfunclet$?readObject@Reader@Json@@AAE_NAAVToken@12@@Z$1 100413f6 f    CIL library: CIL module
 0001:000403fe       __unwindfunclet$?readObject@Reader@Json@@AAE_NAAVToken@12@@Z$3 100413fe f    CIL library: CIL module
 0001:00040406       __unwindfunclet$?readObject@Reader@Json@@AAE_NAAVToken@12@@Z$2 10041406 f    CIL library: CIL module
 0001:00040411       __unwindfunclet$?readObject@Reader@Json@@AAE_NAAVToken@12@@Z$4 10041411 f    CIL library: CIL module
 0001:0004041c       __ehhandler$?readObject@Reader@Json@@AAE_NAAVToken@12@@Z 1004141c f    CIL library: CIL module
 0001:00040450       __unwindfunclet$?readValue@Reader@Json@@AAE_NXZ$0 10041450 f    CIL library: CIL module
 0001:00040458       __unwindfunclet$?readValue@Reader@Json@@AAE_NXZ$1 10041458 f    CIL library: CIL module
 0001:00040460       __unwindfunclet$?readValue@Reader@Json@@AAE_NXZ$2 10041460 f    CIL library: CIL module
 0001:00040468       __unwindfunclet$?readValue@Reader@Json@@AAE_NXZ$3 10041468 f    CIL library: CIL module
 0001:00040470       __ehhandler$?readValue@Reader@Json@@AAE_NXZ 10041470 f    CIL library: CIL module
 0001:00040490       __unwindfunclet$?parse@Reader@Json@@QAE_NPBD0AAVValue@2@_N@Z$0 10041490 f    CIL library: CIL module
 0001:00040498       __ehhandler$?parse@Reader@Json@@QAE_NPBD0AAVValue@2@_N@Z 10041498 f    CIL library: CIL module
 0001:000404c0       __unwindfunclet$?parseFilePathConfig@FrameConfigFileOperate@@QAE_NPAUST_FRAME_CONFIG_INFO_T@@AAV?$basic_string@DU?$char_traits@D@std@@V?$allocator@D@2@@std@@@Z$0 100414c0 f    CIL library: CIL module
 0001:000404cb       __unwindfunclet$?parseFilePathConfig@FrameConfigFileOperate@@QAE_NPAUST_FRAME_CONFIG_INFO_T@@AAV?$basic_string@DU?$char_traits@D@std@@V?$allocator@D@2@@std@@@Z$1 100414cb f    CIL library: CIL module
 0001:000404d6       __unwindfunclet$?parseFilePathConfig@FrameConfigFileOperate@@QAE_NPAUST_FRAME_CONFIG_INFO_T@@AAV?$basic_string@DU?$char_traits@D@std@@V?$allocator@D@2@@std@@@Z$2 100414d6 f    CIL library: CIL module
 0001:000404e1       __unwindfunclet$?parseFilePathConfig@FrameConfigFileOperate@@QAE_NPAUST_FRAME_CONFIG_INFO_T@@AAV?$basic_string@DU?$char_traits@D@std@@V?$allocator@D@2@@std@@@Z$3 100414e1 f    CIL library: CIL module
 0001:000404ec       __unwindfunclet$?parseFilePathConfig@FrameConfigFileOperate@@QAE_NPAUST_FRAME_CONFIG_INFO_T@@AAV?$basic_string@DU?$char_traits@D@std@@V?$allocator@D@2@@std@@@Z$4 100414ec f    CIL library: CIL module
 0001:000404f7       __unwindfunclet$?parseFilePathConfig@FrameConfigFileOperate@@QAE_NPAUST_FRAME_CONFIG_INFO_T@@AAV?$basic_string@DU?$char_traits@D@std@@V?$allocator@D@2@@std@@@Z$5 100414f7 f    CIL library: CIL module
 0001:00040502       __unwindfunclet$?parseFilePathConfig@FrameConfigFileOperate@@QAE_NPAUST_FRAME_CONFIG_INFO_T@@AAV?$basic_string@DU?$char_traits@D@std@@V?$allocator@D@2@@std@@@Z$6 10041502 f    CIL library: CIL module
 0001:0004050d       __unwindfunclet$?parseFilePathConfig@FrameConfigFileOperate@@QAE_NPAUST_FRAME_CONFIG_INFO_T@@AAV?$basic_string@DU?$char_traits@D@std@@V?$allocator@D@2@@std@@@Z$7 1004150d f    CIL library: CIL module
 0001:00040518       __unwindfunclet$?parseFilePathConfig@FrameConfigFileOperate@@QAE_NPAUST_FRAME_CONFIG_INFO_T@@AAV?$basic_string@DU?$char_traits@D@std@@V?$allocator@D@2@@std@@@Z$8 10041518 f    CIL library: CIL module
 0001:00040523       __unwindfunclet$?parseFilePathConfig@FrameConfigFileOperate@@QAE_NPAUST_FRAME_CONFIG_INFO_T@@AAV?$basic_string@DU?$char_traits@D@std@@V?$allocator@D@2@@std@@@Z$9 10041523 f    CIL library: CIL module
 0001:0004052e       __unwindfunclet$?parseFilePathConfig@FrameConfigFileOperate@@QAE_NPAUST_FRAME_CONFIG_INFO_T@@AAV?$basic_string@DU?$char_traits@D@std@@V?$allocator@D@2@@std@@@Z$10 1004152e f    CIL library: CIL module
 0001:00040539       __ehhandler$?parseFilePathConfig@FrameConfigFileOperate@@QAE_NPAUST_FRAME_CONFIG_INFO_T@@AAV?$basic_string@DU?$char_traits@D@std@@V?$allocator@D@2@@std@@@Z 10041539 f    CIL library: CIL module
 0001:00040570       __unwindfunclet$?ParseConfigDll@CommonFrameMain@@QAE?AV?$set@V?$basic_string@DU?$char_traits@D@std@@V?$allocator@D@2@@std@@U?$less@V?$basic_string@DU?$char_traits@D@std@@V?$allocator@D@2@@std@@@2@V?$allocator@V?$basic_string@DU?$char_traits@D@std@@V?$allocator@D@2@@std@@@2@@std@@ABV?$basic_string@DU?$char_traits@D@std@@V?$allocator@D@2@@3@@Z$0 10041570 f    CIL library: CIL module
 0001:0004057b       __unwindfunclet$?ParseConfigDll@CommonFrameMain@@QAE?AV?$set@V?$basic_string@DU?$char_traits@D@std@@V?$allocator@D@2@@std@@U?$less@V?$basic_string@DU?$char_traits@D@std@@V?$allocator@D@2@@std@@@2@V?$allocator@V?$basic_string@DU?$char_traits@D@std@@V?$allocator@D@2@@std@@@2@@std@@ABV?$basic_string@DU?$char_traits@D@std@@V?$allocator@D@2@@3@@Z$1 1004157b f    CIL library: CIL module
 0001:00040586       __unwindfunclet$?ParseConfigDll@CommonFrameMain@@QAE?AV?$set@V?$basic_string@DU?$char_traits@D@std@@V?$allocator@D@2@@std@@U?$less@V?$basic_string@DU?$char_traits@D@std@@V?$allocator@D@2@@std@@@2@V?$allocator@V?$basic_string@DU?$char_traits@D@std@@V?$allocator@D@2@@std@@@2@@std@@ABV?$basic_string@DU?$char_traits@D@std@@V?$allocator@D@2@@3@@Z$2 10041586 f    CIL library: CIL module
 0001:000405a8       __unwindfunclet$?ParseConfigDll@CommonFrameMain@@QAE?AV?$set@V?$basic_string@DU?$char_traits@D@std@@V?$allocator@D@2@@std@@U?$less@V?$basic_string@DU?$char_traits@D@std@@V?$allocator@D@2@@std@@@2@V?$allocator@V?$basic_string@DU?$char_traits@D@std@@V?$allocator@D@2@@std@@@2@@std@@ABV?$basic_string@DU?$char_traits@D@std@@V?$allocator@D@2@@3@@Z$3 100415a8 f    CIL library: CIL module
 0001:000405b3       __unwindfunclet$?ParseConfigDll@CommonFrameMain@@QAE?AV?$set@V?$basic_string@DU?$char_traits@D@std@@V?$allocator@D@2@@std@@U?$less@V?$basic_string@DU?$char_traits@D@std@@V?$allocator@D@2@@std@@@2@V?$allocator@V?$basic_string@DU?$char_traits@D@std@@V?$allocator@D@2@@std@@@2@@std@@ABV?$basic_string@DU?$char_traits@D@std@@V?$allocator@D@2@@3@@Z$4 100415b3 f    CIL library: CIL module
 0001:000405be       __unwindfunclet$?ParseConfigDll@CommonFrameMain@@QAE?AV?$set@V?$basic_string@DU?$char_traits@D@std@@V?$allocator@D@2@@std@@U?$less@V?$basic_string@DU?$char_traits@D@std@@V?$allocator@D@2@@std@@@2@V?$allocator@V?$basic_string@DU?$char_traits@D@std@@V?$allocator@D@2@@std@@@2@@std@@ABV?$basic_string@DU?$char_traits@D@std@@V?$allocator@D@2@@3@@Z$5 100415be f    CIL library: CIL module
 0001:000405c9       __unwindfunclet$?ParseConfigDll@CommonFrameMain@@QAE?AV?$set@V?$basic_string@DU?$char_traits@D@std@@V?$allocator@D@2@@std@@U?$less@V?$basic_string@DU?$char_traits@D@std@@V?$allocator@D@2@@std@@@2@V?$allocator@V?$basic_string@DU?$char_traits@D@std@@V?$allocator@D@2@@std@@@2@@std@@ABV?$basic_string@DU?$char_traits@D@std@@V?$allocator@D@2@@3@@Z$6 100415c9 f    CIL library: CIL module
 0001:000405d4       __unwindfunclet$?ParseConfigDll@CommonFrameMain@@QAE?AV?$set@V?$basic_string@DU?$char_traits@D@std@@V?$allocator@D@2@@std@@U?$less@V?$basic_string@DU?$char_traits@D@std@@V?$allocator@D@2@@std@@@2@V?$allocator@V?$basic_string@DU?$char_traits@D@std@@V?$allocator@D@2@@std@@@2@@std@@ABV?$basic_string@DU?$char_traits@D@std@@V?$allocator@D@2@@3@@Z$7 100415d4 f    CIL library: CIL module
 0001:000405df       __unwindfunclet$?ParseConfigDll@CommonFrameMain@@QAE?AV?$set@V?$basic_string@DU?$char_traits@D@std@@V?$allocator@D@2@@std@@U?$less@V?$basic_string@DU?$char_traits@D@std@@V?$allocator@D@2@@std@@@2@V?$allocator@V?$basic_string@DU?$char_traits@D@std@@V?$allocator@D@2@@std@@@2@@std@@ABV?$basic_string@DU?$char_traits@D@std@@V?$allocator@D@2@@3@@Z$8 100415df f    CIL library: CIL module
 0001:000405ea       __unwindfunclet$?ParseConfigDll@CommonFrameMain@@QAE?AV?$set@V?$basic_string@DU?$char_traits@D@std@@V?$allocator@D@2@@std@@U?$less@V?$basic_string@DU?$char_traits@D@std@@V?$allocator@D@2@@std@@@2@V?$allocator@V?$basic_string@DU?$char_traits@D@std@@V?$allocator@D@2@@std@@@2@@std@@ABV?$basic_string@DU?$char_traits@D@std@@V?$allocator@D@2@@3@@Z$9 100415ea f    CIL library: CIL module
 0001:000405f5       __unwindfunclet$?ParseConfigDll@CommonFrameMain@@QAE?AV?$set@V?$basic_string@DU?$char_traits@D@std@@V?$allocator@D@2@@std@@U?$less@V?$basic_string@DU?$char_traits@D@std@@V?$allocator@D@2@@std@@@2@V?$allocator@V?$basic_string@DU?$char_traits@D@std@@V?$allocator@D@2@@std@@@2@@std@@ABV?$basic_string@DU?$char_traits@D@std@@V?$allocator@D@2@@3@@Z$10 100415f5 f    CIL library: CIL module
 0001:00040600       __unwindfunclet$?ParseConfigDll@CommonFrameMain@@QAE?AV?$set@V?$basic_string@DU?$char_traits@D@std@@V?$allocator@D@2@@std@@U?$less@V?$basic_string@DU?$char_traits@D@std@@V?$allocator@D@2@@std@@@2@V?$allocator@V?$basic_string@DU?$char_traits@D@std@@V?$allocator@D@2@@std@@@2@@std@@ABV?$basic_string@DU?$char_traits@D@std@@V?$allocator@D@2@@3@@Z$11 10041600 f    CIL library: CIL module
 0001:0004060b       __unwindfunclet$?ParseConfigDll@CommonFrameMain@@QAE?AV?$set@V?$basic_string@DU?$char_traits@D@std@@V?$allocator@D@2@@std@@U?$less@V?$basic_string@DU?$char_traits@D@std@@V?$allocator@D@2@@std@@@2@V?$allocator@V?$basic_string@DU?$char_traits@D@std@@V?$allocator@D@2@@std@@@2@@std@@ABV?$basic_string@DU?$char_traits@D@std@@V?$allocator@D@2@@3@@Z$12 1004160b f    CIL library: CIL module
 0001:00040613       __unwindfunclet$?ParseConfigDll@CommonFrameMain@@QAE?AV?$set@V?$basic_string@DU?$char_traits@D@std@@V?$allocator@D@2@@std@@U?$less@V?$basic_string@DU?$char_traits@D@std@@V?$allocator@D@2@@std@@@2@V?$allocator@V?$basic_string@DU?$char_traits@D@std@@V?$allocator@D@2@@std@@@2@@std@@ABV?$basic_string@DU?$char_traits@D@std@@V?$allocator@D@2@@3@@Z$13 10041613 f    CIL library: CIL module
 0001:0004061e       __ehhandler$?ParseConfigDll@CommonFrameMain@@QAE?AV?$set@V?$basic_string@DU?$char_traits@D@std@@V?$allocator@D@2@@std@@U?$less@V?$basic_string@DU?$char_traits@D@std@@V?$allocator@D@2@@std@@@2@V?$allocator@V?$basic_string@DU?$char_traits@D@std@@V?$allocator@D@2@@std@@@2@@std@@ABV?$basic_string@DU?$char_traits@D@std@@V?$allocator@D@2@@3@@Z 1004161e f    CIL library: CIL module
 0001:00040650       __unwindfunclet$?readFileName@CommonFrameMain@@AAEXXZ$0 10041650 f    CIL library: CIL module
 0001:00040658       __unwindfunclet$?readFileName@CommonFrameMain@@AAEXXZ$1 10041658 f    CIL library: CIL module
 0001:00040660       __unwindfunclet$?readFileName@CommonFrameMain@@AAEXXZ$2 10041660 f    CIL library: CIL module
 0001:00040668       __unwindfunclet$?readFileName@CommonFrameMain@@AAEXXZ$3 10041668 f    CIL library: CIL module
 0001:00040670       __ehhandler$?readFileName@CommonFrameMain@@AAEXXZ 10041670 f    CIL library: CIL module
 0001:000406a0       __unwindfunclet$?loadLib@CommonFrameMain@@QAEXV?$basic_string@DU?$char_traits@D@std@@V?$allocator@D@2@@std@@AA_N@Z$0 100416a0 f    CIL library: CIL module
 0001:000406a8       __unwindfunclet$?loadLib@CommonFrameMain@@QAEXV?$basic_string@DU?$char_traits@D@std@@V?$allocator@D@2@@std@@AA_N@Z$1 100416a8 f    CIL library: CIL module
 0001:000406b3       __unwindfunclet$?loadLib@CommonFrameMain@@QAEXV?$basic_string@DU?$char_traits@D@std@@V?$allocator@D@2@@std@@AA_N@Z$2 100416b3 f    CIL library: CIL module
 0001:000406be       __unwindfunclet$?loadLib@CommonFrameMain@@QAEXV?$basic_string@DU?$char_traits@D@std@@V?$allocator@D@2@@std@@AA_N@Z$3 100416be f    CIL library: CIL module
 0001:000406c9       __unwindfunclet$?loadLib@CommonFrameMain@@QAEXV?$basic_string@DU?$char_traits@D@std@@V?$allocator@D@2@@std@@AA_N@Z$4 100416c9 f    CIL library: CIL module
 0001:000406d4       __unwindfunclet$?loadLib@CommonFrameMain@@QAEXV?$basic_string@DU?$char_traits@D@std@@V?$allocator@D@2@@std@@AA_N@Z$5 100416d4 f    CIL library: CIL module
 0001:000406df       __unwindfunclet$?loadLib@CommonFrameMain@@QAEXV?$basic_string@DU?$char_traits@D@std@@V?$allocator@D@2@@std@@AA_N@Z$6 100416df f    CIL library: CIL module
 0001:000406ea       __unwindfunclet$?loadLib@CommonFrameMain@@QAEXV?$basic_string@DU?$char_traits@D@std@@V?$allocator@D@2@@std@@AA_N@Z$7 100416ea f    CIL library: CIL module
 0001:000406f5       __unwindfunclet$?loadLib@CommonFrameMain@@QAEXV?$basic_string@DU?$char_traits@D@std@@V?$allocator@D@2@@std@@AA_N@Z$8 100416f5 f    CIL library: CIL module
 0001:00040700       __unwindfunclet$?loadLib@CommonFrameMain@@QAEXV?$basic_string@DU?$char_traits@D@std@@V?$allocator@D@2@@std@@AA_N@Z$9 10041700 f    CIL library: CIL module
 0001:0004070b       __ehhandler$?loadLib@CommonFrameMain@@QAEXV?$basic_string@DU?$char_traits@D@std@@V?$allocator@D@2@@std@@AA_N@Z 1004170b f    CIL library: CIL module
 0001:00040740       __unwindfunclet$?tryUpdateDLL@CommonFrameMain@@QAEXXZ$0 10041740 f    CIL library: CIL module
 0001:0004074b       __unwindfunclet$?tryUpdateDLL@CommonFrameMain@@QAEXXZ$1 1004174b f    CIL library: CIL module
 0001:00040756       __unwindfunclet$?tryUpdateDLL@CommonFrameMain@@QAEXXZ$2 10041756 f    CIL library: CIL module
 0001:00040761       __unwindfunclet$?tryUpdateDLL@CommonFrameMain@@QAEXXZ$3 10041761 f    CIL library: CIL module
 0001:0004076c       __unwindfunclet$?tryUpdateDLL@CommonFrameMain@@QAEXXZ$4 1004176c f    CIL library: CIL module
 0001:00040777       __unwindfunclet$?tryUpdateDLL@CommonFrameMain@@QAEXXZ$5 10041777 f    CIL library: CIL module
 0001:00040782       __unwindfunclet$?tryUpdateDLL@CommonFrameMain@@QAEXXZ$6 10041782 f    CIL library: CIL module
 0001:0004078d       __unwindfunclet$?tryUpdateDLL@CommonFrameMain@@QAEXXZ$7 1004178d f    CIL library: CIL module
 0001:00040798       __unwindfunclet$?tryUpdateDLL@CommonFrameMain@@QAEXXZ$8 10041798 f    CIL library: CIL module
 0001:000407a3       __unwindfunclet$?tryUpdateDLL@CommonFrameMain@@QAEXXZ$9 100417a3 f    CIL library: CIL module
 0001:000407ae       __unwindfunclet$?tryUpdateDLL@CommonFrameMain@@QAEXXZ$10 100417ae f    CIL library: CIL module
 0001:000407b9       __unwindfunclet$?tryUpdateDLL@CommonFrameMain@@QAEXXZ$11 100417b9 f    CIL library: CIL module
 0001:000407c4       __unwindfunclet$?tryUpdateDLL@CommonFrameMain@@QAEXXZ$12 100417c4 f    CIL library: CIL module
 0001:000407cf       __unwindfunclet$?tryUpdateDLL@CommonFrameMain@@QAEXXZ$13 100417cf f    CIL library: CIL module
 0001:000407da       __unwindfunclet$?tryUpdateDLL@CommonFrameMain@@QAEXXZ$14 100417da f    CIL library: CIL module
 0001:000407e5       __unwindfunclet$?tryUpdateDLL@CommonFrameMain@@QAEXXZ$15 100417e5 f    CIL library: CIL module
 0001:000407f0       __unwindfunclet$?tryUpdateDLL@CommonFrameMain@@QAEXXZ$16 100417f0 f    CIL library: CIL module
 0001:000407fb       __unwindfunclet$?tryUpdateDLL@CommonFrameMain@@QAEXXZ$17 100417fb f    CIL library: CIL module
 0001:00040806       __unwindfunclet$?tryUpdateDLL@CommonFrameMain@@QAEXXZ$19 10041806 f    CIL library: CIL module
 0001:00040811       __unwindfunclet$?tryUpdateDLL@CommonFrameMain@@QAEXXZ$20 10041811 f    CIL library: CIL module
 0001:0004081c       __unwindfunclet$?tryUpdateDLL@CommonFrameMain@@QAEXXZ$21 1004181c f    CIL library: CIL module
 0001:00040827       __unwindfunclet$?tryUpdateDLL@CommonFrameMain@@QAEXXZ$22 10041827 f    CIL library: CIL module
 0001:00040832       __unwindfunclet$?tryUpdateDLL@CommonFrameMain@@QAEXXZ$28 10041832 f    CIL library: CIL module
 0001:0004083d       __unwindfunclet$?tryUpdateDLL@CommonFrameMain@@QAEXXZ$29 1004183d f    CIL library: CIL module
 0001:00040848       __unwindfunclet$?tryUpdateDLL@CommonFrameMain@@QAEXXZ$30 10041848 f    CIL library: CIL module
 0001:00040853       __unwindfunclet$?tryUpdateDLL@CommonFrameMain@@QAEXXZ$31 10041853 f    CIL library: CIL module
 0001:0004085e       __unwindfunclet$?tryUpdateDLL@CommonFrameMain@@QAEXXZ$32 1004185e f    CIL library: CIL module
 0001:00040869       __unwindfunclet$?tryUpdateDLL@CommonFrameMain@@QAEXXZ$33 10041869 f    CIL library: CIL module
 0001:00040874       __unwindfunclet$?tryUpdateDLL@CommonFrameMain@@QAEXXZ$34 10041874 f    CIL library: CIL module
 0001:0004087f       __unwindfunclet$?tryUpdateDLL@CommonFrameMain@@QAEXXZ$35 1004187f f    CIL library: CIL module
 0001:0004088a       __ehhandler$?tryUpdateDLL@CommonFrameMain@@QAEXXZ 1004188a f    CIL library: CIL module
 0001:000408c0       __unwindfunclet$??0CommonFrameMain@@AAE@XZ$0 100418c0 f    CIL library: CIL module
 0001:000408cb       __unwindfunclet$??0CommonFrameMain@@AAE@XZ$1 100418cb f    CIL library: CIL module
 0001:000408d6       __unwindfunclet$??0CommonFrameMain@@AAE@XZ$2 100418d6 f    CIL library: CIL module
 0001:000408e4       __unwindfunclet$??0CommonFrameMain@@AAE@XZ$3 100418e4 f    CIL library: CIL module
 0001:000408f2       __unwindfunclet$??0CommonFrameMain@@AAE@XZ$4 100418f2 f    CIL library: CIL module
 0001:00040900       __unwindfunclet$??0CommonFrameMain@@AAE@XZ$5 10041900 f    CIL library: CIL module
 0001:0004090e       __unwindfunclet$??0CommonFrameMain@@AAE@XZ$6 1004190e f    CIL library: CIL module
 0001:0004091b       __unwindfunclet$??0CommonFrameMain@@AAE@XZ$7 1004191b f    CIL library: CIL module
 0001:00040928       __unwindfunclet$??0CommonFrameMain@@AAE@XZ$8 10041928 f    CIL library: CIL module
 0001:00040936       __unwindfunclet$??0CommonFrameMain@@AAE@XZ$9 10041936 f    CIL library: CIL module
 0001:00040944       __unwindfunclet$??0CommonFrameMain@@AAE@XZ$10 10041944 f    CIL library: CIL module
 0001:00040952       __unwindfunclet$??0CommonFrameMain@@AAE@XZ$11 10041952 f    CIL library: CIL module
 0001:00040960       __unwindfunclet$??0CommonFrameMain@@AAE@XZ$12 10041960 f    CIL library: CIL module
 0001:00040968       __unwindfunclet$??0CommonFrameMain@@AAE@XZ$13 10041968 f    CIL library: CIL module
 0001:00040970       __unwindfunclet$??0CommonFrameMain@@AAE@XZ$14 10041970 f    CIL library: CIL module
 0001:00040978       __unwindfunclet$??0CommonFrameMain@@AAE@XZ$15 10041978 f    CIL library: CIL module
 0001:00040980       __ehhandler$??0CommonFrameMain@@AAE@XZ 10041980 f    CIL library: CIL module
 0001:000409a0       __unwindfunclet$?instance@CommonFrameMain@@SAPAV1@XZ$0 100419a0 f    CIL library: CIL module
 0001:000409ab       __ehhandler$?instance@CommonFrameMain@@SAPAV1@XZ 100419ab f    CIL library: CIL module
 0001:000409d0       __unwindfunclet$?IF_EventStartScan@@YG_NABH@Z$0 100419d0 f    CIL library: CIL module
 0001:000409d0       __unwindfunclet$?IF_GetComponentStatus@@YG_NAAI@Z$0 100419d0 f    CIL library: CIL module
 0001:000409d0       __unwindfunclet$?IF_StartGetAccountInfo@@YG_NABH@Z$0 100419d0 f    CIL library: CIL module
 0001:000409d0       __unwindfunclet$?IF_EventGetComponentStatus@@YG_NAAI@Z$0 100419d0 f    CIL library: CIL module
 0001:000409d8       __unwindfunclet$?IF_EventStartScan@@YG_NABH@Z$1 100419d8 f    CIL library: CIL module
 0001:000409d8       __unwindfunclet$?IF_EventGetComponentStatus@@YG_NAAI@Z$1 100419d8 f    CIL library: CIL module
 0001:000409d8       __unwindfunclet$?IF_GetComponentStatus@@YG_NAAI@Z$1 100419d8 f    CIL library: CIL module
 0001:000409d8       __unwindfunclet$?IF_StartGetAccountInfo@@YG_NABH@Z$1 100419d8 f    CIL library: CIL module
 0001:000409e0       __ehhandler$?IF_EventStartScan@@YG_NABH@Z 100419e0 f    CIL library: CIL module
 0001:000409e0       __ehhandler$?IF_EventGetComponentStatus@@YG_NAAI@Z 100419e0 f    CIL library: CIL module
 0001:000409e0       __ehhandler$?IF_StartGetAccountInfo@@YG_NABH@Z 100419e0 f    CIL library: CIL module
 0001:000409e0       __ehhandler$?IF_GetComponentStatus@@YG_NAAI@Z 100419e0 f    CIL library: CIL module
 0001:00040a10       __unwindfunclet$?IF_GetLastErrorDesc@@YGPBDXZ$0 10041a10 f    CIL library: CIL module
 0001:00040a10       __unwindfunclet$?IF_EventGetLastErrorDesc@@YGPBDXZ$0 10041a10 f    CIL library: CIL module
 0001:00040a18       __unwindfunclet$?IF_EventGetLastErrorDesc@@YGPBDXZ$2 10041a18 f    CIL library: CIL module
 0001:00040a18       __unwindfunclet$?IF_GetLastErrorDesc@@YGPBDXZ$2 10041a18 f    CIL library: CIL module
 0001:00040a20       __ehhandler$?IF_GetLastErrorDesc@@YGPBDXZ 10041a20 f    CIL library: CIL module
 0001:00040a20       __ehhandler$?IF_EventGetLastErrorDesc@@YGPBDXZ 10041a20 f    CIL library: CIL module
 0001:00040a50       __unwindfunclet$?IF_EventInitEnvironment3@@YG_NABIABQAUHWND__@@0PBD222ABHPAXP6AXHH4@Z@Z$0 10041a50 f    CIL library: CIL module
 0001:00040a58       __unwindfunclet$?IF_EventInitEnvironment3@@YG_NABIABQAUHWND__@@0PBD222ABHPAXP6AXHH4@Z@Z$1 10041a58 f    CIL library: CIL module
 0001:00040a60       __ehhandler$?IF_EventInitEnvironment3@@YG_NABIABQAUHWND__@@0PBD222ABHPAXP6AXHH4@Z@Z 10041a60 f    CIL library: CIL module
 0001:00040a90       __unwindfunclet$?IF_GetAuditResult@@YG_NPADAAH@Z$0 10041a90 f    CIL library: CIL module
 0001:00040a90       __unwindfunclet$?IF_AuditPayIdenfitier@@YG_NPBDAAH@Z$0 10041a90 f    CIL library: CIL module
 0001:00040a90       __unwindfunclet$?IF_TMP_SetUnipayEncrypt@@YG_NHPBDPAD@Z$0 10041a90 f    CIL library: CIL module
 0001:00040a90       __unwindfunclet$?IF_GetServerTime@@YG_NAAIABH@Z$0 10041a90 f    CIL library: CIL module
 0001:00040a98       __unwindfunclet$?IF_TMP_SetUnipayEncrypt@@YG_NHPBDPAD@Z$1 10041a98 f    CIL library: CIL module
 0001:00040a98       __unwindfunclet$?IF_AuditPayIdenfitier@@YG_NPBDAAH@Z$1 10041a98 f    CIL library: CIL module
 0001:00040a98       __unwindfunclet$?IF_GetServerTime@@YG_NAAIABH@Z$1 10041a98 f    CIL library: CIL module
 0001:00040a98       __unwindfunclet$?IF_GetAuditResult@@YG_NPADAAH@Z$1 10041a98 f    CIL library: CIL module
 0001:00040aa0       __ehhandler$?IF_AuditPayIdenfitier@@YG_NPBDAAH@Z 10041aa0 f    CIL library: CIL module
 0001:00040aa0       __ehhandler$?IF_GetAuditResult@@YG_NPADAAH@Z 10041aa0 f    CIL library: CIL module
 0001:00040aa0       __ehhandler$?IF_GetServerTime@@YG_NAAIABH@Z 10041aa0 f    CIL library: CIL module
 0001:00040aa0       __ehhandler$?IF_TMP_SetUnipayEncrypt@@YG_NHPBDPAD@Z 10041aa0 f    CIL library: CIL module
 0001:00040ad0       __unwindfunclet$?IF_DebitMoneyEtcUp@@YGHPBDABH1PADAAHH@Z$0 10041ad0 f    CIL library: CIL module
 0001:00040ad0       __unwindfunclet$?IF_ITCEntryTrade@@YGHPBDABH1PADAAHH@Z$0 10041ad0 f    CIL library: CIL module
 0001:00040ad0       __unwindfunclet$?IF_GetParam@@YG_NPBDABH1PADAAH@Z$0 10041ad0 f    CIL library: CIL module
 0001:00040ad0       __unwindfunclet$?IF_ITCExitTrade@@YGHPBDABH1PADAAHH@Z$0 10041ad0 f    CIL library: CIL module
 0001:00040ad0       __unwindfunclet$?IF_QueryAgentDebit@@YG_NPBDABH1AAH@Z$0 10041ad0 f    CIL library: CIL module
 0001:00040ad0       __unwindfunclet$?IF_ITCExitQuery@@YGHPBDABH1PADAAHH_N@Z$0 10041ad0 f    CIL library: CIL module
 0001:00040ad0       __unwindfunclet$?IF_QueryAgentDebitResultEtcUp@@YGHPBDABH1PADAAHH@Z$0 10041ad0 f    CIL library: CIL module
 0001:00040ad0       __unwindfunclet$?IF_QueryVirtualCardDebit@@YG_NPBDABH1AAHPAD@Z$0 10041ad0 f    CIL library: CIL module
 0001:00040ad0       __unwindfunclet$?IF_ITCEntryQuery@@YGHPBDABH1PADAAHH_N@Z$0 10041ad0 f    CIL library: CIL module
 0001:00040ad0       __unwindfunclet$?IF_QueryAgentDebitEtcUp@@YGHPBDABH1AAH1@Z$0 10041ad0 f    CIL library: CIL module
 0001:00040ad0       __unwindfunclet$?IF_ITCQueryPath@@YGHPBDABH1PADAAHH@Z$0 10041ad0 f    CIL library: CIL module
 0001:00040ad8       __unwindfunclet$?IF_QueryAgentDebit@@YG_NPBDABH1AAH@Z$1 10041ad8 f    CIL library: CIL module
 0001:00040ad8       __unwindfunclet$?IF_QueryAgentDebitEtcUp@@YGHPBDABH1AAH1@Z$1 10041ad8 f    CIL library: CIL module
 0001:00040ad8       __unwindfunclet$?IF_ITCEntryQuery@@YGHPBDABH1PADAAHH_N@Z$1 10041ad8 f    CIL library: CIL module
 0001:00040ad8       __unwindfunclet$?IF_QueryAgentDebitResultEtcUp@@YGHPBDABH1PADAAHH@Z$1 10041ad8 f    CIL library: CIL module
 0001:00040ad8       __unwindfunclet$?IF_QueryVirtualCardDebit@@YG_NPBDABH1AAHPAD@Z$1 10041ad8 f    CIL library: CIL module
 0001:00040ad8       __unwindfunclet$?IF_ITCQueryPath@@YGHPBDABH1PADAAHH@Z$1 10041ad8 f    CIL library: CIL module
 0001:00040ad8       __unwindfunclet$?IF_GetParam@@YG_NPBDABH1PADAAH@Z$1 10041ad8 f    CIL library: CIL module
 0001:00040ad8       __unwindfunclet$?IF_ITCExitQuery@@YGHPBDABH1PADAAHH_N@Z$1 10041ad8 f    CIL library: CIL module
 0001:00040ad8       __unwindfunclet$?IF_ITCExitTrade@@YGHPBDABH1PADAAHH@Z$1 10041ad8 f    CIL library: CIL module
 0001:00040ad8       __unwindfunclet$?IF_DebitMoneyEtcUp@@YGHPBDABH1PADAAHH@Z$1 10041ad8 f    CIL library: CIL module
 0001:00040ad8       __unwindfunclet$?IF_ITCEntryTrade@@YGHPBDABH1PADAAHH@Z$1 10041ad8 f    CIL library: CIL module
 0001:00040ae0       __ehhandler$?IF_QueryAgentDebitEtcUp@@YGHPBDABH1AAH1@Z 10041ae0 f    CIL library: CIL module
 0001:00040ae0       __ehhandler$?IF_ITCExitTrade@@YGHPBDABH1PADAAHH@Z 10041ae0 f    CIL library: CIL module
 0001:00040ae0       __ehhandler$?IF_QueryAgentDebitResultEtcUp@@YGHPBDABH1PADAAHH@Z 10041ae0 f    CIL library: CIL module
 0001:00040ae0       __ehhandler$?IF_QueryAgentDebit@@YG_NPBDABH1AAH@Z 10041ae0 f    CIL library: CIL module
 0001:00040ae0       __ehhandler$?IF_DebitMoneyEtcUp@@YGHPBDABH1PADAAHH@Z 10041ae0 f    CIL library: CIL module
 0001:00040ae0       __ehhandler$?IF_ITCEntryQuery@@YGHPBDABH1PADAAHH_N@Z 10041ae0 f    CIL library: CIL module
 0001:00040ae0       __ehhandler$?IF_ITCExitQuery@@YGHPBDABH1PADAAHH_N@Z 10041ae0 f    CIL library: CIL module
 0001:00040ae0       __ehhandler$?IF_QueryVirtualCardDebit@@YG_NPBDABH1AAHPAD@Z 10041ae0 f    CIL library: CIL module
 0001:00040ae0       __ehhandler$?IF_ITCEntryTrade@@YGHPBDABH1PADAAHH@Z 10041ae0 f    CIL library: CIL module
 0001:00040ae0       __ehhandler$?IF_ITCQueryPath@@YGHPBDABH1PADAAHH@Z 10041ae0 f    CIL library: CIL module
 0001:00040ae0       __ehhandler$?IF_GetParam@@YG_NPBDABH1PADAAH@Z 10041ae0 f    CIL library: CIL module
 0001:00040b10       __unwindfunclet$?IF_GetCancelResult@@YG_NPADAAHABH@Z$0 10041b10 f    CIL library: CIL module
 0001:00040b10       __unwindfunclet$?IF_WriteCardInfo@@YG_NPADAAHABH@Z$0 10041b10 f    CIL library: CIL module
 0001:00040b10       __unwindfunclet$?IF_TranslateData@@YG_NPBDABH1@Z$0 10041b10 f    CIL library: CIL module
 0001:00040b10       __unwindfunclet$?IF_EventDealStart@@YG_NPBDABH1@Z$0 10041b10 f    CIL library: CIL module
 0001:00040b10       __unwindfunclet$?IF_ReadCardInfo@@YG_NPADAAHABH@Z$0 10041b10 f    CIL library: CIL module
 0001:00040b10       __unwindfunclet$?IF_EventCheckVehQueue@@YG_NPBDABH1@Z$0 10041b10 f    CIL library: CIL module
 0001:00040b10       __unwindfunclet$?IF_TransferImage@@YG_NPBDABH1@Z$0 10041b10 f    CIL library: CIL module
 0001:00040b10       __unwindfunclet$?IF_EventCheckVehInfo@@YG_NPBDABH1@Z$0 10041b10 f    CIL library: CIL module
 0001:00040b10       __unwindfunclet$?IF_EventCheckEntryInfo@@YG_NPBDABH1@Z$0 10041b10 f    CIL library: CIL module
 0001:00040b10       __unwindfunclet$?IF_EventShowFeeInfo@@YG_NPBDABH1@Z$0 10041b10 f    CIL library: CIL module
 0001:00040b10       __unwindfunclet$?IF_SetVehicleStatus@@YG_NPBDABH1@Z$0 10041b10 f    CIL library: CIL module
 0001:00040b10       __unwindfunclet$?IF_EventPayResultDisplay@@YG_NPBDABH1@Z$0 10041b10 f    CIL library: CIL module
 0001:00040b10       __unwindfunclet$?IF_EventDealStop@@YG_NPBDABH1@Z$0 10041b10 f    CIL library: CIL module
 0001:00040b10       __unwindfunclet$?IF_CompletionTicketNo@@YG_NPBDABH1@Z$0 10041b10 f    CIL library: CIL module
 0001:00040b10       __unwindfunclet$?IF_EventCardOperationNotify@@YG_NPBDABH1@Z$0 10041b10 f    CIL library: CIL module
 0001:00040b10       __unwindfunclet$?IF_EventModifyVehQueue@@YG_NPBDABH1@Z$0 10041b10 f    CIL library: CIL module
 0001:00040b10       __unwindfunclet$?IF_EventFeeAuthorize@@YG_NPBDABH1@Z$0 10041b10 f    CIL library: CIL module
 0001:00040b10       __unwindfunclet$?IF_SetMMI@@YG_NPBDABH1@Z$0 10041b10 f    CIL library: CIL module
 0001:00040b10       __unwindfunclet$?IF_GetDebitResult@@YG_NPADAAHABH@Z$0 10041b10 f    CIL library: CIL module
 0001:00040b10       __unwindfunclet$?IF_DebitCancel2@@YG_NPBDABH1@Z$0 10041b10 f    CIL library: CIL module
 0001:00040b10       __unwindfunclet$?IF_DebitCancel@@YG_NPBDABH1@Z$0 10041b10 f    CIL library: CIL module
 0001:00040b10       __unwindfunclet$?IF_DebitMoney@@YG_NPBDABH1@Z$0 10041b10 f    CIL library: CIL module
 0001:00040b10       __unwindfunclet$?IF_GetAccountInfo@@YG_NPADAAHABH@Z$0 10041b10 f    CIL library: CIL module
 0001:00040b10       __unwindfunclet$?IF_PrinterTicket@@YG_NPBDAAHABH@Z$0 10041b10 f    CIL library: CIL module
 0001:00040b18       __unwindfunclet$?IF_EventPayResultDisplay@@YG_NPBDABH1@Z$1 10041b18 f    CIL library: CIL module
 0001:00040b18       __unwindfunclet$?IF_DebitCancel@@YG_NPBDABH1@Z$1 10041b18 f    CIL library: CIL module
 0001:00040b18       __unwindfunclet$?IF_SetVehicleStatus@@YG_NPBDABH1@Z$1 10041b18 f    CIL library: CIL module
 0001:00040b18       __unwindfunclet$?IF_DebitCancel2@@YG_NPBDABH1@Z$1 10041b18 f    CIL library: CIL module
 0001:00040b18       __unwindfunclet$?IF_EventCheckEntryInfo@@YG_NPBDABH1@Z$1 10041b18 f    CIL library: CIL module
 0001:00040b18       __unwindfunclet$?IF_GetDebitResult@@YG_NPADAAHABH@Z$1 10041b18 f    CIL library: CIL module
 0001:00040b18       __unwindfunclet$?IF_EventCheckVehInfo@@YG_NPBDABH1@Z$1 10041b18 f    CIL library: CIL module
 0001:00040b18       __unwindfunclet$?IF_SetMMI@@YG_NPBDABH1@Z$1 10041b18 f    CIL library: CIL module
 0001:00040b18       __unwindfunclet$?IF_EventFeeAuthorize@@YG_NPBDABH1@Z$1 10041b18 f    CIL library: CIL module
 0001:00040b18       __unwindfunclet$?IF_DebitMoney@@YG_NPBDABH1@Z$1 10041b18 f    CIL library: CIL module
 0001:00040b18       __unwindfunclet$?IF_PrinterTicket@@YG_NPBDAAHABH@Z$1 10041b18 f    CIL library: CIL module
 0001:00040b18       __unwindfunclet$?IF_EventModifyVehQueue@@YG_NPBDABH1@Z$1 10041b18 f    CIL library: CIL module
 0001:00040b18       __unwindfunclet$?IF_EventCheckVehQueue@@YG_NPBDABH1@Z$1 10041b18 f    CIL library: CIL module
 0001:00040b18       __unwindfunclet$?IF_EventCardOperationNotify@@YG_NPBDABH1@Z$1 10041b18 f    CIL library: CIL module
 0001:00040b18       __unwindfunclet$?IF_EventDealStart@@YG_NPBDABH1@Z$1 10041b18 f    CIL library: CIL module
 0001:00040b18       __unwindfunclet$?IF_ReadCardInfo@@YG_NPADAAHABH@Z$1 10041b18 f    CIL library: CIL module
 0001:00040b18       __unwindfunclet$?IF_GetAccountInfo@@YG_NPADAAHABH@Z$1 10041b18 f    CIL library: CIL module
 0001:00040b18       __unwindfunclet$?IF_TransferImage@@YG_NPBDABH1@Z$1 10041b18 f    CIL library: CIL module
 0001:00040b18       __unwindfunclet$?IF_TranslateData@@YG_NPBDABH1@Z$1 10041b18 f    CIL library: CIL module
 0001:00040b18       __unwindfunclet$?IF_CompletionTicketNo@@YG_NPBDABH1@Z$1 10041b18 f    CIL library: CIL module
 0001:00040b18       __unwindfunclet$?IF_GetCancelResult@@YG_NPADAAHABH@Z$1 10041b18 f    CIL library: CIL module
 0001:00040b18       __unwindfunclet$?IF_WriteCardInfo@@YG_NPADAAHABH@Z$1 10041b18 f    CIL library: CIL module
 0001:00040b18       __unwindfunclet$?IF_EventDealStop@@YG_NPBDABH1@Z$1 10041b18 f    CIL library: CIL module
 0001:00040b18       __unwindfunclet$?IF_EventShowFeeInfo@@YG_NPBDABH1@Z$1 10041b18 f    CIL library: CIL module
 0001:00040b20       __ehhandler$?IF_GetAccountInfo@@YG_NPADAAHABH@Z 10041b20 f    CIL library: CIL module
 0001:00040b20       __ehhandler$?IF_CompletionTicketNo@@YG_NPBDABH1@Z 10041b20 f    CIL library: CIL module
 0001:00040b20       __ehhandler$?IF_GetCancelResult@@YG_NPADAAHABH@Z 10041b20 f    CIL library: CIL module
 0001:00040b20       __ehhandler$?IF_TranslateData@@YG_NPBDABH1@Z 10041b20 f    CIL library: CIL module
 0001:00040b20       __ehhandler$?IF_WriteCardInfo@@YG_NPADAAHABH@Z 10041b20 f    CIL library: CIL module
 0001:00040b20       __ehhandler$?IF_EventDealStart@@YG_NPBDABH1@Z 10041b20 f    CIL library: CIL module
 0001:00040b20       __ehhandler$?IF_EventCardOperationNotify@@YG_NPBDABH1@Z 10041b20 f    CIL library: CIL module
 0001:00040b20       __ehhandler$?IF_DebitMoney@@YG_NPBDABH1@Z 10041b20 f    CIL library: CIL module
 0001:00040b20       __ehhandler$?IF_EventCheckVehQueue@@YG_NPBDABH1@Z 10041b20 f    CIL library: CIL module
 0001:00040b20       __ehhandler$?IF_ReadCardInfo@@YG_NPADAAHABH@Z 10041b20 f    CIL library: CIL module
 0001:00040b20       __ehhandler$?IF_EventModifyVehQueue@@YG_NPBDABH1@Z 10041b20 f    CIL library: CIL module
 0001:00040b20       __ehhandler$?IF_EventCheckVehInfo@@YG_NPBDABH1@Z 10041b20 f    CIL library: CIL module
 0001:00040b20       __ehhandler$?IF_EventFeeAuthorize@@YG_NPBDABH1@Z 10041b20 f    CIL library: CIL module
 0001:00040b20       __ehhandler$?IF_SetMMI@@YG_NPBDABH1@Z 10041b20 f    CIL library: CIL module
 0001:00040b20       __ehhandler$?IF_EventCheckEntryInfo@@YG_NPBDABH1@Z 10041b20 f    CIL library: CIL module
 0001:00040b20       __ehhandler$?IF_PrinterTicket@@YG_NPBDAAHABH@Z 10041b20 f    CIL library: CIL module
 0001:00040b20       __ehhandler$?IF_GetDebitResult@@YG_NPADAAHABH@Z 10041b20 f    CIL library: CIL module
 0001:00040b20       __ehhandler$?IF_EventShowFeeInfo@@YG_NPBDABH1@Z 10041b20 f    CIL library: CIL module
 0001:00040b20       __ehhandler$?IF_DebitCancel2@@YG_NPBDABH1@Z 10041b20 f    CIL library: CIL module
 0001:00040b20       __ehhandler$?IF_TransferImage@@YG_NPBDABH1@Z 10041b20 f    CIL library: CIL module
 0001:00040b20       __ehhandler$?IF_EventPayResultDisplay@@YG_NPBDABH1@Z 10041b20 f    CIL library: CIL module
 0001:00040b20       __ehhandler$?IF_SetVehicleStatus@@YG_NPBDABH1@Z 10041b20 f    CIL library: CIL module
 0001:00040b20       __ehhandler$?IF_EventDealStop@@YG_NPBDABH1@Z 10041b20 f    CIL library: CIL module
 0001:00040b20       __ehhandler$?IF_DebitCancel@@YG_NPBDABH1@Z 10041b20 f    CIL library: CIL module
 0001:00040b50       __unwindfunclet$?IF_EventStopScan@@YG_NXZ$0 10041b50 f    CIL library: CIL module
 0001:00040b50       __unwindfunclet$?IF_StopGetAccountInfo@@YG_NXZ$0 10041b50 f    CIL library: CIL module
 0001:00040b50       __unwindfunclet$?IF_EventDestroy@@YG_NXZ$0 10041b50 f    CIL library: CIL module
 0001:00040b58       __unwindfunclet$?IF_EventStopScan@@YG_NXZ$1 10041b58 f    CIL library: CIL module
 0001:00040b58       __unwindfunclet$?IF_StopGetAccountInfo@@YG_NXZ$1 10041b58 f    CIL library: CIL module
 0001:00040b58       __unwindfunclet$?IF_EventDestroy@@YG_NXZ$1 10041b58 f    CIL library: CIL module
 0001:00040b60       __ehhandler$?IF_EventStopScan@@YG_NXZ 10041b60 f    CIL library: CIL module
 0001:00040b60       __ehhandler$?IF_EventDestroy@@YG_NXZ 10041b60 f    CIL library: CIL module
 0001:00040b60       __ehhandler$?IF_StopGetAccountInfo@@YG_NXZ 10041b60 f    CIL library: CIL module
 0001:00040b90       ??__Eitc_query_str@@YAXXZ  10041b90 f    CIL library: CIL module
 0001:00040ba0       ??__E?null@Value@Json@@2V12@B@@YAXXZ 10041ba0 f    CIL library: CIL module
 0001:00040bc0       ??__EdummyValueAllocatorInitializer@Json@@YAXXZ 10041bc0 f    CIL library: CIL module
 0001:00040be9       ??__E_afxTermDllState@@YAXXZ 10041be9 f   nafxcw:dllmodul.obj
 0001:00040bff       ??__E_afxThreadState@@YAXXZ 10041bff f   nafxcw:afxstate.obj
 0001:00040c0b       ??__E_afxBaseModuleState@@YAXXZ 10041c0b f   nafxcw:afxstate.obj
 0001:00040c17       ??__E_simpleMemoryException@@YAXXZ 10041c17 f   nafxcw:except.obj
 0001:00040c23       ??__E_simpleNotSupportedException@@YAXXZ 10041c23 f   nafxcw:except.obj
 0001:00040c2f       ??__E_simpleInvalidArgException@@YAXXZ 10041c2f f   nafxcw:except.obj
 0001:00040c3b       ??__EafxStringManager@@YAXXZ 10041c3b f   nafxcw:strcore.obj
 0001:00040c45       ??__EafxData@@YAXXZ        10041c45 f   nafxcw:auxdata.obj
 0001:00040c5b       ??__E_afxHtmlHelpState@@YAXXZ 10041c5b f   nafxcw:wincore.obj
 0001:00040c67       ??__E?m_nMsgDragList@CWnd@@1IB@@YAXXZ 10041c67 f   nafxcw:wincore.obj
 0001:00040c78       ??__E?wndTop@CWnd@@2V1@B@@YAXXZ 10041c78 f   nafxcw:wincore.obj
 0001:00040ce0       ??__E?wndBottom@CWnd@@2V1@B@@YAXXZ 10041ce0 f   nafxcw:wincore.obj
 0001:00040d4d       ??__E?wndTopMost@CWnd@@2V1@B@@YAXXZ 10041d4d f   nafxcw:wincore.obj
 0001:00040db7       ??__E?wndNoTopMost@CWnd@@2V1@B@@YAXXZ 10041db7 f   nafxcw:wincore.obj
 0001:00040e24       ??__E_simpleResourceException@@YAXXZ 10041e24 f   nafxcw:wingdi.obj
 0001:00040e5e       ??__E_simpleUserException@@YAXXZ 10041e5e f   nafxcw:wingdi.obj
 0001:00040e98       ??__E_init_CByteArray@@YAXXZ 10041e98 f   nafxcw:array_b.obj
 0001:00040ea3       ??__E_afxDBCS@@YAXXZ       10041ea3 f   nafxcw:afxdbcs.obj
 0001:00040eae       ??__Eclassic_locale@std@@YAXXZ 10041eae f   libcpmt:locale0.obj
 0001:00040eba       ??__Einitlocks@std@@YAXXZ  10041eba f   libcpmt:xlock.obj
 0001:00040ed0       ??__Einitlocks@std@@YAXXZ  10041ed0 f   libcpmt:iosptrs.obj
 0001:00040ee6       ??__Einit_atexit@@YAXXZ    10041ee6 f   libcpmt:iosptrs.obj
 0001:00040ef2       ??__E_AtlBaseModule@ATL@@YAXXZ 10041ef2 f   atls:atlbase.obj
 0001:00040f08       ??__E_AtlWinModule@ATL@@YAXXZ 10041f08 f   atls:atlbase.obj
 0001:00040f20       ??__FstrError@?1??IF_GetLastErrorDesc@@YGPBDXZ@YAXXZ 10041f20 f    CIL library: CIL module
 0001:00040f50       ??__Fitc_query_str@@YAXXZ  10041f50 f    CIL library: CIL module
 0001:00040f80       ??__FstrError@?1??IF_EventGetLastErrorDesc@@YGPBDXZ@YAXXZ 10041f80 f    CIL library: CIL module
 0001:00040fb0       ??__F?null@Value@Json@@2V12@B@@YAXXZ 10041fb0 f    CIL library: CIL module
 0001:00040fc0       ??__FdefaultAllocator@?1??valueAllocator@Json@@YAAAPAVValueAllocator@1@XZ@YAXXZ 10041fc0 f    CIL library: CIL module
 0001:00040fcb       ??__F_afxThreadState@@YAXXZ 10041fcb f   nafxcw:afxstate.obj
 0001:00040fd5       ??__F_afxBaseModuleState@@YAXXZ 10041fd5 f   nafxcw:afxstate.obj
 0001:00040fdf       ??__F_simpleMemoryException@@YAXXZ 10041fdf f   nafxcw:except.obj
 0001:00040fea       ??__F_simpleNotSupportedException@@YAXXZ 10041fea f   nafxcw:except.obj
 0001:00040ff5       ??__F_simpleInvalidArgException@@YAXXZ 10041ff5 f   nafxcw:except.obj
 0001:00041000       ??__FafxData@@YAXXZ        10042000 f   nafxcw:auxdata.obj
 0001:0004100a       ??__F_afxHtmlHelpState@@YAXXZ 1004200a f   nafxcw:wincore.obj
 0001:00041014       ??__F?wndTop@CWnd@@2V1@B@@YAXXZ 10042014 f   nafxcw:wincore.obj
 0001:0004101e       ??__F?wndBottom@CWnd@@2V1@B@@YAXXZ 1004201e f   nafxcw:wincore.obj
 0001:00041028       ??__F?wndTopMost@CWnd@@2V1@B@@YAXXZ 10042028 f   nafxcw:wincore.obj
 0001:00041032       ??__F?wndNoTopMost@CWnd@@2V1@B@@YAXXZ 10042032 f   nafxcw:wincore.obj
 0001:0004103c       ??__F_simpleResourceException@@YAXXZ 1004203c f   nafxcw:wingdi.obj
 0001:00041047       ??__F_simpleUserException@@YAXXZ 10042047 f   nafxcw:wingdi.obj
 0001:00041052       ??__Fclassic_locale@std@@YAXXZ 10042052 f   libcpmt:locale0.obj
 0001:0004105c       ??__Finitlocks@std@@YAXXZ  1004205c f   libcpmt:xlock.obj
 0001:00041066       ??__Finitlocks@std@@YAXXZ  10042066 f   libcpmt:iosptrs.obj
 0001:00041070       ??__Finit_atexit@@YAXXZ    10042070 f   libcpmt:iosptrs.obj
 0001:0004107a       ??__F_AtlBaseModule@ATL@@YAXXZ 1004207a f   atls:atlbase.obj
 0001:00041084       ??__F_AtlWinModule@ATL@@YAXXZ 10042084 f   atls:atlbase.obj
